
led3_test_isr_v2.elf:     file format elf32-littlenios2
led3_test_isr_v2.elf
architecture: nios2:r1, flags 0x00000112:
EXEC_P, HAS_SYMS, D_PAGED
start address 0x00020224

Program Header:
    LOAD off    0x00001000 vaddr 0x00020000 paddr 0x00020000 align 2**12
         filesz 0x00000020 memsz 0x00000020 flags r-x
    LOAD off    0x00001020 vaddr 0x00020020 paddr 0x00020020 align 2**12
         filesz 0x00010a6c memsz 0x00010a6c flags r-x
    LOAD off    0x00011a8c vaddr 0x00030a8c paddr 0x00032368 align 2**12
         filesz 0x000018dc memsz 0x000018dc flags rw-
    LOAD off    0x00000c44 vaddr 0x00033c44 paddr 0x00033c44 align 2**12
         filesz 0x00000000 memsz 0x00000434 flags rw-

Sections:
Idx Name          Size      VMA       LMA       File off  Algn
  0 .entry        00000020  00020000  00020000  00001000  2**5
                  CONTENTS, ALLOC, LOAD, READONLY, CODE
  1 .exceptions   00000204  00020020  00020020  00001020  2**2
                  CONTENTS, ALLOC, LOAD, READONLY, CODE
  2 .text         00010208  00020224  00020224  00001224  2**2
                  CONTENTS, ALLOC, LOAD, READONLY, CODE
  3 .rodata       00000660  0003042c  0003042c  0001142c  2**2
                  CONTENTS, ALLOC, LOAD, READONLY, DATA
  4 .rwdata       000018dc  00030a8c  00032368  00011a8c  2**2
                  CONTENTS, ALLOC, LOAD, DATA, SMALL_DATA
  5 .bss          00000434  00033c44  00033c44  00013c44  2**2
                  ALLOC, SMALL_DATA
  6 .RAM          00000000  00034078  00034078  00013368  2**0
                  CONTENTS
  7 .comment      0000002d  00000000  00000000  00013368  2**0
                  CONTENTS, READONLY
  8 .debug_aranges 00001090  00000000  00000000  00013398  2**3
                  CONTENTS, READONLY, DEBUGGING, OCTETS
  9 .debug_info   0002819b  00000000  00000000  00014428  2**0
                  CONTENTS, READONLY, DEBUGGING, OCTETS
 10 .debug_abbrev 0000b3fc  00000000  00000000  0003c5c3  2**0
                  CONTENTS, READONLY, DEBUGGING, OCTETS
 11 .debug_line   00010ecf  00000000  00000000  000479bf  2**0
                  CONTENTS, READONLY, DEBUGGING, OCTETS
 12 .debug_frame  0000251c  00000000  00000000  00058890  2**2
                  CONTENTS, READONLY, DEBUGGING, OCTETS
 13 .debug_str    00002835  00000000  00000000  0005adac  2**0
                  CONTENTS, READONLY, DEBUGGING, OCTETS
 14 .debug_alt_sim_info 00000010  00000000  00000000  0005d5e4  2**2
                  CONTENTS, READONLY, DEBUGGING, OCTETS
 15 .debug_ranges 00000070  00000000  00000000  0005d5f8  2**3
                  CONTENTS, READONLY, DEBUGGING, OCTETS
 16 .debug_line_str 00001d96  00000000  00000000  0005d668  2**0
                  CONTENTS, READONLY, DEBUGGING, OCTETS
 17 .debug_loclists 00014bdb  00000000  00000000  0005f3fe  2**0
                  CONTENTS, READONLY, DEBUGGING, OCTETS
 18 .debug_rnglists 00001738  00000000  00000000  00073fd9  2**0
                  CONTENTS, READONLY, DEBUGGING, OCTETS
 19 .thread_model 00000003  00000000  00000000  00078b48  2**0
                  CONTENTS, READONLY
 20 .cpu          0000000d  00000000  00000000  00078b4b  2**0
                  CONTENTS, READONLY
 21 .qsys         00000001  00000000  00000000  00078b58  2**0
                  CONTENTS, READONLY
 22 .simulation_enabled 00000001  00000000  00000000  00078b59  2**0
                  CONTENTS, READONLY
 23 .stderr_dev   00000009  00000000  00000000  00078b5a  2**0
                  CONTENTS, READONLY
 24 .stdin_dev    00000009  00000000  00000000  00078b63  2**0
                  CONTENTS, READONLY
 25 .stdout_dev   00000009  00000000  00000000  00078b6c  2**0
                  CONTENTS, READONLY
 26 .sopc_system_name 00000009  00000000  00000000  00078b75  2**0
                  CONTENTS, READONLY
 27 .sopcinfo     00051551  00000000  00000000  00078b7e  2**0
                  CONTENTS, READONLY
SYMBOL TABLE:
00020000 l    d  .entry	00000000 .entry
00020020 l    d  .exceptions	00000000 .exceptions
00020224 l    d  .text	00000000 .text
0003042c l    d  .rodata	00000000 .rodata
00030a8c l    d  .rwdata	00000000 .rwdata
00033c44 l    d  .bss	00000000 .bss
00034078 l    d  .RAM	00000000 .RAM
00000000 l    d  .comment	00000000 .comment
00000000 l    d  .debug_aranges	00000000 .debug_aranges
00000000 l    d  .debug_info	00000000 .debug_info
00000000 l    d  .debug_abbrev	00000000 .debug_abbrev
00000000 l    d  .debug_line	00000000 .debug_line
00000000 l    d  .debug_frame	00000000 .debug_frame
00000000 l    d  .debug_str	00000000 .debug_str
00000000 l    d  .debug_alt_sim_info	00000000 .debug_alt_sim_info
00000000 l    d  .debug_ranges	00000000 .debug_ranges
00000000 l    d  .debug_line_str	00000000 .debug_line_str
00000000 l    d  .debug_loclists	00000000 .debug_loclists
00000000 l    d  .debug_rnglists	00000000 .debug_rnglists
00000000 l    df *ABS*	00000000 crt0.o
0002025c l       .text	00000000 alt_after_alt_main
00000000 l    df *ABS*	00000000 alt_irq_handler.c
00000000 l    df *ABS*	00000000 alt_instruction_exception_entry.c
00000000 l    df *ABS*	00000000 gpio_drv.c
0003042c l     O .rodata	00000010 SSEG_HEX_TABLE.0
00000000 l    df *ABS*	00000000 led3_test_isr_v2.c
00033c44 l     O .bss	00000004 old.2
0002057c l     F .text	000000a4 led_flash_isr
00033c48 l     O .bss	00000004 tick.1
00032330 l     O .rwdata	00000001 led_ptn.0
00000000 l    df *ABS*	00000000 timer_drv.c
00000000 l    df *ABS*	00000000 lib2-divmod.c
00000000 l    df *ABS*	00000000 printf.c
00000000 l    df *ABS*	00000000 impure.c
00000000 l    df *ABS*	00000000 vfprintf.c
00030494 l     O .rodata	00000010 zeroes.0
00022d08 l     F .text	000000c4 __sbprintf
000304a4 l     O .rodata	00000010 blanks.1
00000000 l    df *ABS*	00000000 vfiprintf.c
00022dcc l     F .text	000000f4 __sprint_r.part.0
000304b4 l     O .rodata	00000010 zeroes.0
00024190 l     F .text	000000c4 __sbprintf
000304c4 l     O .rodata	00000010 blanks.1
00000000 l    df *ABS*	00000000 fflush.c
00000000 l    df *ABS*	00000000 findfp.c
00024544 l     F .text	00000008 __fp_lock
0002454c l     F .text	0000001c stdio_exit_handler
00024568 l     F .text	00000070 cleanup_stdio
000245d8 l     F .text	00000008 __fp_unlock
000245e0 l     F .text	00000174 global_stdio_init.part.0
00000000 l    df *ABS*	00000000 fvwrite.c
00000000 l    df *ABS*	00000000 fwalk.c
00000000 l    df *ABS*	00000000 stdio.c
00000000 l    df *ABS*	00000000 wsetup.c
00000000 l    df *ABS*	00000000 fputwc.c
00000000 l    df *ABS*	00000000 memchr.c
00000000 l    df *ABS*	00000000 memcpy.c
00000000 l    df *ABS*	00000000 memmove.c
00000000 l    df *ABS*	00000000 memset.c
00000000 l    df *ABS*	00000000 strlen.c
00000000 l    df *ABS*	00000000 locale.c
00000000 l    df *ABS*	00000000 localeconv.c
00000000 l    df *ABS*	00000000 closer.c
00000000 l    df *ABS*	00000000 reent.c
00000000 l    df *ABS*	00000000 lseekr.c
00000000 l    df *ABS*	00000000 readr.c
00000000 l    df *ABS*	00000000 writer.c
00000000 l    df *ABS*	00000000 dtoa.c
00025b0c l     F .text	00000218 quorem
00000000 l    df *ABS*	00000000 exit.c
00000000 l    df *ABS*	00000000 freer.c
00000000 l    df *ABS*	00000000 mallocr.c
00000000 l    df *ABS*	00000000 mbtowc_r.c
00000000 l    df *ABS*	00000000 mprec.c
00030578 l     O .rodata	0000000c p05.0
00000000 l    df *ABS*	00000000 reallocr.c
00000000 l    df *ABS*	00000000 wctomb_r.c
00000000 l    df *ABS*	00000000 wcrtomb.c
00000000 l    df *ABS*	00000000 ctype_.c
00000000 l    df *ABS*	00000000 fclose.c
00000000 l    df *ABS*	00000000 makebuf.c
00000000 l    df *ABS*	00000000 wbuf.c
00000000 l    df *ABS*	00000000 strcmp.c
00000000 l    df *ABS*	00000000 fstatr.c
00000000 l    df *ABS*	00000000 isattyr.c
00000000 l    df *ABS*	00000000 sbrkr.c
00000000 l    df *ABS*	00000000 __call_atexit.c
00000000 l    df *ABS*	00000000 assert.c
00000000 l    df *ABS*	00000000 callocr.c
00000000 l    df *ABS*	00000000 fiprintf.c
00000000 l    df *ABS*	00000000 vfiprintfr_1.c
00000000 l    df *ABS*	00000000 errno.c
00000000 l    df *ABS*	00000000 abort.c
00000000 l    df *ABS*	00000000 signal.c
00000000 l    df *ABS*	00000000 signalr.c
00000000 l    df *ABS*	00000000 libgcc2.c
00000000 l    df *ABS*	00000000 libgcc2.c
00000000 l    df *ABS*	00000000 lib2-mul.c
00000000 l    df *ABS*	00000000 adddf3.c
00000000 l    df *ABS*	00000000 divdf3.c
00000000 l    df *ABS*	00000000 eqdf2.c
00000000 l    df *ABS*	00000000 gedf2.c
00000000 l    df *ABS*	00000000 ledf2.c
00000000 l    df *ABS*	00000000 muldf3.c
00000000 l    df *ABS*	00000000 subdf3.c
00000000 l    df *ABS*	00000000 unorddf2.c
00000000 l    df *ABS*	00000000 fixdfsi.c
00000000 l    df *ABS*	00000000 floatsidf.c
00000000 l    df *ABS*	00000000 floatunsidf.c
00000000 l    df *ABS*	00000000 libgcc2.c
00000000 l    df *ABS*	00000000 libgcc2.c
00000000 l    df *ABS*	00000000 alt_close.c
0002dd2c l     F .text	0000003c alt_get_errno
00000000 l    df *ABS*	00000000 alt_dev.c
0002de44 l     F .text	0000002c alt_dev_null_write
00000000 l    df *ABS*	00000000 alt_errno.c
00000000 l    df *ABS*	00000000 alt_exit.c
00000000 l    df *ABS*	00000000 alt_fstat.c
0002deac l     F .text	0000003c alt_get_errno
00000000 l    df *ABS*	00000000 alt_getpid.c
00000000 l    df *ABS*	00000000 alt_iic.c
00000000 l    df *ABS*	00000000 alt_iic_isr_register.c
00000000 l    df *ABS*	00000000 alt_irq_vars.c
00000000 l    df *ABS*	00000000 alt_isatty.c
0002e25c l     F .text	0000003c alt_get_errno
00000000 l    df *ABS*	00000000 alt_kill.c
0002e348 l     F .text	0000003c alt_get_errno
00000000 l    df *ABS*	00000000 alt_load.c
0002e474 l     F .text	00000068 alt_load_section
00000000 l    df *ABS*	00000000 alt_lseek.c
0002e560 l     F .text	0000003c alt_get_errno
00000000 l    df *ABS*	00000000 alt_main.c
00000000 l    df *ABS*	00000000 alt_malloc_lock.c
00000000 l    df *ABS*	00000000 alt_read.c
0002e740 l     F .text	0000003c alt_get_errno
00000000 l    df *ABS*	00000000 alt_release_fd.c
00000000 l    df *ABS*	00000000 alt_sbrk.c
0003235c l     O .rwdata	00000004 heap_end
00000000 l    df *ABS*	00000000 alt_write.c
0002e9ac l     F .text	0000003c alt_get_errno
00000000 l    df *ABS*	00000000 alt_sys_init.c
0002eaec l     F .text	00000034 alt_dev_reg
000312d0 l     O .rwdata	00001060 jtag_uart
00000000 l    df *ABS*	00000000 altera_avalon_jtag_uart_fd.c
00000000 l    df *ABS*	00000000 altera_avalon_jtag_uart_init.c
0002ede0 l     F .text	00000214 altera_avalon_jtag_uart_irq
0002eff4 l     F .text	000000a8 altera_avalon_jtag_uart_timeout
00000000 l    df *ABS*	00000000 altera_avalon_jtag_uart_ioctl.c
00000000 l    df *ABS*	00000000 altera_avalon_jtag_uart_read.c
00000000 l    df *ABS*	00000000 altera_avalon_jtag_uart_write.c
00000000 l    df *ABS*	00000000 altera_avalon_timer_sc.c
0002f640 l     F .text	0000007c alt_avalon_timer_sc_irq
00000000 l    df *ABS*	00000000 alt_alarm_start.c
00000000 l    df *ABS*	00000000 alt_dcache_flush_all.c
00000000 l    df *ABS*	00000000 alt_dev_llist_insert.c
0002f8c0 l     F .text	0000003c alt_get_errno
00000000 l    df *ABS*	00000000 alt_do_ctors.c
00000000 l    df *ABS*	00000000 alt_do_dtors.c
00000000 l    df *ABS*	00000000 alt_icache_flush_all.c
00000000 l    df *ABS*	00000000 alt_io_redirect.c
0002fb00 l     F .text	000000d4 alt_open_fd
00000000 l    df *ABS*	00000000 alt_open.c
0002fc50 l     F .text	0000003c alt_get_errno
0002fc8c l     F .text	000000dc alt_file_locked
00000000 l    df *ABS*	00000000 alt_tick.c
00000000 l    df *ABS*	00000000 altera_nios2_gen2_irq.c
00000000 l    df *ABS*	00000000 alt_find_dev.c
00000000 l    df *ABS*	00000000 alt_find_file.c
00000000 l    df *ABS*	00000000 alt_get_fd.c
00000000 l    df *ABS*	00000000 atexit.c
00000000 l    df *ABS*	00000000 memcmp.c
00000000 l    df *ABS*	00000000 __atexit.c
00033c78 g     O .bss	00000004 alt_instruction_exception_handler
000291fc g     F .text	00000070 _mprec_log10
000292d8 g     F .text	00000060 __any_on
0002a000 g     F .text	00000058 _isatty_r
00030584 g     O .rodata	00000028 __mprec_tinytens
0002e67c g     F .text	0000007c alt_main
00033de8 g     O .bss	00000100 alt_irq
000259e0 g     F .text	00000064 _lseek_r
00032368 g       *ABS*	00000000 __flash_rwdata_start
0002c694 g     F .text	00000094 .hidden __eqdf2
00034078 g       *ABS*	00000000 __alt_heap_start
0002a8e4 g     F .text	00000060 _kill_r
00020930 g     F .text	00000038 printf
00029960 g     F .text	0000006c _wcrtomb_r
0002a484 g     F .text	0000008c _signal_r
00024ef8 g     F .text	0000005c __sseek
00024874 g     F .text	00000028 __sinit
00029d88 g     F .text	00000148 __swbuf_r
0002579c g     F .text	0000007c _setlocale_r
0002e71c g     F .text	00000024 __malloc_unlock
0002549c g     F .text	00000128 memmove
00028180 g     F .text	000000a4 _Balloc
0002c728 g     F .text	000000fc .hidden __gtdf2
00030098 g     F .text	00000024 altera_nios2_gen2_irq_init
0002a404 g     F .text	0000000c __errno
00020000 g     F .entry	0000000c __reset
000258a0 g     F .text	00000008 __localeconv_l
00033c54 g     O .bss	00000004 __stdio_exit_handler
00020020 g       *ABS*	00000000 __flash_exceptions_start
00029fa0 g     F .text	00000060 _fstat_r
00033c50 g     O .bss	00000004 errno
00024e70 g     F .text	00000008 __seofread
00033c70 g     O .bss	00000004 alt_argv
0003a330 g       *ABS*	00000000 _gp
0002dfa4 g     F .text	00000020 getpid
00031150 g     O .rwdata	00000180 alt_fd_list
000300bc g     F .text	00000090 alt_find_dev
0002539c g     F .text	00000100 memcpy
0002db94 g     F .text	000000b8 .hidden __floatsidf
0002fbd4 g     F .text	0000007c alt_io_redirect
0002c824 g     F .text	000000f8 .hidden __ltdf2
0003042c g       *ABS*	00000000 __DTOR_END__
0002fa8c g     F .text	00000074 alt_exception_cause_generated_bad_addr
00029158 g     F .text	000000a4 __ratio
00024174 g     F .text	0000001c __vfiprintf_internal
0002f1f8 g     F .text	00000220 altera_avalon_jtag_uart_read
00020900 g     F .text	00000030 _printf_r
00020840 g     F .text	00000064 .hidden __udivsi3
0002e298 g     F .text	000000b0 isatty
0002a510 g     F .text	000000b0 _raise_r
0002a1c8 g     F .text	00000064 __assert_func
000305d4 g     O .rodata	000000c8 __mprec_tens
00033c60 g     O .bss	00000004 __malloc_top_pad
0002a944 g     F .text	00000004 _getpid_r
000258a8 g     F .text	0000000c _localeconv_r
000285f8 g     F .text	000000b0 __i2b
000248d4 g     F .text	000004a0 __sfvwrite_r
0002a5c0 g     F .text	000000bc __sigtramp_r
0002a058 g     F .text	00000058 _sbrk_r
00025a44 g     F .text	00000064 _read_r
00032350 g     O .rwdata	00000004 alt_max_fd
00029a54 g     F .text	000000f0 _fclose_r
000244b8 g     F .text	0000008c fflush
00033c5c g     O .bss	00000004 __malloc_max_sbrked_mem
0002b4a4 g     F .text	00000904 .hidden __adddf3
00028f00 g     F .text	00000100 __b2d
0002af20 g     F .text	0000055c .hidden __umoddi3
0002e59c g     F .text	000000e0 lseek
00029338 g     F .text	000005ec _realloc_r
00034078 g       *ABS*	00000000 __bss_end
0002e174 g     F .text	000000e8 alt_iic_isr_register
0002ff6c g     F .text	0000012c alt_tick
0002a948 g     F .text	000005d8 .hidden __udivdi3
00025204 g     F .text	00000024 _fputwc_r
000305ac g     O .rodata	00000028 __mprec_bigtens
0002839c g     F .text	00000138 __s2b
0002a410 g     F .text	00000018 abort
0002dc4c g     F .text	00000090 .hidden __floatunsidf
00028c18 g     F .text	00000058 __mcmp
000248a4 g     F .text	00000018 __fp_lock_all
0002e128 g     F .text	0000004c alt_ic_irq_enabled
0002fec8 g     F .text	000000a4 alt_alarm_stop
00033c68 g     O .bss	00000004 alt_irq_active
000200fc g     F .exceptions	000000c8 alt_irq_handler
00031128 g     O .rwdata	00000028 alt_dev_null
00025918 g     F .text	000000c8 _reclaim_reent
0002f8a0 g     F .text	00000020 alt_dcache_flush_all
000284d4 g     F .text	00000074 __hi0bits
0002db14 g     F .text	00000080 .hidden __fixdfsi
00032368 g       *ABS*	00000000 __ram_rwdata_end
00033c88 g     O .bss	00000138 __sf
00032348 g     O .rwdata	00000008 alt_dev_list
0002e9e8 g     F .text	00000104 write
00030a8c g       *ABS*	00000000 __ram_rodata_end
0002dee8 g     F .text	000000bc fstat
0002e384 g     F .text	000000f0 kill
0002c824 g     F .text	000000f8 .hidden __ledf2
00028950 g     F .text	00000140 __pow5mult
00022ed8 g     F .text	0000129c ___vfiprintf_internal_r
000208a4 g     F .text	0000005c .hidden __umodsi3
00034078 g       *ABS*	00000000 end
0002ed20 g     F .text	000000c0 altera_avalon_jtag_uart_init
000201c4 g     F .exceptions	00000060 alt_instruction_exception_entry
0003042c g       *ABS*	00000000 __CTOR_LIST__
00038000 g       *ABS*	00000000 __alt_stack_pointer
0002f6bc g     F .text	00000084 alt_avalon_timer_sc_init
0002dcdc g     F .text	00000050 .hidden __clzsi2
0002f418 g     F .text	00000228 altera_avalon_jtag_uart_write
0002489c g     F .text	00000004 __sfp_lock_acquire
000252a0 g     F .text	000000fc memchr
00020968 g     F .text	00002384 ___vfprintf_internal_r
00027660 g     F .text	00000308 _free_r
000307a0 g     O .rodata	00000180 _ctype_b
00025818 g     F .text	0000000c __locale_mb_cur_max
0002a0b0 g     F .text	00000118 __call_exitprocs
00033ee8 g     O .bss	00000190 __atexit0
00032338 g     O .rwdata	00000004 __malloc_sbrk_base
00020224 g     F .text	0000003c _start
00033c7c g     O .bss	00000004 _alt_tick_rate
00020420 g     F .text	00000058 jtaguart_disp_msg_v2
00028a90 g     F .text	00000188 __lshift
00033c80 g     O .bss	00000008 _alt_nticks
0002a730 g     F .text	00000098 signal
0002e77c g     F .text	00000108 read
0002eb5c g     F .text	00000060 alt_sys_init
00030398 g     F .text	00000094 __register_exitproc
000286a8 g     F .text	000002a8 __multiply
0002f09c g     F .text	00000068 altera_avalon_jtag_uart_close
0002b47c g     F .text	00000028 .hidden __mulsi3
00030a8c g       *ABS*	00000000 __ram_rwdata_start
0003042c g       *ABS*	00000000 __ram_rodata_start
00033dc0 g     O .bss	00000028 __malloc_current_mallinfo
00029000 g     F .text	00000158 __d2b
0002ebbc g     F .text	00000060 altera_avalon_jtag_uart_read_fd
00030254 g     F .text	000000b8 alt_get_fd
000258c0 g     F .text	00000058 _close_r
00030320 g     F .text	00000078 memcmp
0002ec7c g     F .text	00000050 altera_avalon_jtag_uart_close_fd
00034078 g       *ABS*	00000000 __alt_stack_base
0002eccc g     F .text	00000054 altera_avalon_jtag_uart_ioctl_fd
00024f5c g     F .text	00000144 __swsetup_r
0002bda8 g     F .text	000008ec .hidden __divdf3
00024754 g     F .text	00000120 __sfp
0002926c g     F .text	0000006c __copybits
00030d20 g     O .rwdata	00000408 __malloc_av_
00033c64 g     O .bss	00000004 __atexit
0002c91c g     F .text	00000808 .hidden __muldf3
00024e1c g     F .text	00000054 __sread
0003014c g     F .text	00000108 alt_find_file
0002f8fc g     F .text	000000a8 alt_dev_llist_insert
0002e6f8 g     F .text	00000024 __malloc_lock
0002e8f4 g     F .text	000000b8 sbrk
0002445c g     F .text	0000005c _fflush_r
0002a240 g     F .text	00000168 _calloc_r
0002032c g     F .text	00000054 flashsys_init_v1
00033c44 g       *ABS*	00000000 __bss_start
000255c4 g     F .text	00000140 memset
00020620 g     F .text	000000b4 main
00020000 g       *ABS*	00000000 __alt_mem_RAM
00033c74 g     O .bss	00000004 alt_envp
00033c58 g     O .bss	00000004 __malloc_max_total_mem
0002ec1c g     F .text	00000060 altera_avalon_jtag_uart_write_fd
00029ed0 g     F .text	00000018 __swbuf
00020380 g     F .text	000000a0 sw_get_command_v1
00024f54 g     F .text	00000008 __sclose
00038000 g       *ABS*	00000000 __alt_heap_limit
00029b44 g     F .text	00000010 fclose
00025d24 g     F .text	000017e8 _dtoa_r
00027968 g     F .text	000007c8 _malloc_r
00029930 g     F .text	00000030 __ascii_wctomb
00032354 g     O .rwdata	00000004 alt_errno
0002a3a8 g     F .text	00000020 _fiprintf_r
0002a7c8 g     F .text	00000060 _init_signal
00028130 g     F .text	0000000c _mbtowc_r
0002074c g     F .text	00000080 .hidden __divsi3
0002753c g     F .text	00000124 _malloc_trim_r
0003042c g       *ABS*	00000000 __CTOR_END__
00029ee8 g     F .text	000000b8 strcmp
0003042c g       *ABS*	00000000 __flash_rodata_start
0003042c g       *ABS*	00000000 __DTOR_LIST__
0002c694 g     F .text	00000094 .hidden __nedf2
0002eb20 g     F .text	0000003c alt_irq_init
0002e884 g     F .text	00000070 alt_release_fd
00030960 g     O .rodata	00000100 .hidden __clz_tab
00033c4c g     O .bss	00000004 _PathLocale
0003030c g     F .text	00000014 atexit
00025aa8 g     F .text	00000064 _write_r
00025824 g     F .text	0000007c setlocale
00020478 g     F .text	00000104 sseg_disp_msg_v1
00032334 g     O .rwdata	00000004 _impure_ptr
00033c6c g     O .bss	00000004 alt_argc
00024254 g     F .text	00000208 __sflush_r
0002fa08 g     F .text	00000064 _do_dtors
00024d74 g     F .text	000000a8 _fwalk_sglue
00020260 g     F .text	00000050 sseg_conv_hex
00020020 g       .exceptions	00000000 alt_irq_entry
0002813c g     F .text	00000044 __ascii_mbtowc
00028ea0 g     F .text	00000060 __ulp
000248bc g     F .text	00000018 __fp_unlock_all
00032340 g     O .rwdata	00000008 alt_fs_list
00020020 g       *ABS*	00000000 __ram_exceptions_start
000258b4 g     F .text	0000000c localeconv
00029cfc g     F .text	0000008c __swhatbuf_r
000202b0 g     F .text	0000007c sseg_disp_ptn
0002dfc4 g     F .text	00000050 alt_ic_isr_register
00030ba8 g     O .rwdata	0000000c __sglue
00032368 g       *ABS*	00000000 _edata
00034078 g       *ABS*	00000000 _end
000250a0 g     F .text	00000164 __fputwc
00020224 g       *ABS*	00000000 __ram_exceptions_end
0002f104 g     F .text	000000f4 altera_avalon_jtag_uart_ioctl
0002e09c g     F .text	0000008c alt_ic_irq_disable
00024e78 g     F .text	00000080 __swrite
0003233c g     O .rwdata	00000004 __malloc_trim_threshold
0002750c g     F .text	00000030 exit
0002a3c8 g     F .text	00000038 fiprintf
0002a400 g     F .text	00000004 _vfiprintf_r
00028c70 g     F .text	00000230 __mdiff
000207cc g     F .text	00000074 .hidden __modsi3
00030a8c g     O .rwdata	0000011c _impure_data
00038000 g       *ABS*	00000000 __alt_data_end
00020020 g     F .exceptions	00000000 alt_exception
000248a0 g     F .text	00000004 __sfp_lock_release
0003069c g     O .rodata	00000101 _ctype_
000206d4 g     F .text	00000078 timer_write_prd
0002dac0 g     F .text	00000054 .hidden __unorddf2
0002de70 g     F .text	0000003c _exit
0002f740 g     F .text	00000160 alt_alarm_start
00029b54 g     F .text	000001a8 __smakebuf_r
00025704 g     F .text	00000098 strlen
0002a428 g     F .text	0000005c _init_signal_r
0002fd68 g     F .text	00000160 open
0002c728 g     F .text	000000fc .hidden __gedf2
0002a22c g     F .text	00000014 __assert
00022ec0 g     F .text	00000018 __sprint_r
0002fa6c g     F .text	00000020 alt_icache_flush_all
00032358 g     O .rwdata	00000004 alt_priority_mask
0002e014 g     F .text	00000088 alt_ic_irq_enable
00022cec g     F .text	0000001c __vfprintf_internal
00029924 g     F .text	0000000c _wctomb_r
0002d124 g     F .text	0000099c .hidden __subdf3
00028548 g     F .text	000000b0 __lo0bits
00032360 g     O .rwdata	00000008 alt_alarm_list
0002f9a4 g     F .text	00000064 _do_ctors
0002a828 g     F .text	000000bc __sigtramp
000299cc g     F .text	00000088 wcrtomb
0002dd68 g     F .text	000000dc close
00030bb4 g     O .rwdata	0000016c __global_locale
0002e4dc g     F .text	00000084 alt_load
00025228 g     F .text	00000078 fputwc
0002a67c g     F .text	000000b4 raise
00028248 g     F .text	00000154 __multadd
00028224 g     F .text	00000024 _Bfree



Disassembly of section .entry:

00020000 <__reset>:
   20000:	004000b4 	movhi	at,2
   20004:	08408914 	ori	at,at,548
   20008:	0800683a 	jmp	at
	...

Disassembly of section .exceptions:

00020020 <alt_exception>:
   20020:	deffed04 	addi	sp,sp,-76
   20024:	dfc00015 	stw	ra,0(sp)
   20028:	d8400215 	stw	at,8(sp)
   2002c:	d8800315 	stw	r2,12(sp)
   20030:	d8c00415 	stw	r3,16(sp)
   20034:	d9000515 	stw	r4,20(sp)
   20038:	d9400615 	stw	r5,24(sp)
   2003c:	d9800715 	stw	r6,28(sp)
   20040:	d9c00815 	stw	r7,32(sp)
   20044:	000b307a 	rdctl	r5,estatus
   20048:	da000915 	stw	r8,36(sp)
   2004c:	da400a15 	stw	r9,40(sp)
   20050:	da800b15 	stw	r10,44(sp)
   20054:	dac00c15 	stw	r11,48(sp)
   20058:	db000d15 	stw	r12,52(sp)
   2005c:	db400e15 	stw	r13,56(sp)
   20060:	db800f15 	stw	r14,60(sp)
   20064:	dbc01015 	stw	r15,64(sp)
   20068:	d9401115 	stw	r5,68(sp)
   2006c:	ebffff04 	addi	r15,ea,-4
   20070:	dbc01215 	stw	r15,72(sp)
   20074:	0009313a 	rdctl	r4,ipending
   20078:	2880004c 	andi	r2,r5,1
   2007c:	10000326 	beq	r2,zero,2008c <alt_exception+0x6c>
   20080:	20000226 	beq	r4,zero,2008c <alt_exception+0x6c>
   20084:	00200fc0 	call	200fc <alt_irq_handler>
   20088:	00000706 	br	200a8 <alt_exception+0x88>
   2008c:	df401215 	stw	ea,72(sp)
   20090:	e8bfff17 	ldw	r2,-4(ea)
   20094:	e93fff04 	addi	r4,ea,-4
   20098:	00201c40 	call	201c4 <alt_instruction_exception_entry>
   2009c:	1000021e 	bne	r2,zero,200a8 <alt_exception+0x88>
   200a0:	ebffff04 	addi	r15,ea,-4
   200a4:	dbc01215 	stw	r15,72(sp)
   200a8:	d9401117 	ldw	r5,68(sp)
   200ac:	df401217 	ldw	ea,72(sp)
   200b0:	dfc00017 	ldw	ra,0(sp)
   200b4:	2801707a 	wrctl	estatus,r5
   200b8:	d8400217 	ldw	at,8(sp)
   200bc:	d8800317 	ldw	r2,12(sp)
   200c0:	d8c00417 	ldw	r3,16(sp)
   200c4:	d9000517 	ldw	r4,20(sp)
   200c8:	d9400617 	ldw	r5,24(sp)
   200cc:	d9800717 	ldw	r6,28(sp)
   200d0:	d9c00817 	ldw	r7,32(sp)
   200d4:	da000917 	ldw	r8,36(sp)
   200d8:	da400a17 	ldw	r9,40(sp)
   200dc:	da800b17 	ldw	r10,44(sp)
   200e0:	dac00c17 	ldw	r11,48(sp)
   200e4:	db000d17 	ldw	r12,52(sp)
   200e8:	db400e17 	ldw	r13,56(sp)
   200ec:	db800f17 	ldw	r14,60(sp)
   200f0:	dbc01017 	ldw	r15,64(sp)
   200f4:	dec01304 	addi	sp,sp,76
   200f8:	ef80083a 	eret

000200fc <alt_irq_handler>:
   200fc:	defff904 	addi	sp,sp,-28
   20100:	dfc00615 	stw	ra,24(sp)
   20104:	df000515 	stw	fp,20(sp)
   20108:	df000504 	addi	fp,sp,20
   2010c:	0001883a 	nop
   20110:	0005313a 	rdctl	r2,ipending
   20114:	e0bffc15 	stw	r2,-16(fp)
   20118:	e0bffc17 	ldw	r2,-16(fp)
   2011c:	e0bfff15 	stw	r2,-4(fp)
   20120:	e03ffd15 	stw	zero,-12(fp)
   20124:	00800044 	movi	r2,1
   20128:	e0bffe15 	stw	r2,-8(fp)
   2012c:	e0ffff17 	ldw	r3,-4(fp)
   20130:	e0bffe17 	ldw	r2,-8(fp)
   20134:	1884703a 	and	r2,r3,r2
   20138:	10001126 	beq	r2,zero,20180 <alt_irq_handler+0x84>
   2013c:	e0bffd17 	ldw	r2,-12(fp)
   20140:	100690fa 	slli	r3,r2,3
   20144:	008000f4 	movhi	r2,3
   20148:	1885883a 	add	r2,r3,r2
   2014c:	10cf7a17 	ldw	r3,15848(r2)
   20150:	e0bffd17 	ldw	r2,-12(fp)
   20154:	100890fa 	slli	r4,r2,3
   20158:	008000f4 	movhi	r2,3
   2015c:	2085883a 	add	r2,r4,r2
   20160:	108f7b17 	ldw	r2,15852(r2)
   20164:	1009883a 	mov	r4,r2
   20168:	183ee83a 	callr	r3
   2016c:	0001883a 	nop
   20170:	0005313a 	rdctl	r2,ipending
   20174:	e0bffb15 	stw	r2,-20(fp)
   20178:	e0bffb17 	ldw	r2,-20(fp)
   2017c:	00000706 	br	2019c <alt_irq_handler+0xa0>
   20180:	e0bffe17 	ldw	r2,-8(fp)
   20184:	1085883a 	add	r2,r2,r2
   20188:	e0bffe15 	stw	r2,-8(fp)
   2018c:	e0bffd17 	ldw	r2,-12(fp)
   20190:	10800044 	addi	r2,r2,1
   20194:	e0bffd15 	stw	r2,-12(fp)
   20198:	003fe406 	br	2012c <alt_irq_handler+0x30>
   2019c:	e0bfff15 	stw	r2,-4(fp)
   201a0:	e0bfff17 	ldw	r2,-4(fp)
   201a4:	103fde1e 	bne	r2,zero,20120 <alt_irq_handler+0x24>
   201a8:	0001883a 	nop
   201ac:	0001883a 	nop
   201b0:	e037883a 	mov	sp,fp
   201b4:	dfc00117 	ldw	ra,4(sp)
   201b8:	df000017 	ldw	fp,0(sp)
   201bc:	dec00204 	addi	sp,sp,8
   201c0:	f800283a 	ret

000201c4 <alt_instruction_exception_entry>:
   201c4:	defffb04 	addi	sp,sp,-20
   201c8:	dfc00415 	stw	ra,16(sp)
   201cc:	df000315 	stw	fp,12(sp)
   201d0:	df000304 	addi	fp,sp,12
   201d4:	e13ffd15 	stw	r4,-12(fp)
   201d8:	00bfffc4 	movi	r2,-1
   201dc:	e0bfff15 	stw	r2,-4(fp)
   201e0:	e03ffe15 	stw	zero,-8(fp)
   201e4:	d0a65217 	ldw	r2,-26296(gp)
   201e8:	10000726 	beq	r2,zero,20208 <alt_instruction_exception_entry+0x44>
   201ec:	d0a65217 	ldw	r2,-26296(gp)
   201f0:	e0ffff17 	ldw	r3,-4(fp)
   201f4:	e1bffe17 	ldw	r6,-8(fp)
   201f8:	e17ffd17 	ldw	r5,-12(fp)
   201fc:	1809883a 	mov	r4,r3
   20200:	103ee83a 	callr	r2
   20204:	00000206 	br	20210 <alt_instruction_exception_entry+0x4c>
   20208:	003da03a 	break	0
   2020c:	0005883a 	mov	r2,zero
   20210:	e037883a 	mov	sp,fp
   20214:	dfc00117 	ldw	ra,4(sp)
   20218:	df000017 	ldw	fp,0(sp)
   2021c:	dec00204 	addi	sp,sp,8
   20220:	f800283a 	ret

Disassembly of section .text:

00020224 <_start>:
   20224:	06c000f4 	movhi	sp,3
   20228:	dee00014 	ori	sp,sp,32768
   2022c:	068000f4 	movhi	gp,3
   20230:	d6a8cc14 	ori	gp,gp,41776
   20234:	008000f4 	movhi	r2,3
   20238:	108f1114 	ori	r2,r2,15428
   2023c:	00c000f4 	movhi	r3,3
   20240:	18d01e14 	ori	r3,r3,16504
   20244:	10c00326 	beq	r2,r3,20254 <_start+0x30>
   20248:	10000015 	stw	zero,0(r2)
   2024c:	10800104 	addi	r2,r2,4
   20250:	10fffd36 	bltu	r2,r3,20248 <_start+0x24>
   20254:	002e4dc0 	call	2e4dc <alt_load>
   20258:	002e67c0 	call	2e67c <alt_main>

0002025c <alt_after_alt_main>:
   2025c:	003fff06 	br	2025c <alt_after_alt_main>

00020260 <sseg_conv_hex>:
   20260:	defffd04 	addi	sp,sp,-12
   20264:	df000215 	stw	fp,8(sp)
   20268:	df000204 	addi	fp,sp,8
   2026c:	e13ffe15 	stw	r4,-8(fp)
   20270:	e0bffe17 	ldw	r2,-8(fp)
   20274:	108003c8 	cmpgei	r2,r2,15
   20278:	1000061e 	bne	r2,zero,20294 <sseg_conv_hex+0x34>
   2027c:	e0fffe17 	ldw	r3,-8(fp)
   20280:	008000f4 	movhi	r2,3
   20284:	1885883a 	add	r2,r3,r2
   20288:	10810b03 	ldbu	r2,1068(r2)
   2028c:	e0bfffc5 	stb	r2,-1(fp)
   20290:	00000206 	br	2029c <sseg_conv_hex+0x3c>
   20294:	00bfffc4 	movi	r2,-1
   20298:	e0bfffc5 	stb	r2,-1(fp)
   2029c:	e0bfffc3 	ldbu	r2,-1(fp)
   202a0:	e037883a 	mov	sp,fp
   202a4:	df000017 	ldw	fp,0(sp)
   202a8:	dec00104 	addi	sp,sp,4
   202ac:	f800283a 	ret

000202b0 <sseg_disp_ptn>:
   202b0:	defffb04 	addi	sp,sp,-20
   202b4:	df000415 	stw	fp,16(sp)
   202b8:	df000404 	addi	fp,sp,16
   202bc:	e13ffd15 	stw	r4,-12(fp)
   202c0:	e17ffc15 	stw	r5,-16(fp)
   202c4:	e03ffe15 	stw	zero,-8(fp)
   202c8:	00000d06 	br	20300 <sseg_disp_ptn+0x50>
   202cc:	e0bfff17 	ldw	r2,-4(fp)
   202d0:	1006923a 	slli	r3,r2,8
   202d4:	e0bffc17 	ldw	r2,-16(fp)
   202d8:	10800003 	ldbu	r2,0(r2)
   202dc:	10803fcc 	andi	r2,r2,255
   202e0:	1884b03a 	or	r2,r3,r2
   202e4:	e0bfff15 	stw	r2,-4(fp)
   202e8:	e0bffc17 	ldw	r2,-16(fp)
   202ec:	10800044 	addi	r2,r2,1
   202f0:	e0bffc15 	stw	r2,-16(fp)
   202f4:	e0bffe17 	ldw	r2,-8(fp)
   202f8:	10800044 	addi	r2,r2,1
   202fc:	e0bffe15 	stw	r2,-8(fp)
   20300:	e0bffe17 	ldw	r2,-8(fp)
   20304:	10800110 	cmplti	r2,r2,4
   20308:	103ff01e 	bne	r2,zero,202cc <sseg_disp_ptn+0x1c>
   2030c:	e0bffd17 	ldw	r2,-12(fp)
   20310:	e0ffff17 	ldw	r3,-4(fp)
   20314:	10c00035 	stwio	r3,0(r2)
   20318:	0001883a 	nop
   2031c:	e037883a 	mov	sp,fp
   20320:	df000017 	ldw	fp,0(sp)
   20324:	dec00104 	addi	sp,sp,4
   20328:	f800283a 	ret

0002032c <flashsys_init_v1>:
   2032c:	defffc04 	addi	sp,sp,-16
   20330:	dfc00315 	stw	ra,12(sp)
   20334:	df000215 	stw	fp,8(sp)
   20338:	df000204 	addi	fp,sp,8
   2033c:	e13fff15 	stw	r4,-4(fp)
   20340:	e17ffe15 	stw	r5,-8(fp)
   20344:	e0bfff17 	ldw	r2,-4(fp)
   20348:	10800304 	addi	r2,r2,12
   2034c:	1007883a 	mov	r3,r2
   20350:	008003c4 	movi	r2,15
   20354:	18800035 	stwio	r2,0(r3)
   20358:	e0bffe17 	ldw	r2,-8(fp)
   2035c:	0170d414 	movui	r5,50000
   20360:	1009883a 	mov	r4,r2
   20364:	00206d40 	call	206d4 <timer_write_prd>
   20368:	0001883a 	nop
   2036c:	e037883a 	mov	sp,fp
   20370:	dfc00117 	ldw	ra,4(sp)
   20374:	df000017 	ldw	fp,0(sp)
   20378:	dec00204 	addi	sp,sp,8
   2037c:	f800283a 	ret

00020380 <sw_get_command_v1>:
   20380:	defffb04 	addi	sp,sp,-20
   20384:	df000415 	stw	fp,16(sp)
   20388:	df000404 	addi	fp,sp,16
   2038c:	e13ffe15 	stw	r4,-8(fp)
   20390:	e17ffd15 	stw	r5,-12(fp)
   20394:	e1bffc15 	stw	r6,-16(fp)
   20398:	e0bffe17 	ldw	r2,-8(fp)
   2039c:	10800304 	addi	r2,r2,12
   203a0:	10800037 	ldwio	r2,0(r2)
   203a4:	108000cc 	andi	r2,r2,3
   203a8:	e0bfffc5 	stb	r2,-1(fp)
   203ac:	e0bfffc3 	ldbu	r2,-1(fp)
   203b0:	10001626 	beq	r2,zero,2040c <sw_get_command_v1+0x8c>
   203b4:	e0bfffc3 	ldbu	r2,-1(fp)
   203b8:	10800058 	cmpnei	r2,r2,1
   203bc:	1000061e 	bne	r2,zero,203d8 <sw_get_command_v1+0x58>
   203c0:	e0bffc17 	ldw	r2,-16(fp)
   203c4:	10800017 	ldw	r2,0(r2)
   203c8:	10c0005c 	xori	r3,r2,1
   203cc:	e0bffc17 	ldw	r2,-16(fp)
   203d0:	10c00015 	stw	r3,0(r2)
   203d4:	00000806 	br	203f8 <sw_get_command_v1+0x78>
   203d8:	e0bfffc3 	ldbu	r2,-1(fp)
   203dc:	10800098 	cmpnei	r2,r2,2
   203e0:	1000051e 	bne	r2,zero,203f8 <sw_get_command_v1+0x78>
   203e4:	e0bffd17 	ldw	r2,-12(fp)
   203e8:	10800037 	ldwio	r2,0(r2)
   203ec:	10c0ffcc 	andi	r3,r2,1023
   203f0:	e0bffc17 	ldw	r2,-16(fp)
   203f4:	10c00115 	stw	r3,4(r2)
   203f8:	e0bffe17 	ldw	r2,-8(fp)
   203fc:	10800304 	addi	r2,r2,12
   20400:	1007883a 	mov	r3,r2
   20404:	008003c4 	movi	r2,15
   20408:	18800035 	stwio	r2,0(r3)
   2040c:	0001883a 	nop
   20410:	e037883a 	mov	sp,fp
   20414:	df000017 	ldw	fp,0(sp)
   20418:	dec00104 	addi	sp,sp,4
   2041c:	f800283a 	ret

00020420 <jtaguart_disp_msg_v2>:
   20420:	defffc04 	addi	sp,sp,-16
   20424:	dfc00315 	stw	ra,12(sp)
   20428:	df000215 	stw	fp,8(sp)
   2042c:	df000204 	addi	fp,sp,8
   20430:	e13ffe15 	stw	r4,-8(fp)
   20434:	e17fff15 	stw	r5,-4(fp)
   20438:	e0ffff17 	ldw	r3,-4(fp)
   2043c:	d0a64517 	ldw	r2,-26348(gp)
   20440:	18800726 	beq	r3,r2,20460 <jtaguart_disp_msg_v2+0x40>
   20444:	e0bfff17 	ldw	r2,-4(fp)
   20448:	100b883a 	mov	r5,r2
   2044c:	010000f4 	movhi	r4,3
   20450:	21010f04 	addi	r4,r4,1084
   20454:	00209300 	call	20930 <printf>
   20458:	e0bfff17 	ldw	r2,-4(fp)
   2045c:	d0a64515 	stw	r2,-26348(gp)
   20460:	0001883a 	nop
   20464:	e037883a 	mov	sp,fp
   20468:	dfc00117 	ldw	ra,4(sp)
   2046c:	df000017 	ldw	fp,0(sp)
   20470:	dec00204 	addi	sp,sp,8
   20474:	f800283a 	ret

00020478 <sseg_disp_msg_v1>:
   20478:	defff804 	addi	sp,sp,-32
   2047c:	dfc00715 	stw	ra,28(sp)
   20480:	df000615 	stw	fp,24(sp)
   20484:	df000604 	addi	fp,sp,24
   20488:	e13ffc15 	stw	r4,-16(fp)
   2048c:	e17ffa15 	stw	r5,-24(fp)
   20490:	e1bffb15 	stw	r6,-20(fp)
   20494:	e0bffb17 	ldw	r2,-20(fp)
   20498:	1080fa10 	cmplti	r2,r2,1000
   2049c:	1000031e 	bne	r2,zero,204ac <sseg_disp_msg_v1+0x34>
   204a0:	0080f9c4 	movi	r2,999
   204a4:	e0bfff15 	stw	r2,-4(fp)
   204a8:	00000206 	br	204b4 <sseg_disp_msg_v1+0x3c>
   204ac:	e0bffb17 	ldw	r2,-20(fp)
   204b0:	e0bfff15 	stw	r2,-4(fp)
   204b4:	e0bfff17 	ldw	r2,-4(fp)
   204b8:	01400284 	movi	r5,10
   204bc:	1009883a 	mov	r4,r2
   204c0:	00207cc0 	call	207cc <__modsi3>
   204c4:	e0bffec5 	stb	r2,-5(fp)
   204c8:	e0bffec3 	ldbu	r2,-5(fp)
   204cc:	1009883a 	mov	r4,r2
   204d0:	00202600 	call	20260 <sseg_conv_hex>
   204d4:	e0bffe85 	stb	r2,-6(fp)
   204d8:	e0bfff17 	ldw	r2,-4(fp)
   204dc:	01400284 	movi	r5,10
   204e0:	1009883a 	mov	r4,r2
   204e4:	002074c0 	call	2074c <__divsi3>
   204e8:	01400284 	movi	r5,10
   204ec:	1009883a 	mov	r4,r2
   204f0:	00207cc0 	call	207cc <__modsi3>
   204f4:	e0bffec5 	stb	r2,-5(fp)
   204f8:	e0bffec3 	ldbu	r2,-5(fp)
   204fc:	1009883a 	mov	r4,r2
   20500:	00202600 	call	20260 <sseg_conv_hex>
   20504:	e0bffe45 	stb	r2,-7(fp)
   20508:	e0bfff17 	ldw	r2,-4(fp)
   2050c:	01401904 	movi	r5,100
   20510:	1009883a 	mov	r4,r2
   20514:	002074c0 	call	2074c <__divsi3>
   20518:	01400284 	movi	r5,10
   2051c:	1009883a 	mov	r4,r2
   20520:	00207cc0 	call	207cc <__modsi3>
   20524:	e0bffec5 	stb	r2,-5(fp)
   20528:	e0bffec3 	ldbu	r2,-5(fp)
   2052c:	1009883a 	mov	r4,r2
   20530:	00202600 	call	20260 <sseg_conv_hex>
   20534:	e0bffe05 	stb	r2,-8(fp)
   20538:	e0bffa17 	ldw	r2,-24(fp)
   2053c:	10000326 	beq	r2,zero,2054c <sseg_disp_msg_v1+0xd4>
   20540:	00800304 	movi	r2,12
   20544:	e0bffdc5 	stb	r2,-9(fp)
   20548:	00000206 	br	20554 <sseg_disp_msg_v1+0xdc>
   2054c:	00bfffc4 	movi	r2,-1
   20550:	e0bffdc5 	stb	r2,-9(fp)
   20554:	e0bffdc4 	addi	r2,fp,-9
   20558:	100b883a 	mov	r5,r2
   2055c:	e13ffc17 	ldw	r4,-16(fp)
   20560:	00202b00 	call	202b0 <sseg_disp_ptn>
   20564:	0001883a 	nop
   20568:	e037883a 	mov	sp,fp
   2056c:	dfc00117 	ldw	ra,4(sp)
   20570:	df000017 	ldw	fp,0(sp)
   20574:	dec00204 	addi	sp,sp,8
   20578:	f800283a 	ret

0002057c <led_flash_isr>:
   2057c:	defffb04 	addi	sp,sp,-20
   20580:	df000415 	stw	fp,16(sp)
   20584:	df000404 	addi	fp,sp,16
   20588:	e13ffd15 	stw	r4,-12(fp)
   2058c:	e17ffc15 	stw	r5,-16(fp)
   20590:	e0bffd17 	ldw	r2,-12(fp)
   20594:	e0bfff15 	stw	r2,-4(fp)
   20598:	e0bfff17 	ldw	r2,-4(fp)
   2059c:	10800017 	ldw	r2,0(r2)
   205a0:	e0bffe15 	stw	r2,-8(fp)
   205a4:	e0bffe17 	ldw	r2,-8(fp)
   205a8:	10800017 	ldw	r2,0(r2)
   205ac:	1000171e 	bne	r2,zero,2060c <led_flash_isr+0x90>
   205b0:	e0bfff17 	ldw	r2,-4(fp)
   205b4:	10800217 	ldw	r2,8(r2)
   205b8:	0007883a 	mov	r3,zero
   205bc:	10c00035 	stwio	r3,0(r2)
   205c0:	e0bffe17 	ldw	r2,-8(fp)
   205c4:	10800117 	ldw	r2,4(r2)
   205c8:	d0e64617 	ldw	r3,-26344(gp)
   205cc:	1880040e 	bge	r3,r2,205e0 <led_flash_isr+0x64>
   205d0:	d0a64617 	ldw	r2,-26344(gp)
   205d4:	10800044 	addi	r2,r2,1
   205d8:	d0a64615 	stw	r2,-26344(gp)
   205dc:	00000c06 	br	20610 <led_flash_isr+0x94>
   205e0:	d0264615 	stw	zero,-26344(gp)
   205e4:	d0a00003 	ldbu	r2,-32768(gp)
   205e8:	108000dc 	xori	r2,r2,3
   205ec:	d0a00005 	stb	r2,-32768(gp)
   205f0:	e0bfff17 	ldw	r2,-4(fp)
   205f4:	10800117 	ldw	r2,4(r2)
   205f8:	1007883a 	mov	r3,r2
   205fc:	d0a00003 	ldbu	r2,-32768(gp)
   20600:	10803fcc 	andi	r2,r2,255
   20604:	18800035 	stwio	r2,0(r3)
   20608:	00000106 	br	20610 <led_flash_isr+0x94>
   2060c:	0001883a 	nop
   20610:	e037883a 	mov	sp,fp
   20614:	df000017 	ldw	fp,0(sp)
   20618:	dec00104 	addi	sp,sp,4
   2061c:	f800283a 	ret

00020620 <main>:
   20620:	defff804 	addi	sp,sp,-32
   20624:	dfc00715 	stw	ra,28(sp)
   20628:	df000615 	stw	fp,24(sp)
   2062c:	df000604 	addi	fp,sp,24
   20630:	e03ffe15 	stw	zero,-8(fp)
   20634:	00801904 	movi	r2,100
   20638:	e0bfff15 	stw	r2,-4(fp)
   2063c:	e0bffe04 	addi	r2,fp,-8
   20640:	e0bffb15 	stw	r2,-20(fp)
   20644:	00800134 	movhi	r2,4
   20648:	10841404 	addi	r2,r2,4176
   2064c:	e0bffc15 	stw	r2,-16(fp)
   20650:	00800134 	movhi	r2,4
   20654:	10840004 	addi	r2,r2,4096
   20658:	e0bffd15 	stw	r2,-12(fp)
   2065c:	01400134 	movhi	r5,4
   20660:	29440004 	addi	r5,r5,4096
   20664:	01000134 	movhi	r4,4
   20668:	21041804 	addi	r4,r4,4192
   2066c:	002032c0 	call	2032c <flashsys_init_v1>
   20670:	e0bffb04 	addi	r2,fp,-20
   20674:	d8000015 	stw	zero,0(sp)
   20678:	100f883a 	mov	r7,r2
   2067c:	018000b4 	movhi	r6,2
   20680:	31815f04 	addi	r6,r6,1404
   20684:	01400084 	movi	r5,2
   20688:	0009883a 	mov	r4,zero
   2068c:	002dfc40 	call	2dfc4 <alt_ic_isr_register>
   20690:	e0bffe04 	addi	r2,fp,-8
   20694:	100d883a 	mov	r6,r2
   20698:	01400134 	movhi	r5,4
   2069c:	29441c04 	addi	r5,r5,4208
   206a0:	01000134 	movhi	r4,4
   206a4:	21041804 	addi	r4,r4,4192
   206a8:	00203800 	call	20380 <sw_get_command_v1>
   206ac:	e13ffe17 	ldw	r4,-8(fp)
   206b0:	e17fff17 	ldw	r5,-4(fp)
   206b4:	00204200 	call	20420 <jtaguart_disp_msg_v2>
   206b8:	e17ffe17 	ldw	r5,-8(fp)
   206bc:	e1bfff17 	ldw	r6,-4(fp)
   206c0:	01000134 	movhi	r4,4
   206c4:	21041004 	addi	r4,r4,4160
   206c8:	00204780 	call	20478 <sseg_disp_msg_v1>
   206cc:	0001883a 	nop
   206d0:	003fef06 	br	20690 <main+0x70>

000206d4 <timer_write_prd>:
   206d4:	defffc04 	addi	sp,sp,-16
   206d8:	df000315 	stw	fp,12(sp)
   206dc:	df000304 	addi	fp,sp,12
   206e0:	e13ffe15 	stw	r4,-8(fp)
   206e4:	e17ffd15 	stw	r5,-12(fp)
   206e8:	e0bffd17 	ldw	r2,-12(fp)
   206ec:	1004d43a 	srli	r2,r2,16
   206f0:	e0bfff8d 	sth	r2,-2(fp)
   206f4:	e0bffd17 	ldw	r2,-12(fp)
   206f8:	e0bfff0d 	sth	r2,-4(fp)
   206fc:	e0bffe17 	ldw	r2,-8(fp)
   20700:	10800304 	addi	r2,r2,12
   20704:	1007883a 	mov	r3,r2
   20708:	e0bfff8b 	ldhu	r2,-2(fp)
   2070c:	18800035 	stwio	r2,0(r3)
   20710:	e0bffe17 	ldw	r2,-8(fp)
   20714:	10800204 	addi	r2,r2,8
   20718:	1007883a 	mov	r3,r2
   2071c:	e0bfff0b 	ldhu	r2,-4(fp)
   20720:	18800035 	stwio	r2,0(r3)
   20724:	e0bffe17 	ldw	r2,-8(fp)
   20728:	10800104 	addi	r2,r2,4
   2072c:	1007883a 	mov	r3,r2
   20730:	008001c4 	movi	r2,7
   20734:	18800035 	stwio	r2,0(r3)
   20738:	0001883a 	nop
   2073c:	e037883a 	mov	sp,fp
   20740:	df000017 	ldw	fp,0(sp)
   20744:	dec00104 	addi	sp,sp,4
   20748:	f800283a 	ret

0002074c <__divsi3>:
   2074c:	20001a16 	blt	r4,zero,207b8 <__divsi3+0x6c>
   20750:	000f883a 	mov	r7,zero
   20754:	2800020e 	bge	r5,zero,20760 <__divsi3+0x14>
   20758:	014bc83a 	sub	r5,zero,r5
   2075c:	39c0005c 	xori	r7,r7,1
   20760:	200d883a 	mov	r6,r4
   20764:	00c00044 	movi	r3,1
   20768:	2900092e 	bgeu	r5,r4,20790 <__divsi3+0x44>
   2076c:	00800804 	movi	r2,32
   20770:	00c00044 	movi	r3,1
   20774:	00000106 	br	2077c <__divsi3+0x30>
   20778:	10001226 	beq	r2,zero,207c4 <__divsi3+0x78>
   2077c:	294b883a 	add	r5,r5,r5
   20780:	10bfffc4 	addi	r2,r2,-1
   20784:	18c7883a 	add	r3,r3,r3
   20788:	293ffb36 	bltu	r5,r4,20778 <__divsi3+0x2c>
   2078c:	18000d26 	beq	r3,zero,207c4 <__divsi3+0x78>
   20790:	0005883a 	mov	r2,zero
   20794:	31400236 	bltu	r6,r5,207a0 <__divsi3+0x54>
   20798:	314dc83a 	sub	r6,r6,r5
   2079c:	10c4b03a 	or	r2,r2,r3
   207a0:	1806d07a 	srli	r3,r3,1
   207a4:	280ad07a 	srli	r5,r5,1
   207a8:	183ffa1e 	bne	r3,zero,20794 <__divsi3+0x48>
   207ac:	38000126 	beq	r7,zero,207b4 <__divsi3+0x68>
   207b0:	0085c83a 	sub	r2,zero,r2
   207b4:	f800283a 	ret
   207b8:	0109c83a 	sub	r4,zero,r4
   207bc:	01c00044 	movi	r7,1
   207c0:	003fe406 	br	20754 <__divsi3+0x8>
   207c4:	0005883a 	mov	r2,zero
   207c8:	003ff806 	br	207ac <__divsi3+0x60>

000207cc <__modsi3>:
   207cc:	20001716 	blt	r4,zero,2082c <__modsi3+0x60>
   207d0:	000f883a 	mov	r7,zero
   207d4:	2005883a 	mov	r2,r4
   207d8:	2800010e 	bge	r5,zero,207e0 <__modsi3+0x14>
   207dc:	014bc83a 	sub	r5,zero,r5
   207e0:	00c00044 	movi	r3,1
   207e4:	2900092e 	bgeu	r5,r4,2080c <__modsi3+0x40>
   207e8:	01800804 	movi	r6,32
   207ec:	00c00044 	movi	r3,1
   207f0:	00000106 	br	207f8 <__modsi3+0x2c>
   207f4:	30001026 	beq	r6,zero,20838 <__modsi3+0x6c>
   207f8:	294b883a 	add	r5,r5,r5
   207fc:	31bfffc4 	addi	r6,r6,-1
   20800:	18c7883a 	add	r3,r3,r3
   20804:	293ffb36 	bltu	r5,r4,207f4 <__modsi3+0x28>
   20808:	18000b26 	beq	r3,zero,20838 <__modsi3+0x6c>
   2080c:	1806d07a 	srli	r3,r3,1
   20810:	11400136 	bltu	r2,r5,20818 <__modsi3+0x4c>
   20814:	1145c83a 	sub	r2,r2,r5
   20818:	280ad07a 	srli	r5,r5,1
   2081c:	183ffb1e 	bne	r3,zero,2080c <__modsi3+0x40>
   20820:	38000126 	beq	r7,zero,20828 <__modsi3+0x5c>
   20824:	0085c83a 	sub	r2,zero,r2
   20828:	f800283a 	ret
   2082c:	0109c83a 	sub	r4,zero,r4
   20830:	01c00044 	movi	r7,1
   20834:	003fe706 	br	207d4 <__modsi3+0x8>
   20838:	2005883a 	mov	r2,r4
   2083c:	003ff806 	br	20820 <__modsi3+0x54>

00020840 <__udivsi3>:
   20840:	200d883a 	mov	r6,r4
   20844:	2900152e 	bgeu	r5,r4,2089c <__udivsi3+0x5c>
   20848:	28001416 	blt	r5,zero,2089c <__udivsi3+0x5c>
   2084c:	00800804 	movi	r2,32
   20850:	00c00044 	movi	r3,1
   20854:	00000206 	br	20860 <__udivsi3+0x20>
   20858:	10000e26 	beq	r2,zero,20894 <__udivsi3+0x54>
   2085c:	28000416 	blt	r5,zero,20870 <__udivsi3+0x30>
   20860:	294b883a 	add	r5,r5,r5
   20864:	10bfffc4 	addi	r2,r2,-1
   20868:	18c7883a 	add	r3,r3,r3
   2086c:	293ffa36 	bltu	r5,r4,20858 <__udivsi3+0x18>
   20870:	18000826 	beq	r3,zero,20894 <__udivsi3+0x54>
   20874:	0005883a 	mov	r2,zero
   20878:	31400236 	bltu	r6,r5,20884 <__udivsi3+0x44>
   2087c:	314dc83a 	sub	r6,r6,r5
   20880:	10c4b03a 	or	r2,r2,r3
   20884:	1806d07a 	srli	r3,r3,1
   20888:	280ad07a 	srli	r5,r5,1
   2088c:	183ffa1e 	bne	r3,zero,20878 <__udivsi3+0x38>
   20890:	f800283a 	ret
   20894:	0005883a 	mov	r2,zero
   20898:	f800283a 	ret
   2089c:	00c00044 	movi	r3,1
   208a0:	003ff406 	br	20874 <__udivsi3+0x34>

000208a4 <__umodsi3>:
   208a4:	2005883a 	mov	r2,r4
   208a8:	2900132e 	bgeu	r5,r4,208f8 <__umodsi3+0x54>
   208ac:	28001216 	blt	r5,zero,208f8 <__umodsi3+0x54>
   208b0:	01800804 	movi	r6,32
   208b4:	00c00044 	movi	r3,1
   208b8:	00000206 	br	208c4 <__umodsi3+0x20>
   208bc:	30000c26 	beq	r6,zero,208f0 <__umodsi3+0x4c>
   208c0:	28000416 	blt	r5,zero,208d4 <__umodsi3+0x30>
   208c4:	294b883a 	add	r5,r5,r5
   208c8:	31bfffc4 	addi	r6,r6,-1
   208cc:	18c7883a 	add	r3,r3,r3
   208d0:	293ffa36 	bltu	r5,r4,208bc <__umodsi3+0x18>
   208d4:	18000626 	beq	r3,zero,208f0 <__umodsi3+0x4c>
   208d8:	1806d07a 	srli	r3,r3,1
   208dc:	11400136 	bltu	r2,r5,208e4 <__umodsi3+0x40>
   208e0:	1145c83a 	sub	r2,r2,r5
   208e4:	280ad07a 	srli	r5,r5,1
   208e8:	183ffb1e 	bne	r3,zero,208d8 <__umodsi3+0x34>
   208ec:	f800283a 	ret
   208f0:	2005883a 	mov	r2,r4
   208f4:	f800283a 	ret
   208f8:	00c00044 	movi	r3,1
   208fc:	003ff606 	br	208d8 <__umodsi3+0x34>

00020900 <_printf_r>:
   20900:	defffd04 	addi	sp,sp,-12
   20904:	2805883a 	mov	r2,r5
   20908:	dfc00015 	stw	ra,0(sp)
   2090c:	d9800115 	stw	r6,4(sp)
   20910:	d9c00215 	stw	r7,8(sp)
   20914:	21400217 	ldw	r5,8(r4)
   20918:	d9c00104 	addi	r7,sp,4
   2091c:	100d883a 	mov	r6,r2
   20920:	00209680 	call	20968 <___vfprintf_internal_r>
   20924:	dfc00017 	ldw	ra,0(sp)
   20928:	dec00304 	addi	sp,sp,12
   2092c:	f800283a 	ret

00020930 <printf>:
   20930:	defffc04 	addi	sp,sp,-16
   20934:	dfc00015 	stw	ra,0(sp)
   20938:	d9400115 	stw	r5,4(sp)
   2093c:	d9800215 	stw	r6,8(sp)
   20940:	d9c00315 	stw	r7,12(sp)
   20944:	008000f4 	movhi	r2,3
   20948:	1088cd17 	ldw	r2,9012(r2)
   2094c:	200b883a 	mov	r5,r4
   20950:	d9800104 	addi	r6,sp,4
   20954:	11000217 	ldw	r4,8(r2)
   20958:	0022cec0 	call	22cec <__vfprintf_internal>
   2095c:	dfc00017 	ldw	ra,0(sp)
   20960:	dec00404 	addi	sp,sp,16
   20964:	f800283a 	ret

00020968 <___vfprintf_internal_r>:
   20968:	deffbd04 	addi	sp,sp,-268
   2096c:	dfc04215 	stw	ra,264(sp)
   20970:	dcc03c15 	stw	r19,240(sp)
   20974:	dc003915 	stw	r16,228(sp)
   20978:	d9000515 	stw	r4,20(sp)
   2097c:	2021883a 	mov	r16,r4
   20980:	d9400415 	stw	r5,16(sp)
   20984:	3027883a 	mov	r19,r6
   20988:	d9c00715 	stw	r7,28(sp)
   2098c:	df004115 	stw	fp,260(sp)
   20990:	ddc04015 	stw	r23,256(sp)
   20994:	dd803f15 	stw	r22,252(sp)
   20998:	dd403e15 	stw	r21,248(sp)
   2099c:	dd003d15 	stw	r20,244(sp)
   209a0:	dc803b15 	stw	r18,236(sp)
   209a4:	dc403a15 	stw	r17,232(sp)
   209a8:	00258a80 	call	258a8 <_localeconv_r>
   209ac:	10800017 	ldw	r2,0(r2)
   209b0:	1009883a 	mov	r4,r2
   209b4:	d8800d15 	stw	r2,52(sp)
   209b8:	00257040 	call	25704 <strlen>
   209bc:	d8800c15 	stw	r2,48(sp)
   209c0:	80000226 	beq	r16,zero,209cc <___vfprintf_internal_r+0x64>
   209c4:	80800d17 	ldw	r2,52(r16)
   209c8:	1006a226 	beq	r2,zero,22454 <___vfprintf_internal_r+0x1aec>
   209cc:	d9400417 	ldw	r5,16(sp)
   209d0:	2880030b 	ldhu	r2,12(r5)
   209d4:	10c8000c 	andi	r3,r2,8192
   209d8:	1800071e 	bne	r3,zero,209f8 <___vfprintf_internal_r+0x90>
   209dc:	28c01917 	ldw	r3,100(r5)
   209e0:	11080014 	ori	r4,r2,8192
   209e4:	00b7ffc4 	movi	r2,-8193
   209e8:	1886703a 	and	r3,r3,r2
   209ec:	2900030d 	sth	r4,12(r5)
   209f0:	2005883a 	mov	r2,r4
   209f4:	28c01915 	stw	r3,100(r5)
   209f8:	10c0020c 	andi	r3,r2,8
   209fc:	1800f626 	beq	r3,zero,20dd8 <___vfprintf_internal_r+0x470>
   20a00:	d8c00417 	ldw	r3,16(sp)
   20a04:	18c00417 	ldw	r3,16(r3)
   20a08:	1800f326 	beq	r3,zero,20dd8 <___vfprintf_internal_r+0x470>
   20a0c:	1080068c 	andi	r2,r2,26
   20a10:	10800298 	cmpnei	r2,r2,10
   20a14:	1000f926 	beq	r2,zero,20dfc <___vfprintf_internal_r+0x494>
   20a18:	dc802904 	addi	r18,sp,164
   20a1c:	050000f4 	movhi	r20,3
   20a20:	dc801c15 	stw	r18,112(sp)
   20a24:	d8001e15 	stw	zero,120(sp)
   20a28:	d8001d15 	stw	zero,116(sp)
   20a2c:	d8000915 	stw	zero,36(sp)
   20a30:	d8000a15 	stw	zero,40(sp)
   20a34:	d8000b15 	stw	zero,44(sp)
   20a38:	9021883a 	mov	r16,r18
   20a3c:	d8000e15 	stw	zero,56(sp)
   20a40:	d8001115 	stw	zero,68(sp)
   20a44:	d8000615 	stw	zero,24(sp)
   20a48:	a5012504 	addi	r20,r20,1172
   20a4c:	98800007 	ldb	r2,0(r19)
   20a50:	1000ce26 	beq	r2,zero,20d8c <___vfprintf_internal_r+0x424>
   20a54:	9823883a 	mov	r17,r19
   20a58:	00000306 	br	20a68 <___vfprintf_internal_r+0x100>
   20a5c:	88800047 	ldb	r2,1(r17)
   20a60:	8c400044 	addi	r17,r17,1
   20a64:	10015226 	beq	r2,zero,20fb0 <___vfprintf_internal_r+0x648>
   20a68:	10800958 	cmpnei	r2,r2,37
   20a6c:	103ffb1e 	bne	r2,zero,20a5c <___vfprintf_internal_r+0xf4>
   20a70:	8cebc83a 	sub	r21,r17,r19
   20a74:	8cc1501e 	bne	r17,r19,20fb8 <___vfprintf_internal_r+0x650>
   20a78:	88800003 	ldbu	r2,0(r17)
   20a7c:	10803fcc 	andi	r2,r2,255
   20a80:	1080201c 	xori	r2,r2,128
   20a84:	10bfe004 	addi	r2,r2,-128
   20a88:	1000c026 	beq	r2,zero,20d8c <___vfprintf_internal_r+0x424>
   20a8c:	8a400047 	ldb	r9,1(r17)
   20a90:	8cc00044 	addi	r19,r17,1
   20a94:	d8001545 	stb	zero,85(sp)
   20a98:	057fffc4 	movi	r21,-1
   20a9c:	0011883a 	mov	r8,zero
   20aa0:	0019883a 	mov	r12,zero
   20aa4:	9cc00044 	addi	r19,r19,1
   20aa8:	48bff804 	addi	r2,r9,-32
   20aac:	10c01668 	cmpgeui	r3,r2,89
   20ab0:	18006c1e 	bne	r3,zero,20c64 <___vfprintf_internal_r+0x2fc>
   20ab4:	100490ba 	slli	r2,r2,2
   20ab8:	00c000b4 	movhi	r3,2
   20abc:	10c7883a 	add	r3,r2,r3
   20ac0:	1882b217 	ldw	r2,2760(r3)
   20ac4:	1000683a 	jmp	r2
   20ac8:	0002137c 	xorhi	zero,zero,2125
   20acc:	00020c64 	muli	zero,zero,2097
   20ad0:	00020c64 	muli	zero,zero,2097
   20ad4:	00021370 	cmpltui	zero,zero,2125
   20ad8:	00020c64 	muli	zero,zero,2097
   20adc:	00020c64 	muli	zero,zero,2097
   20ae0:	00020c64 	muli	zero,zero,2097
   20ae4:	00020c64 	muli	zero,zero,2097
   20ae8:	00020c64 	muli	zero,zero,2097
   20aec:	00020c64 	muli	zero,zero,2097
   20af0:	000212e4 	muli	zero,zero,2123
   20af4:	00021360 	cmpeqi	zero,zero,2125
   20af8:	00020c64 	muli	zero,zero,2097
   20afc:	000212fc 	xorhi	zero,zero,2123
   20b00:	00021308 	cmpgei	zero,zero,2124
   20b04:	00020c64 	muli	zero,zero,2097
   20b08:	00021354 	movui	zero,2125
   20b0c:	00020c2c 	andhi	zero,zero,2096
   20b10:	00020c2c 	andhi	zero,zero,2096
   20b14:	00020c2c 	andhi	zero,zero,2096
   20b18:	00020c2c 	andhi	zero,zero,2096
   20b1c:	00020c2c 	andhi	zero,zero,2096
   20b20:	00020c2c 	andhi	zero,zero,2096
   20b24:	00020c2c 	andhi	zero,zero,2096
   20b28:	00020c2c 	andhi	zero,zero,2096
   20b2c:	00020c2c 	andhi	zero,zero,2096
   20b30:	00020c64 	muli	zero,zero,2097
   20b34:	00020c64 	muli	zero,zero,2097
   20b38:	00020c64 	muli	zero,zero,2097
   20b3c:	00020c64 	muli	zero,zero,2097
   20b40:	00020c64 	muli	zero,zero,2097
   20b44:	00020c64 	muli	zero,zero,2097
   20b48:	00020c64 	muli	zero,zero,2097
   20b4c:	00020c64 	muli	zero,zero,2097
   20b50:	00020c64 	muli	zero,zero,2097
   20b54:	00020c64 	muli	zero,zero,2097
   20b58:	00020e48 	cmpgei	zero,zero,2105
   20b5c:	00021104 	movi	zero,2116
   20b60:	00020c64 	muli	zero,zero,2097
   20b64:	00021104 	movi	zero,2116
   20b68:	00020c64 	muli	zero,zero,2097
   20b6c:	00020c64 	muli	zero,zero,2097
   20b70:	00020c64 	muli	zero,zero,2097
   20b74:	00020c64 	muli	zero,zero,2097
   20b78:	000213c8 	cmpgei	zero,zero,2127
   20b7c:	00020c64 	muli	zero,zero,2097
   20b80:	00020c64 	muli	zero,zero,2097
   20b84:	00020eb0 	cmpltui	zero,zero,2106
   20b88:	00020c64 	muli	zero,zero,2097
   20b8c:	00020c64 	muli	zero,zero,2097
   20b90:	00020c64 	muli	zero,zero,2097
   20b94:	00020c64 	muli	zero,zero,2097
   20b98:	00020c64 	muli	zero,zero,2097
   20b9c:	00020ed8 	cmpnei	zero,zero,2107
   20ba0:	00020c64 	muli	zero,zero,2097
   20ba4:	00020c64 	muli	zero,zero,2097
   20ba8:	00021ee4 	muli	zero,zero,2171
   20bac:	00020c64 	muli	zero,zero,2097
   20bb0:	00020c64 	muli	zero,zero,2097
   20bb4:	00020c64 	muli	zero,zero,2097
   20bb8:	00020c64 	muli	zero,zero,2097
   20bbc:	00020c64 	muli	zero,zero,2097
   20bc0:	00020c64 	muli	zero,zero,2097
   20bc4:	00020c64 	muli	zero,zero,2097
   20bc8:	00020c64 	muli	zero,zero,2097
   20bcc:	00020c64 	muli	zero,zero,2097
   20bd0:	00020c64 	muli	zero,zero,2097
   20bd4:	000213e0 	cmpeqi	zero,zero,2127
   20bd8:	00020e4c 	andi	zero,zero,2105
   20bdc:	00021104 	movi	zero,2116
   20be0:	00021104 	movi	zero,2116
   20be4:	00021104 	movi	zero,2116
   20be8:	000213d4 	movui	zero,2127
   20bec:	00020e4c 	andi	zero,zero,2105
   20bf0:	00020c64 	muli	zero,zero,2097
   20bf4:	00020c64 	muli	zero,zero,2097
   20bf8:	000213a0 	cmpeqi	zero,zero,2126
   20bfc:	00020c64 	muli	zero,zero,2097
   20c00:	000214b8 	rdprs	zero,zero,2130
   20c04:	00020eb4 	movhi	zero,2106
   20c08:	00021480 	call	2148 <__reset-0x1deb8>
   20c0c:	00021474 	movhi	zero,2129
   20c10:	00020c64 	muli	zero,zero,2097
   20c14:	00021408 	cmpgei	zero,zero,2128
   20c18:	00020c64 	muli	zero,zero,2097
   20c1c:	00020edc 	xori	zero,zero,2107
   20c20:	00020c64 	muli	zero,zero,2097
   20c24:	00020c64 	muli	zero,zero,2097
   20c28:	00021f34 	movhi	zero,2172
   20c2c:	0011883a 	mov	r8,zero
   20c30:	48fff404 	addi	r3,r9,-48
   20c34:	400490ba 	slli	r2,r8,2
   20c38:	9a400007 	ldb	r9,0(r19)
   20c3c:	9cc00044 	addi	r19,r19,1
   20c40:	1211883a 	add	r8,r2,r8
   20c44:	4211883a 	add	r8,r8,r8
   20c48:	1a11883a 	add	r8,r3,r8
   20c4c:	48fff404 	addi	r3,r9,-48
   20c50:	188002b0 	cmpltui	r2,r3,10
   20c54:	103ff71e 	bne	r2,zero,20c34 <___vfprintf_internal_r+0x2cc>
   20c58:	48bff804 	addi	r2,r9,-32
   20c5c:	10c01668 	cmpgeui	r3,r2,89
   20c60:	183f9426 	beq	r3,zero,20ab4 <___vfprintf_internal_r+0x14c>
   20c64:	48004926 	beq	r9,zero,20d8c <___vfprintf_internal_r+0x424>
   20c68:	da401f05 	stb	r9,124(sp)
   20c6c:	d8001545 	stb	zero,85(sp)
   20c70:	02c00044 	movi	r11,1
   20c74:	07000044 	movi	fp,1
   20c78:	dd801f04 	addi	r22,sp,124
   20c7c:	602f883a 	mov	r23,r12
   20c80:	002b883a 	mov	r21,zero
   20c84:	d8000815 	stw	zero,32(sp)
   20c88:	bb80008c 	andi	r14,r23,2
   20c8c:	70000126 	beq	r14,zero,20c94 <___vfprintf_internal_r+0x32c>
   20c90:	5ac00084 	addi	r11,r11,2
   20c94:	bb40210c 	andi	r13,r23,132
   20c98:	dc401e17 	ldw	r17,120(sp)
   20c9c:	6800021e 	bne	r13,zero,20ca8 <___vfprintf_internal_r+0x340>
   20ca0:	42c7c83a 	sub	r3,r8,r11
   20ca4:	00c32a16 	blt	zero,r3,21950 <___vfprintf_internal_r+0xfe8>
   20ca8:	d8801547 	ldb	r2,85(sp)
   20cac:	10000c26 	beq	r2,zero,20ce0 <___vfprintf_internal_r+0x378>
   20cb0:	d8801d17 	ldw	r2,116(sp)
   20cb4:	d8c01544 	addi	r3,sp,85
   20cb8:	8c400044 	addi	r17,r17,1
   20cbc:	10800044 	addi	r2,r2,1
   20cc0:	80c00015 	stw	r3,0(r16)
   20cc4:	00c00044 	movi	r3,1
   20cc8:	d8801d15 	stw	r2,116(sp)
   20ccc:	80c00115 	stw	r3,4(r16)
   20cd0:	dc401e15 	stw	r17,120(sp)
   20cd4:	10800208 	cmpgei	r2,r2,8
   20cd8:	1003741e 	bne	r2,zero,21aac <___vfprintf_internal_r+0x1144>
   20cdc:	84000204 	addi	r16,r16,8
   20ce0:	70000c26 	beq	r14,zero,20d14 <___vfprintf_internal_r+0x3ac>
   20ce4:	d8801d17 	ldw	r2,116(sp)
   20ce8:	d8c01584 	addi	r3,sp,86
   20cec:	8c400084 	addi	r17,r17,2
   20cf0:	10800044 	addi	r2,r2,1
   20cf4:	80c00015 	stw	r3,0(r16)
   20cf8:	00c00084 	movi	r3,2
   20cfc:	d8801d15 	stw	r2,116(sp)
   20d00:	80c00115 	stw	r3,4(r16)
   20d04:	dc401e15 	stw	r17,120(sp)
   20d08:	10800208 	cmpgei	r2,r2,8
   20d0c:	1003791e 	bne	r2,zero,21af4 <___vfprintf_internal_r+0x118c>
   20d10:	84000204 	addi	r16,r16,8
   20d14:	6b402018 	cmpnei	r13,r13,128
   20d18:	68024226 	beq	r13,zero,21624 <___vfprintf_internal_r+0xcbc>
   20d1c:	af2bc83a 	sub	r21,r21,fp
   20d20:	05427a16 	blt	zero,r21,2170c <___vfprintf_internal_r+0xda4>
   20d24:	b880400c 	andi	r2,r23,256
   20d28:	1001ef1e 	bne	r2,zero,214e8 <___vfprintf_internal_r+0xb80>
   20d2c:	d8801d17 	ldw	r2,116(sp)
   20d30:	8f23883a 	add	r17,r17,fp
   20d34:	85800015 	stw	r22,0(r16)
   20d38:	10800044 	addi	r2,r2,1
   20d3c:	d8801d15 	stw	r2,116(sp)
   20d40:	87000115 	stw	fp,4(r16)
   20d44:	dc401e15 	stw	r17,120(sp)
   20d48:	10800208 	cmpgei	r2,r2,8
   20d4c:	10034b1e 	bne	r2,zero,21a7c <___vfprintf_internal_r+0x1114>
   20d50:	84000204 	addi	r16,r16,8
   20d54:	ba80010c 	andi	r10,r23,4
   20d58:	50000226 	beq	r10,zero,20d64 <___vfprintf_internal_r+0x3fc>
   20d5c:	42ebc83a 	sub	r21,r8,r11
   20d60:	0540ac16 	blt	zero,r21,21014 <___vfprintf_internal_r+0x6ac>
   20d64:	42c0010e 	bge	r8,r11,20d6c <___vfprintf_internal_r+0x404>
   20d68:	5811883a 	mov	r8,r11
   20d6c:	d8800617 	ldw	r2,24(sp)
   20d70:	1205883a 	add	r2,r2,r8
   20d74:	d8800615 	stw	r2,24(sp)
   20d78:	8802b41e 	bne	r17,zero,2184c <___vfprintf_internal_r+0xee4>
   20d7c:	98800007 	ldb	r2,0(r19)
   20d80:	d8001d15 	stw	zero,116(sp)
   20d84:	9021883a 	mov	r16,r18
   20d88:	103f321e 	bne	r2,zero,20a54 <___vfprintf_internal_r+0xec>
   20d8c:	d8801e17 	ldw	r2,120(sp)
   20d90:	10062a1e 	bne	r2,zero,2263c <___vfprintf_internal_r+0x1cd4>
   20d94:	d8800417 	ldw	r2,16(sp)
   20d98:	1080030b 	ldhu	r2,12(r2)
   20d9c:	1080100c 	andi	r2,r2,64
   20da0:	10074f1e 	bne	r2,zero,22ae0 <___vfprintf_internal_r+0x2178>
   20da4:	d8800617 	ldw	r2,24(sp)
   20da8:	dfc04217 	ldw	ra,264(sp)
   20dac:	df004117 	ldw	fp,260(sp)
   20db0:	ddc04017 	ldw	r23,256(sp)
   20db4:	dd803f17 	ldw	r22,252(sp)
   20db8:	dd403e17 	ldw	r21,248(sp)
   20dbc:	dd003d17 	ldw	r20,244(sp)
   20dc0:	dcc03c17 	ldw	r19,240(sp)
   20dc4:	dc803b17 	ldw	r18,236(sp)
   20dc8:	dc403a17 	ldw	r17,232(sp)
   20dcc:	dc003917 	ldw	r16,228(sp)
   20dd0:	dec04304 	addi	sp,sp,268
   20dd4:	f800283a 	ret
   20dd8:	d9400417 	ldw	r5,16(sp)
   20ddc:	d9000517 	ldw	r4,20(sp)
   20de0:	0024f5c0 	call	24f5c <__swsetup_r>
   20de4:	10073e1e 	bne	r2,zero,22ae0 <___vfprintf_internal_r+0x2178>
   20de8:	d8800417 	ldw	r2,16(sp)
   20dec:	1080030b 	ldhu	r2,12(r2)
   20df0:	1080068c 	andi	r2,r2,26
   20df4:	10800298 	cmpnei	r2,r2,10
   20df8:	103f071e 	bne	r2,zero,20a18 <___vfprintf_internal_r+0xb0>
   20dfc:	d8800417 	ldw	r2,16(sp)
   20e00:	1080038f 	ldh	r2,14(r2)
   20e04:	103f0416 	blt	r2,zero,20a18 <___vfprintf_internal_r+0xb0>
   20e08:	d9c00717 	ldw	r7,28(sp)
   20e0c:	d9400417 	ldw	r5,16(sp)
   20e10:	d9000517 	ldw	r4,20(sp)
   20e14:	980d883a 	mov	r6,r19
   20e18:	dfc04217 	ldw	ra,264(sp)
   20e1c:	df004117 	ldw	fp,260(sp)
   20e20:	ddc04017 	ldw	r23,256(sp)
   20e24:	dd803f17 	ldw	r22,252(sp)
   20e28:	dd403e17 	ldw	r21,248(sp)
   20e2c:	dd003d17 	ldw	r20,244(sp)
   20e30:	dcc03c17 	ldw	r19,240(sp)
   20e34:	dc803b17 	ldw	r18,236(sp)
   20e38:	dc403a17 	ldw	r17,232(sp)
   20e3c:	dc003917 	ldw	r16,228(sp)
   20e40:	dec04304 	addi	sp,sp,268
   20e44:	0022d081 	jmpi	22d08 <__sbprintf>
   20e48:	63000414 	ori	r12,r12,16
   20e4c:	6080080c 	andi	r2,r12,32
   20e50:	1000e926 	beq	r2,zero,211f8 <___vfprintf_internal_r+0x890>
   20e54:	d8c00717 	ldw	r3,28(sp)
   20e58:	18800117 	ldw	r2,4(r3)
   20e5c:	1c400017 	ldw	r17,0(r3)
   20e60:	18c00204 	addi	r3,r3,8
   20e64:	d8c00715 	stw	r3,28(sp)
   20e68:	1039883a 	mov	fp,r2
   20e6c:	1000f016 	blt	r2,zero,21230 <___vfprintf_internal_r+0x8c8>
   20e70:	a8bfffd8 	cmpnei	r2,r21,-1
   20e74:	d9001543 	ldbu	r4,85(sp)
   20e78:	10011126 	beq	r2,zero,212c0 <___vfprintf_internal_r+0x958>
   20e7c:	02bfdfc4 	movi	r10,-129
   20e80:	8f04b03a 	or	r2,r17,fp
   20e84:	62ae703a 	and	r23,r12,r10
   20e88:	10010c1e 	bne	r2,zero,212bc <___vfprintf_internal_r+0x954>
   20e8c:	00800044 	movi	r2,1
   20e90:	a802571e 	bne	r21,zero,217f0 <___vfprintf_internal_r+0xe88>
   20e94:	1003871e 	bne	r2,zero,21cb4 <___vfprintf_internal_r+0x134c>
   20e98:	6700004c 	andi	fp,r12,1
   20e9c:	e003e726 	beq	fp,zero,21e3c <___vfprintf_internal_r+0x14d4>
   20ea0:	00800c04 	movi	r2,48
   20ea4:	d88028c5 	stb	r2,163(sp)
   20ea8:	dd8028c4 	addi	r22,sp,163
   20eac:	00003606 	br	20f88 <___vfprintf_internal_r+0x620>
   20eb0:	63000414 	ori	r12,r12,16
   20eb4:	6080080c 	andi	r2,r12,32
   20eb8:	1000f026 	beq	r2,zero,2127c <___vfprintf_internal_r+0x914>
   20ebc:	d8c00717 	ldw	r3,28(sp)
   20ec0:	0005883a 	mov	r2,zero
   20ec4:	1c400017 	ldw	r17,0(r3)
   20ec8:	1f000117 	ldw	fp,4(r3)
   20ecc:	18c00204 	addi	r3,r3,8
   20ed0:	d8c00715 	stw	r3,28(sp)
   20ed4:	00000906 	br	20efc <___vfprintf_internal_r+0x594>
   20ed8:	63000414 	ori	r12,r12,16
   20edc:	6080080c 	andi	r2,r12,32
   20ee0:	1000da26 	beq	r2,zero,2124c <___vfprintf_internal_r+0x8e4>
   20ee4:	d8c00717 	ldw	r3,28(sp)
   20ee8:	00800044 	movi	r2,1
   20eec:	1c400017 	ldw	r17,0(r3)
   20ef0:	1f000117 	ldw	fp,4(r3)
   20ef4:	18c00204 	addi	r3,r3,8
   20ef8:	d8c00715 	stw	r3,28(sp)
   20efc:	0009883a 	mov	r4,zero
   20f00:	d9001545 	stb	r4,85(sp)
   20f04:	a8ffffe0 	cmpeqi	r3,r21,-1
   20f08:	1800051e 	bne	r3,zero,20f20 <___vfprintf_internal_r+0x5b8>
   20f0c:	02bfdfc4 	movi	r10,-129
   20f10:	8f06b03a 	or	r3,r17,fp
   20f14:	62ae703a 	and	r23,r12,r10
   20f18:	183fdd26 	beq	r3,zero,20e90 <___vfprintf_internal_r+0x528>
   20f1c:	b819883a 	mov	r12,r23
   20f20:	10c00060 	cmpeqi	r3,r2,1
   20f24:	1800e61e 	bne	r3,zero,212c0 <___vfprintf_internal_r+0x958>
   20f28:	108000a0 	cmpeqi	r2,r2,2
   20f2c:	1002371e 	bne	r2,zero,2180c <___vfprintf_internal_r+0xea4>
   20f30:	902d883a 	mov	r22,r18
   20f34:	8806d0fa 	srli	r3,r17,3
   20f38:	e00c977a 	slli	r6,fp,29
   20f3c:	e038d0fa 	srli	fp,fp,3
   20f40:	8c4001cc 	andi	r17,r17,7
   20f44:	88800c04 	addi	r2,r17,48
   20f48:	30e2b03a 	or	r17,r6,r3
   20f4c:	b0bfffc5 	stb	r2,-1(r22)
   20f50:	8f06b03a 	or	r3,r17,fp
   20f54:	b00b883a 	mov	r5,r22
   20f58:	b5bfffc4 	addi	r22,r22,-1
   20f5c:	183ff51e 	bne	r3,zero,20f34 <___vfprintf_internal_r+0x5cc>
   20f60:	60c0004c 	andi	r3,r12,1
   20f64:	18023626 	beq	r3,zero,21840 <___vfprintf_internal_r+0xed8>
   20f68:	10800c18 	cmpnei	r2,r2,48
   20f6c:	10023426 	beq	r2,zero,21840 <___vfprintf_internal_r+0xed8>
   20f70:	297fff84 	addi	r5,r5,-2
   20f74:	00800c04 	movi	r2,48
   20f78:	b0bfffc5 	stb	r2,-1(r22)
   20f7c:	9179c83a 	sub	fp,r18,r5
   20f80:	602f883a 	mov	r23,r12
   20f84:	282d883a 	mov	r22,r5
   20f88:	e017883a 	mov	r11,fp
   20f8c:	e540010e 	bge	fp,r21,20f94 <___vfprintf_internal_r+0x62c>
   20f90:	a817883a 	mov	r11,r21
   20f94:	d8000815 	stw	zero,32(sp)
   20f98:	21003fcc 	andi	r4,r4,255
   20f9c:	2100201c 	xori	r4,r4,128
   20fa0:	213fe004 	addi	r4,r4,-128
   20fa4:	203f3826 	beq	r4,zero,20c88 <___vfprintf_internal_r+0x320>
   20fa8:	5ac00044 	addi	r11,r11,1
   20fac:	003f3606 	br	20c88 <___vfprintf_internal_r+0x320>
   20fb0:	8cebc83a 	sub	r21,r17,r19
   20fb4:	8cff7526 	beq	r17,r19,20d8c <___vfprintf_internal_r+0x424>
   20fb8:	d8c01e17 	ldw	r3,120(sp)
   20fbc:	d8801d17 	ldw	r2,116(sp)
   20fc0:	84c00015 	stw	r19,0(r16)
   20fc4:	1d47883a 	add	r3,r3,r21
   20fc8:	10800044 	addi	r2,r2,1
   20fcc:	d8801d15 	stw	r2,116(sp)
   20fd0:	85400115 	stw	r21,4(r16)
   20fd4:	d8c01e15 	stw	r3,120(sp)
   20fd8:	10800208 	cmpgei	r2,r2,8
   20fdc:	1000061e 	bne	r2,zero,20ff8 <___vfprintf_internal_r+0x690>
   20fe0:	84000204 	addi	r16,r16,8
   20fe4:	d8c00617 	ldw	r3,24(sp)
   20fe8:	88800003 	ldbu	r2,0(r17)
   20fec:	1d47883a 	add	r3,r3,r21
   20ff0:	d8c00615 	stw	r3,24(sp)
   20ff4:	003ea106 	br	20a7c <___vfprintf_internal_r+0x114>
   20ff8:	d9400417 	ldw	r5,16(sp)
   20ffc:	d9000517 	ldw	r4,20(sp)
   21000:	d9801c04 	addi	r6,sp,112
   21004:	0022ec00 	call	22ec0 <__sprint_r>
   21008:	103f621e 	bne	r2,zero,20d94 <___vfprintf_internal_r+0x42c>
   2100c:	9021883a 	mov	r16,r18
   21010:	003ff406 	br	20fe4 <___vfprintf_internal_r+0x67c>
   21014:	030000f4 	movhi	r12,3
   21018:	a8c00450 	cmplti	r3,r21,17
   2101c:	d8801d17 	ldw	r2,116(sp)
   21020:	63012904 	addi	r12,r12,1188
   21024:	1800241e 	bne	r3,zero,210b8 <___vfprintf_internal_r+0x750>
   21028:	8007883a 	mov	r3,r16
   2102c:	8809883a 	mov	r4,r17
   21030:	ddc00517 	ldw	r23,20(sp)
   21034:	05800404 	movi	r22,16
   21038:	4021883a 	mov	r16,r8
   2103c:	5823883a 	mov	r17,r11
   21040:	6039883a 	mov	fp,r12
   21044:	00000406 	br	21058 <___vfprintf_internal_r+0x6f0>
   21048:	ad7ffc04 	addi	r21,r21,-16
   2104c:	a9400448 	cmpgei	r5,r21,17
   21050:	18c00204 	addi	r3,r3,8
   21054:	28001326 	beq	r5,zero,210a4 <___vfprintf_internal_r+0x73c>
   21058:	10800044 	addi	r2,r2,1
   2105c:	21000404 	addi	r4,r4,16
   21060:	1f000015 	stw	fp,0(r3)
   21064:	1d800115 	stw	r22,4(r3)
   21068:	d9001e15 	stw	r4,120(sp)
   2106c:	d8801d15 	stw	r2,116(sp)
   21070:	11400208 	cmpgei	r5,r2,8
   21074:	283ff426 	beq	r5,zero,21048 <___vfprintf_internal_r+0x6e0>
   21078:	d9400417 	ldw	r5,16(sp)
   2107c:	d9801c04 	addi	r6,sp,112
   21080:	b809883a 	mov	r4,r23
   21084:	0022ec00 	call	22ec0 <__sprint_r>
   21088:	103f421e 	bne	r2,zero,20d94 <___vfprintf_internal_r+0x42c>
   2108c:	ad7ffc04 	addi	r21,r21,-16
   21090:	a9400448 	cmpgei	r5,r21,17
   21094:	d9001e17 	ldw	r4,120(sp)
   21098:	d8801d17 	ldw	r2,116(sp)
   2109c:	9007883a 	mov	r3,r18
   210a0:	283fed1e 	bne	r5,zero,21058 <___vfprintf_internal_r+0x6f0>
   210a4:	8011883a 	mov	r8,r16
   210a8:	8817883a 	mov	r11,r17
   210ac:	1821883a 	mov	r16,r3
   210b0:	2023883a 	mov	r17,r4
   210b4:	e019883a 	mov	r12,fp
   210b8:	10800044 	addi	r2,r2,1
   210bc:	8d63883a 	add	r17,r17,r21
   210c0:	d8801d15 	stw	r2,116(sp)
   210c4:	83000015 	stw	r12,0(r16)
   210c8:	85400115 	stw	r21,4(r16)
   210cc:	dc401e15 	stw	r17,120(sp)
   210d0:	10800210 	cmplti	r2,r2,8
   210d4:	103f231e 	bne	r2,zero,20d64 <___vfprintf_internal_r+0x3fc>
   210d8:	d9400417 	ldw	r5,16(sp)
   210dc:	d9000517 	ldw	r4,20(sp)
   210e0:	d9801c04 	addi	r6,sp,112
   210e4:	dac00f15 	stw	r11,60(sp)
   210e8:	da000815 	stw	r8,32(sp)
   210ec:	0022ec00 	call	22ec0 <__sprint_r>
   210f0:	103f281e 	bne	r2,zero,20d94 <___vfprintf_internal_r+0x42c>
   210f4:	dc401e17 	ldw	r17,120(sp)
   210f8:	dac00f17 	ldw	r11,60(sp)
   210fc:	da000817 	ldw	r8,32(sp)
   21100:	003f1806 	br	20d64 <___vfprintf_internal_r+0x3fc>
   21104:	d8c00717 	ldw	r3,28(sp)
   21108:	6080020c 	andi	r2,r12,8
   2110c:	19000204 	addi	r4,r3,8
   21110:	d9001015 	stw	r4,64(sp)
   21114:	10034b1e 	bne	r2,zero,21e44 <___vfprintf_internal_r+0x14dc>
   21118:	d8800717 	ldw	r2,28(sp)
   2111c:	10c00017 	ldw	r3,0(r2)
   21120:	10800117 	ldw	r2,4(r2)
   21124:	d8c00a15 	stw	r3,40(sp)
   21128:	d8800b15 	stw	r2,44(sp)
   2112c:	ddc00b17 	ldw	r23,44(sp)
   21130:	dd800a17 	ldw	r22,40(sp)
   21134:	00a00034 	movhi	r2,32768
   21138:	10bfffc4 	addi	r2,r2,-1
   2113c:	b8a2703a 	and	r17,r23,r2
   21140:	01dffc34 	movhi	r7,32752
   21144:	01bfffc4 	movi	r6,-1
   21148:	39ffffc4 	addi	r7,r7,-1
   2114c:	b009883a 	mov	r4,r22
   21150:	880b883a 	mov	r5,r17
   21154:	da000f15 	stw	r8,60(sp)
   21158:	db000815 	stw	r12,32(sp)
   2115c:	da400715 	stw	r9,28(sp)
   21160:	002dac00 	call	2dac0 <__unorddf2>
   21164:	da400717 	ldw	r9,28(sp)
   21168:	db000817 	ldw	r12,32(sp)
   2116c:	da000f17 	ldw	r8,60(sp)
   21170:	10043c1e 	bne	r2,zero,22264 <___vfprintf_internal_r+0x18fc>
   21174:	01dffc34 	movhi	r7,32752
   21178:	01bfffc4 	movi	r6,-1
   2117c:	39ffffc4 	addi	r7,r7,-1
   21180:	b009883a 	mov	r4,r22
   21184:	880b883a 	mov	r5,r17
   21188:	002c8240 	call	2c824 <__ledf2>
   2118c:	da400717 	ldw	r9,28(sp)
   21190:	db000817 	ldw	r12,32(sp)
   21194:	da000f17 	ldw	r8,60(sp)
   21198:	0084320e 	bge	zero,r2,22264 <___vfprintf_internal_r+0x18fc>
   2119c:	000d883a 	mov	r6,zero
   211a0:	000f883a 	mov	r7,zero
   211a4:	b009883a 	mov	r4,r22
   211a8:	b80b883a 	mov	r5,r23
   211ac:	002c8240 	call	2c824 <__ledf2>
   211b0:	da400717 	ldw	r9,28(sp)
   211b4:	db000817 	ldw	r12,32(sp)
   211b8:	da000f17 	ldw	r8,60(sp)
   211bc:	10050816 	blt	r2,zero,225e0 <___vfprintf_internal_r+0x1c78>
   211c0:	d9001543 	ldbu	r4,85(sp)
   211c4:	48801210 	cmplti	r2,r9,72
   211c8:	1004ed1e 	bne	r2,zero,22580 <___vfprintf_internal_r+0x1c18>
   211cc:	058000f4 	movhi	r22,3
   211d0:	b5811504 	addi	r22,r22,1108
   211d4:	d8801017 	ldw	r2,64(sp)
   211d8:	02bfdfc4 	movi	r10,-129
   211dc:	62ae703a 	and	r23,r12,r10
   211e0:	d8800715 	stw	r2,28(sp)
   211e4:	02c000c4 	movi	r11,3
   211e8:	070000c4 	movi	fp,3
   211ec:	002b883a 	mov	r21,zero
   211f0:	d8000815 	stw	zero,32(sp)
   211f4:	003f6806 	br	20f98 <___vfprintf_internal_r+0x630>
   211f8:	d8c00717 	ldw	r3,28(sp)
   211fc:	6080040c 	andi	r2,r12,16
   21200:	1c400017 	ldw	r17,0(r3)
   21204:	1dc00104 	addi	r23,r3,4
   21208:	1000281e 	bne	r2,zero,212ac <___vfprintf_internal_r+0x944>
   2120c:	6080100c 	andi	r2,r12,64
   21210:	10002626 	beq	r2,zero,212ac <___vfprintf_internal_r+0x944>
   21214:	8c7fffcc 	andi	r17,r17,65535
   21218:	8c60001c 	xori	r17,r17,32768
   2121c:	8c600004 	addi	r17,r17,-32768
   21220:	8839d7fa 	srai	fp,r17,31
   21224:	ddc00715 	stw	r23,28(sp)
   21228:	e005883a 	mov	r2,fp
   2122c:	103f100e 	bge	r2,zero,20e70 <___vfprintf_internal_r+0x508>
   21230:	8804c03a 	cmpne	r2,r17,zero
   21234:	0739c83a 	sub	fp,zero,fp
   21238:	e0b9c83a 	sub	fp,fp,r2
   2123c:	0463c83a 	sub	r17,zero,r17
   21240:	01000b44 	movi	r4,45
   21244:	00800044 	movi	r2,1
   21248:	003f2d06 	br	20f00 <___vfprintf_internal_r+0x598>
   2124c:	d8c00717 	ldw	r3,28(sp)
   21250:	6080040c 	andi	r2,r12,16
   21254:	1c400017 	ldw	r17,0(r3)
   21258:	1dc00104 	addi	r23,r3,4
   2125c:	1000031e 	bne	r2,zero,2126c <___vfprintf_internal_r+0x904>
   21260:	6080100c 	andi	r2,r12,64
   21264:	10000126 	beq	r2,zero,2126c <___vfprintf_internal_r+0x904>
   21268:	8c7fffcc 	andi	r17,r17,65535
   2126c:	0039883a 	mov	fp,zero
   21270:	ddc00715 	stw	r23,28(sp)
   21274:	00800044 	movi	r2,1
   21278:	003f2006 	br	20efc <___vfprintf_internal_r+0x594>
   2127c:	d8c00717 	ldw	r3,28(sp)
   21280:	6080040c 	andi	r2,r12,16
   21284:	1c400017 	ldw	r17,0(r3)
   21288:	1dc00104 	addi	r23,r3,4
   2128c:	1000031e 	bne	r2,zero,2129c <___vfprintf_internal_r+0x934>
   21290:	6080100c 	andi	r2,r12,64
   21294:	10000126 	beq	r2,zero,2129c <___vfprintf_internal_r+0x934>
   21298:	8c7fffcc 	andi	r17,r17,65535
   2129c:	0039883a 	mov	fp,zero
   212a0:	ddc00715 	stw	r23,28(sp)
   212a4:	0005883a 	mov	r2,zero
   212a8:	003f1406 	br	20efc <___vfprintf_internal_r+0x594>
   212ac:	8839d7fa 	srai	fp,r17,31
   212b0:	ddc00715 	stw	r23,28(sp)
   212b4:	e005883a 	mov	r2,fp
   212b8:	003eec06 	br	20e6c <___vfprintf_internal_r+0x504>
   212bc:	b819883a 	mov	r12,r23
   212c0:	e0034c1e 	bne	fp,zero,21ff4 <___vfprintf_internal_r+0x168c>
   212c4:	888002a8 	cmpgeui	r2,r17,10
   212c8:	10034a1e 	bne	r2,zero,21ff4 <___vfprintf_internal_r+0x168c>
   212cc:	8c400c04 	addi	r17,r17,48
   212d0:	dc4028c5 	stb	r17,163(sp)
   212d4:	602f883a 	mov	r23,r12
   212d8:	07000044 	movi	fp,1
   212dc:	dd8028c4 	addi	r22,sp,163
   212e0:	003f2906 	br	20f88 <___vfprintf_internal_r+0x620>
   212e4:	d8800717 	ldw	r2,28(sp)
   212e8:	12000017 	ldw	r8,0(r2)
   212ec:	10800104 	addi	r2,r2,4
   212f0:	4002cf0e 	bge	r8,zero,21e30 <___vfprintf_internal_r+0x14c8>
   212f4:	0211c83a 	sub	r8,zero,r8
   212f8:	d8800715 	stw	r2,28(sp)
   212fc:	9a400007 	ldb	r9,0(r19)
   21300:	63000114 	ori	r12,r12,4
   21304:	003de706 	br	20aa4 <___vfprintf_internal_r+0x13c>
   21308:	9a400007 	ldb	r9,0(r19)
   2130c:	98800044 	addi	r2,r19,1
   21310:	48c00aa0 	cmpeqi	r3,r9,42
   21314:	1806581e 	bne	r3,zero,22c78 <___vfprintf_internal_r+0x2310>
   21318:	48fff404 	addi	r3,r9,-48
   2131c:	190002b0 	cmpltui	r4,r3,10
   21320:	1027883a 	mov	r19,r2
   21324:	002b883a 	mov	r21,zero
   21328:	203ddf26 	beq	r4,zero,20aa8 <___vfprintf_internal_r+0x140>
   2132c:	a80490ba 	slli	r2,r21,2
   21330:	9a400007 	ldb	r9,0(r19)
   21334:	9cc00044 	addi	r19,r19,1
   21338:	156b883a 	add	r21,r2,r21
   2133c:	ad6b883a 	add	r21,r21,r21
   21340:	a8eb883a 	add	r21,r21,r3
   21344:	48fff404 	addi	r3,r9,-48
   21348:	188002b0 	cmpltui	r2,r3,10
   2134c:	103ff71e 	bne	r2,zero,2132c <___vfprintf_internal_r+0x9c4>
   21350:	003dd506 	br	20aa8 <___vfprintf_internal_r+0x140>
   21354:	9a400007 	ldb	r9,0(r19)
   21358:	63002014 	ori	r12,r12,128
   2135c:	003dd106 	br	20aa4 <___vfprintf_internal_r+0x13c>
   21360:	00800ac4 	movi	r2,43
   21364:	9a400007 	ldb	r9,0(r19)
   21368:	d8801545 	stb	r2,85(sp)
   2136c:	003dcd06 	br	20aa4 <___vfprintf_internal_r+0x13c>
   21370:	9a400007 	ldb	r9,0(r19)
   21374:	63000054 	ori	r12,r12,1
   21378:	003dca06 	br	20aa4 <___vfprintf_internal_r+0x13c>
   2137c:	d8801547 	ldb	r2,85(sp)
   21380:	9a400003 	ldbu	r9,0(r19)
   21384:	10000c1e 	bne	r2,zero,213b8 <___vfprintf_internal_r+0xa50>
   21388:	4a403fcc 	andi	r9,r9,255
   2138c:	00800804 	movi	r2,32
   21390:	4a40201c 	xori	r9,r9,128
   21394:	d8801545 	stb	r2,85(sp)
   21398:	4a7fe004 	addi	r9,r9,-128
   2139c:	003dc106 	br	20aa4 <___vfprintf_internal_r+0x13c>
   213a0:	9a400007 	ldb	r9,0(r19)
   213a4:	48801b18 	cmpnei	r2,r9,108
   213a8:	10029f1e 	bne	r2,zero,21e28 <___vfprintf_internal_r+0x14c0>
   213ac:	9a400043 	ldbu	r9,1(r19)
   213b0:	63000814 	ori	r12,r12,32
   213b4:	9cc00044 	addi	r19,r19,1
   213b8:	4a403fcc 	andi	r9,r9,255
   213bc:	4a40201c 	xori	r9,r9,128
   213c0:	4a7fe004 	addi	r9,r9,-128
   213c4:	003db706 	br	20aa4 <___vfprintf_internal_r+0x13c>
   213c8:	9a400007 	ldb	r9,0(r19)
   213cc:	63000214 	ori	r12,r12,8
   213d0:	003db406 	br	20aa4 <___vfprintf_internal_r+0x13c>
   213d4:	9a400007 	ldb	r9,0(r19)
   213d8:	63001014 	ori	r12,r12,64
   213dc:	003db106 	br	20aa4 <___vfprintf_internal_r+0x13c>
   213e0:	d8c00717 	ldw	r3,28(sp)
   213e4:	d8001545 	stb	zero,85(sp)
   213e8:	02c00044 	movi	r11,1
   213ec:	18800017 	ldw	r2,0(r3)
   213f0:	18c00104 	addi	r3,r3,4
   213f4:	d8c00715 	stw	r3,28(sp)
   213f8:	d8801f05 	stb	r2,124(sp)
   213fc:	07000044 	movi	fp,1
   21400:	dd801f04 	addi	r22,sp,124
   21404:	003e1d06 	br	20c7c <___vfprintf_internal_r+0x314>
   21408:	d8800717 	ldw	r2,28(sp)
   2140c:	d8001545 	stb	zero,85(sp)
   21410:	15800017 	ldw	r22,0(r2)
   21414:	15c00104 	addi	r23,r2,4
   21418:	b002ca26 	beq	r22,zero,21f44 <___vfprintf_internal_r+0x15dc>
   2141c:	da000f15 	stw	r8,60(sp)
   21420:	db000815 	stw	r12,32(sp)
   21424:	da400715 	stw	r9,28(sp)
   21428:	a8bfffe0 	cmpeqi	r2,r21,-1
   2142c:	10031e1e 	bne	r2,zero,220a8 <___vfprintf_internal_r+0x1740>
   21430:	a80d883a 	mov	r6,r21
   21434:	000b883a 	mov	r5,zero
   21438:	b009883a 	mov	r4,r22
   2143c:	00252a00 	call	252a0 <memchr>
   21440:	da400717 	ldw	r9,28(sp)
   21444:	db000817 	ldw	r12,32(sp)
   21448:	da000f17 	ldw	r8,60(sp)
   2144c:	10058226 	beq	r2,zero,22a58 <___vfprintf_internal_r+0x20f0>
   21450:	15b9c83a 	sub	fp,r2,r22
   21454:	d9001543 	ldbu	r4,85(sp)
   21458:	e017883a 	mov	r11,fp
   2145c:	e0031b16 	blt	fp,zero,220cc <___vfprintf_internal_r+0x1764>
   21460:	ddc00715 	stw	r23,28(sp)
   21464:	002b883a 	mov	r21,zero
   21468:	602f883a 	mov	r23,r12
   2146c:	d8000815 	stw	zero,32(sp)
   21470:	003ec906 	br	20f98 <___vfprintf_internal_r+0x630>
   21474:	9a400007 	ldb	r9,0(r19)
   21478:	63000814 	ori	r12,r12,32
   2147c:	003d8906 	br	20aa4 <___vfprintf_internal_r+0x13c>
   21480:	d8c00717 	ldw	r3,28(sp)
   21484:	009e0c04 	movi	r2,30768
   21488:	010000f4 	movhi	r4,3
   2148c:	d880158d 	sth	r2,86(sp)
   21490:	18800104 	addi	r2,r3,4
   21494:	d8800715 	stw	r2,28(sp)
   21498:	20811d04 	addi	r2,r4,1140
   2149c:	d8800e15 	stw	r2,56(sp)
   214a0:	1c400017 	ldw	r17,0(r3)
   214a4:	0039883a 	mov	fp,zero
   214a8:	63000094 	ori	r12,r12,2
   214ac:	00800084 	movi	r2,2
   214b0:	02401e04 	movi	r9,120
   214b4:	003e9106 	br	20efc <___vfprintf_internal_r+0x594>
   214b8:	6080080c 	andi	r2,r12,32
   214bc:	10026626 	beq	r2,zero,21e58 <___vfprintf_internal_r+0x14f0>
   214c0:	d9000617 	ldw	r4,24(sp)
   214c4:	d8800717 	ldw	r2,28(sp)
   214c8:	2007d7fa 	srai	r3,r4,31
   214cc:	10800017 	ldw	r2,0(r2)
   214d0:	11000015 	stw	r4,0(r2)
   214d4:	10c00115 	stw	r3,4(r2)
   214d8:	d8800717 	ldw	r2,28(sp)
   214dc:	10800104 	addi	r2,r2,4
   214e0:	d8800715 	stw	r2,28(sp)
   214e4:	003d5906 	br	20a4c <___vfprintf_internal_r+0xe4>
   214e8:	4a401990 	cmplti	r9,r9,102
   214ec:	4800dd1e 	bne	r9,zero,21864 <___vfprintf_internal_r+0xefc>
   214f0:	d9000a17 	ldw	r4,40(sp)
   214f4:	d9400b17 	ldw	r5,44(sp)
   214f8:	000d883a 	mov	r6,zero
   214fc:	000f883a 	mov	r7,zero
   21500:	dac01015 	stw	r11,64(sp)
   21504:	da000f15 	stw	r8,60(sp)
   21508:	002c6940 	call	2c694 <__eqdf2>
   2150c:	da000f17 	ldw	r8,60(sp)
   21510:	dac01017 	ldw	r11,64(sp)
   21514:	1001871e 	bne	r2,zero,21b34 <___vfprintf_internal_r+0x11cc>
   21518:	d8801d17 	ldw	r2,116(sp)
   2151c:	00c000f4 	movhi	r3,3
   21520:	18c12404 	addi	r3,r3,1168
   21524:	10800044 	addi	r2,r2,1
   21528:	8c400044 	addi	r17,r17,1
   2152c:	80c00015 	stw	r3,0(r16)
   21530:	00c00044 	movi	r3,1
   21534:	d8801d15 	stw	r2,116(sp)
   21538:	80c00115 	stw	r3,4(r16)
   2153c:	dc401e15 	stw	r17,120(sp)
   21540:	10800208 	cmpgei	r2,r2,8
   21544:	1003aa1e 	bne	r2,zero,223f0 <___vfprintf_internal_r+0x1a88>
   21548:	84000204 	addi	r16,r16,8
   2154c:	d8801617 	ldw	r2,88(sp)
   21550:	d8c00917 	ldw	r3,36(sp)
   21554:	10c2310e 	bge	r2,r3,21e1c <___vfprintf_internal_r+0x14b4>
   21558:	d8800d17 	ldw	r2,52(sp)
   2155c:	d8c00c17 	ldw	r3,48(sp)
   21560:	80800015 	stw	r2,0(r16)
   21564:	d8801d17 	ldw	r2,116(sp)
   21568:	88e3883a 	add	r17,r17,r3
   2156c:	80c00115 	stw	r3,4(r16)
   21570:	10800044 	addi	r2,r2,1
   21574:	d8801d15 	stw	r2,116(sp)
   21578:	dc401e15 	stw	r17,120(sp)
   2157c:	10800208 	cmpgei	r2,r2,8
   21580:	10024c1e 	bne	r2,zero,21eb4 <___vfprintf_internal_r+0x154c>
   21584:	84000204 	addi	r16,r16,8
   21588:	d8800917 	ldw	r2,36(sp)
   2158c:	157fffc4 	addi	r21,r2,-1
   21590:	057df00e 	bge	zero,r21,20d54 <___vfprintf_internal_r+0x3ec>
   21594:	030000f4 	movhi	r12,3
   21598:	a8c00450 	cmplti	r3,r21,17
   2159c:	d8801d17 	ldw	r2,116(sp)
   215a0:	63012504 	addi	r12,r12,1172
   215a4:	18012d1e 	bne	r3,zero,21a5c <___vfprintf_internal_r+0x10f4>
   215a8:	8007883a 	mov	r3,r16
   215ac:	8809883a 	mov	r4,r17
   215b0:	a821883a 	mov	r16,r21
   215b4:	05800404 	movi	r22,16
   215b8:	a02b883a 	mov	r21,r20
   215bc:	4023883a 	mov	r17,r8
   215c0:	9829883a 	mov	r20,r19
   215c4:	6039883a 	mov	fp,r12
   215c8:	5827883a 	mov	r19,r11
   215cc:	00000406 	br	215e0 <___vfprintf_internal_r+0xc78>
   215d0:	18c00204 	addi	r3,r3,8
   215d4:	843ffc04 	addi	r16,r16,-16
   215d8:	81400448 	cmpgei	r5,r16,17
   215dc:	28011726 	beq	r5,zero,21a3c <___vfprintf_internal_r+0x10d4>
   215e0:	10800044 	addi	r2,r2,1
   215e4:	21000404 	addi	r4,r4,16
   215e8:	1f000015 	stw	fp,0(r3)
   215ec:	1d800115 	stw	r22,4(r3)
   215f0:	d9001e15 	stw	r4,120(sp)
   215f4:	d8801d15 	stw	r2,116(sp)
   215f8:	11400208 	cmpgei	r5,r2,8
   215fc:	283ff426 	beq	r5,zero,215d0 <___vfprintf_internal_r+0xc68>
   21600:	d9400417 	ldw	r5,16(sp)
   21604:	d9000517 	ldw	r4,20(sp)
   21608:	d9801c04 	addi	r6,sp,112
   2160c:	0022ec00 	call	22ec0 <__sprint_r>
   21610:	103de01e 	bne	r2,zero,20d94 <___vfprintf_internal_r+0x42c>
   21614:	d9001e17 	ldw	r4,120(sp)
   21618:	d8801d17 	ldw	r2,116(sp)
   2161c:	9007883a 	mov	r3,r18
   21620:	003fec06 	br	215d4 <___vfprintf_internal_r+0xc6c>
   21624:	42c7c83a 	sub	r3,r8,r11
   21628:	00fdbc0e 	bge	zero,r3,20d1c <___vfprintf_internal_r+0x3b4>
   2162c:	030000f4 	movhi	r12,3
   21630:	19000450 	cmplti	r4,r3,17
   21634:	d8801d17 	ldw	r2,116(sp)
   21638:	63012504 	addi	r12,r12,1172
   2163c:	2000281e 	bne	r4,zero,216e0 <___vfprintf_internal_r+0xd78>
   21640:	8009883a 	mov	r4,r16
   21644:	880b883a 	mov	r5,r17
   21648:	03400404 	movi	r13,16
   2164c:	da400f15 	stw	r9,60(sp)
   21650:	da001015 	stw	r8,64(sp)
   21654:	1821883a 	mov	r16,r3
   21658:	dac01215 	stw	r11,72(sp)
   2165c:	6023883a 	mov	r17,r12
   21660:	00000406 	br	21674 <___vfprintf_internal_r+0xd0c>
   21664:	843ffc04 	addi	r16,r16,-16
   21668:	81800448 	cmpgei	r6,r16,17
   2166c:	21000204 	addi	r4,r4,8
   21670:	30001426 	beq	r6,zero,216c4 <___vfprintf_internal_r+0xd5c>
   21674:	10800044 	addi	r2,r2,1
   21678:	29400404 	addi	r5,r5,16
   2167c:	24400015 	stw	r17,0(r4)
   21680:	23400115 	stw	r13,4(r4)
   21684:	d9401e15 	stw	r5,120(sp)
   21688:	d8801d15 	stw	r2,116(sp)
   2168c:	11800208 	cmpgei	r6,r2,8
   21690:	303ff426 	beq	r6,zero,21664 <___vfprintf_internal_r+0xcfc>
   21694:	d9400417 	ldw	r5,16(sp)
   21698:	d9000517 	ldw	r4,20(sp)
   2169c:	d9801c04 	addi	r6,sp,112
   216a0:	0022ec00 	call	22ec0 <__sprint_r>
   216a4:	103dbb1e 	bne	r2,zero,20d94 <___vfprintf_internal_r+0x42c>
   216a8:	843ffc04 	addi	r16,r16,-16
   216ac:	81800448 	cmpgei	r6,r16,17
   216b0:	d9401e17 	ldw	r5,120(sp)
   216b4:	d8801d17 	ldw	r2,116(sp)
   216b8:	9009883a 	mov	r4,r18
   216bc:	03400404 	movi	r13,16
   216c0:	303fec1e 	bne	r6,zero,21674 <___vfprintf_internal_r+0xd0c>
   216c4:	da400f17 	ldw	r9,60(sp)
   216c8:	da001017 	ldw	r8,64(sp)
   216cc:	dac01217 	ldw	r11,72(sp)
   216d0:	8007883a 	mov	r3,r16
   216d4:	8819883a 	mov	r12,r17
   216d8:	2021883a 	mov	r16,r4
   216dc:	2823883a 	mov	r17,r5
   216e0:	10800044 	addi	r2,r2,1
   216e4:	88e3883a 	add	r17,r17,r3
   216e8:	d8801d15 	stw	r2,116(sp)
   216ec:	83000015 	stw	r12,0(r16)
   216f0:	80c00115 	stw	r3,4(r16)
   216f4:	dc401e15 	stw	r17,120(sp)
   216f8:	10800208 	cmpgei	r2,r2,8
   216fc:	1003581e 	bne	r2,zero,22460 <___vfprintf_internal_r+0x1af8>
   21700:	af2bc83a 	sub	r21,r21,fp
   21704:	84000204 	addi	r16,r16,8
   21708:	057d860e 	bge	zero,r21,20d24 <___vfprintf_internal_r+0x3bc>
   2170c:	a8c00450 	cmplti	r3,r21,17
   21710:	d8801d17 	ldw	r2,116(sp)
   21714:	18039d1e 	bne	r3,zero,2258c <___vfprintf_internal_r+0x1c24>
   21718:	8009883a 	mov	r4,r16
   2171c:	880b883a 	mov	r5,r17
   21720:	a821883a 	mov	r16,r21
   21724:	a023883a 	mov	r17,r20
   21728:	a02b883a 	mov	r21,r20
   2172c:	00c00404 	movi	r3,16
   21730:	9829883a 	mov	r20,r19
   21734:	da400f15 	stw	r9,60(sp)
   21738:	da001015 	stw	r8,64(sp)
   2173c:	5827883a 	mov	r19,r11
   21740:	00000406 	br	21754 <___vfprintf_internal_r+0xdec>
   21744:	843ffc04 	addi	r16,r16,-16
   21748:	81800448 	cmpgei	r6,r16,17
   2174c:	21000204 	addi	r4,r4,8
   21750:	30001426 	beq	r6,zero,217a4 <___vfprintf_internal_r+0xe3c>
   21754:	10800044 	addi	r2,r2,1
   21758:	29400404 	addi	r5,r5,16
   2175c:	24400015 	stw	r17,0(r4)
   21760:	20c00115 	stw	r3,4(r4)
   21764:	d9401e15 	stw	r5,120(sp)
   21768:	d8801d15 	stw	r2,116(sp)
   2176c:	11800208 	cmpgei	r6,r2,8
   21770:	303ff426 	beq	r6,zero,21744 <___vfprintf_internal_r+0xddc>
   21774:	d9400417 	ldw	r5,16(sp)
   21778:	d9000517 	ldw	r4,20(sp)
   2177c:	d9801c04 	addi	r6,sp,112
   21780:	0022ec00 	call	22ec0 <__sprint_r>
   21784:	103d831e 	bne	r2,zero,20d94 <___vfprintf_internal_r+0x42c>
   21788:	843ffc04 	addi	r16,r16,-16
   2178c:	81800448 	cmpgei	r6,r16,17
   21790:	d9401e17 	ldw	r5,120(sp)
   21794:	d8801d17 	ldw	r2,116(sp)
   21798:	9009883a 	mov	r4,r18
   2179c:	00c00404 	movi	r3,16
   217a0:	303fec1e 	bne	r6,zero,21754 <___vfprintf_internal_r+0xdec>
   217a4:	da400f17 	ldw	r9,60(sp)
   217a8:	da001017 	ldw	r8,64(sp)
   217ac:	9817883a 	mov	r11,r19
   217b0:	a819883a 	mov	r12,r21
   217b4:	a027883a 	mov	r19,r20
   217b8:	802b883a 	mov	r21,r16
   217bc:	8829883a 	mov	r20,r17
   217c0:	2021883a 	mov	r16,r4
   217c4:	2823883a 	mov	r17,r5
   217c8:	10800044 	addi	r2,r2,1
   217cc:	8d63883a 	add	r17,r17,r21
   217d0:	d8801d15 	stw	r2,116(sp)
   217d4:	83000015 	stw	r12,0(r16)
   217d8:	85400115 	stw	r21,4(r16)
   217dc:	dc401e15 	stw	r17,120(sp)
   217e0:	10800208 	cmpgei	r2,r2,8
   217e4:	1001731e 	bne	r2,zero,21db4 <___vfprintf_internal_r+0x144c>
   217e8:	84000204 	addi	r16,r16,8
   217ec:	003d4d06 	br	20d24 <___vfprintf_internal_r+0x3bc>
   217f0:	10c00060 	cmpeqi	r3,r2,1
   217f4:	b819883a 	mov	r12,r23
   217f8:	0023883a 	mov	r17,zero
   217fc:	183eb31e 	bne	r3,zero,212cc <___vfprintf_internal_r+0x964>
   21800:	108000a0 	cmpeqi	r2,r2,2
   21804:	0039883a 	mov	fp,zero
   21808:	103dc926 	beq	r2,zero,20f30 <___vfprintf_internal_r+0x5c8>
   2180c:	d9400e17 	ldw	r5,56(sp)
   21810:	902d883a 	mov	r22,r18
   21814:	888003cc 	andi	r2,r17,15
   21818:	e006973a 	slli	r3,fp,28
   2181c:	8822d13a 	srli	r17,r17,4
   21820:	2885883a 	add	r2,r5,r2
   21824:	10800003 	ldbu	r2,0(r2)
   21828:	e038d13a 	srli	fp,fp,4
   2182c:	1c62b03a 	or	r17,r3,r17
   21830:	b0bfffc5 	stb	r2,-1(r22)
   21834:	8f04b03a 	or	r2,r17,fp
   21838:	b5bfffc4 	addi	r22,r22,-1
   2183c:	103ff51e 	bne	r2,zero,21814 <___vfprintf_internal_r+0xeac>
   21840:	95b9c83a 	sub	fp,r18,r22
   21844:	602f883a 	mov	r23,r12
   21848:	003dcf06 	br	20f88 <___vfprintf_internal_r+0x620>
   2184c:	d9400417 	ldw	r5,16(sp)
   21850:	d9000517 	ldw	r4,20(sp)
   21854:	d9801c04 	addi	r6,sp,112
   21858:	0022ec00 	call	22ec0 <__sprint_r>
   2185c:	103d4726 	beq	r2,zero,20d7c <___vfprintf_internal_r+0x414>
   21860:	003d4c06 	br	20d94 <___vfprintf_internal_r+0x42c>
   21864:	d8800917 	ldw	r2,36(sp)
   21868:	dd401d17 	ldw	r21,116(sp)
   2186c:	8c400044 	addi	r17,r17,1
   21870:	10800088 	cmpgei	r2,r2,2
   21874:	ad400044 	addi	r21,r21,1
   21878:	87000204 	addi	fp,r16,8
   2187c:	10011026 	beq	r2,zero,21cc0 <___vfprintf_internal_r+0x1358>
   21880:	00800044 	movi	r2,1
   21884:	80800115 	stw	r2,4(r16)
   21888:	85800015 	stw	r22,0(r16)
   2188c:	dc401e15 	stw	r17,120(sp)
   21890:	dd401d15 	stw	r21,116(sp)
   21894:	a8800210 	cmplti	r2,r21,8
   21898:	10021e26 	beq	r2,zero,22114 <___vfprintf_internal_r+0x17ac>
   2189c:	d8800c17 	ldw	r2,48(sp)
   218a0:	d8c00d17 	ldw	r3,52(sp)
   218a4:	ad400044 	addi	r21,r21,1
   218a8:	88a3883a 	add	r17,r17,r2
   218ac:	e0800115 	stw	r2,4(fp)
   218b0:	e0c00015 	stw	r3,0(fp)
   218b4:	dc401e15 	stw	r17,120(sp)
   218b8:	dd401d15 	stw	r21,116(sp)
   218bc:	a8800208 	cmpgei	r2,r21,8
   218c0:	1002211e 	bne	r2,zero,22148 <___vfprintf_internal_r+0x17e0>
   218c4:	e7000204 	addi	fp,fp,8
   218c8:	d9000a17 	ldw	r4,40(sp)
   218cc:	d9400b17 	ldw	r5,44(sp)
   218d0:	000d883a 	mov	r6,zero
   218d4:	000f883a 	mov	r7,zero
   218d8:	dac00f15 	stw	r11,60(sp)
   218dc:	da000815 	stw	r8,32(sp)
   218e0:	002c6940 	call	2c694 <__eqdf2>
   218e4:	d8c00917 	ldw	r3,36(sp)
   218e8:	da000817 	ldw	r8,32(sp)
   218ec:	dac00f17 	ldw	r11,60(sp)
   218f0:	1c3fffc4 	addi	r16,r3,-1
   218f4:	10010826 	beq	r2,zero,21d18 <___vfprintf_internal_r+0x13b0>
   218f8:	b5800044 	addi	r22,r22,1
   218fc:	ad400044 	addi	r21,r21,1
   21900:	8c23883a 	add	r17,r17,r16
   21904:	e5800015 	stw	r22,0(fp)
   21908:	e4000115 	stw	r16,4(fp)
   2190c:	dc401e15 	stw	r17,120(sp)
   21910:	dd401d15 	stw	r21,116(sp)
   21914:	a8800208 	cmpgei	r2,r21,8
   21918:	1002c11e 	bne	r2,zero,22420 <___vfprintf_internal_r+0x1ab8>
   2191c:	e7000204 	addi	fp,fp,8
   21920:	d8c01117 	ldw	r3,68(sp)
   21924:	ad400044 	addi	r21,r21,1
   21928:	d8801804 	addi	r2,sp,96
   2192c:	1c63883a 	add	r17,r3,r17
   21930:	dd401d15 	stw	r21,116(sp)
   21934:	e0800015 	stw	r2,0(fp)
   21938:	e0c00115 	stw	r3,4(fp)
   2193c:	dc401e15 	stw	r17,120(sp)
   21940:	ad400208 	cmpgei	r21,r21,8
   21944:	a801291e 	bne	r21,zero,21dec <___vfprintf_internal_r+0x1484>
   21948:	e4000204 	addi	r16,fp,8
   2194c:	003d0106 	br	20d54 <___vfprintf_internal_r+0x3ec>
   21950:	030000f4 	movhi	r12,3
   21954:	19000450 	cmplti	r4,r3,17
   21958:	d8801d17 	ldw	r2,116(sp)
   2195c:	63012904 	addi	r12,r12,1188
   21960:	20002c1e 	bne	r4,zero,21a14 <___vfprintf_internal_r+0x10ac>
   21964:	8009883a 	mov	r4,r16
   21968:	880b883a 	mov	r5,r17
   2196c:	03c00404 	movi	r15,16
   21970:	db800f15 	stw	r14,60(sp)
   21974:	db401015 	stw	r13,64(sp)
   21978:	da401215 	stw	r9,72(sp)
   2197c:	da001315 	stw	r8,76(sp)
   21980:	1821883a 	mov	r16,r3
   21984:	dac01415 	stw	r11,80(sp)
   21988:	6023883a 	mov	r17,r12
   2198c:	00000406 	br	219a0 <___vfprintf_internal_r+0x1038>
   21990:	843ffc04 	addi	r16,r16,-16
   21994:	81800448 	cmpgei	r6,r16,17
   21998:	21000204 	addi	r4,r4,8
   2199c:	30001426 	beq	r6,zero,219f0 <___vfprintf_internal_r+0x1088>
   219a0:	10800044 	addi	r2,r2,1
   219a4:	29400404 	addi	r5,r5,16
   219a8:	24400015 	stw	r17,0(r4)
   219ac:	23c00115 	stw	r15,4(r4)
   219b0:	d9401e15 	stw	r5,120(sp)
   219b4:	d8801d15 	stw	r2,116(sp)
   219b8:	11800208 	cmpgei	r6,r2,8
   219bc:	303ff426 	beq	r6,zero,21990 <___vfprintf_internal_r+0x1028>
   219c0:	d9400417 	ldw	r5,16(sp)
   219c4:	d9000517 	ldw	r4,20(sp)
   219c8:	d9801c04 	addi	r6,sp,112
   219cc:	0022ec00 	call	22ec0 <__sprint_r>
   219d0:	103cf01e 	bne	r2,zero,20d94 <___vfprintf_internal_r+0x42c>
   219d4:	843ffc04 	addi	r16,r16,-16
   219d8:	81800448 	cmpgei	r6,r16,17
   219dc:	d9401e17 	ldw	r5,120(sp)
   219e0:	d8801d17 	ldw	r2,116(sp)
   219e4:	9009883a 	mov	r4,r18
   219e8:	03c00404 	movi	r15,16
   219ec:	303fec1e 	bne	r6,zero,219a0 <___vfprintf_internal_r+0x1038>
   219f0:	db800f17 	ldw	r14,60(sp)
   219f4:	db401017 	ldw	r13,64(sp)
   219f8:	da401217 	ldw	r9,72(sp)
   219fc:	da001317 	ldw	r8,76(sp)
   21a00:	dac01417 	ldw	r11,80(sp)
   21a04:	8007883a 	mov	r3,r16
   21a08:	8819883a 	mov	r12,r17
   21a0c:	2021883a 	mov	r16,r4
   21a10:	2823883a 	mov	r17,r5
   21a14:	10800044 	addi	r2,r2,1
   21a18:	88e3883a 	add	r17,r17,r3
   21a1c:	d8801d15 	stw	r2,116(sp)
   21a20:	83000015 	stw	r12,0(r16)
   21a24:	80c00115 	stw	r3,4(r16)
   21a28:	dc401e15 	stw	r17,120(sp)
   21a2c:	10800208 	cmpgei	r2,r2,8
   21a30:	1001fa1e 	bne	r2,zero,2221c <___vfprintf_internal_r+0x18b4>
   21a34:	84000204 	addi	r16,r16,8
   21a38:	003c9b06 	br	20ca8 <___vfprintf_internal_r+0x340>
   21a3c:	8811883a 	mov	r8,r17
   21a40:	9817883a 	mov	r11,r19
   21a44:	2023883a 	mov	r17,r4
   21a48:	a027883a 	mov	r19,r20
   21a4c:	e019883a 	mov	r12,fp
   21a50:	a829883a 	mov	r20,r21
   21a54:	802b883a 	mov	r21,r16
   21a58:	1821883a 	mov	r16,r3
   21a5c:	10800044 	addi	r2,r2,1
   21a60:	83000015 	stw	r12,0(r16)
   21a64:	85400115 	stw	r21,4(r16)
   21a68:	8d63883a 	add	r17,r17,r21
   21a6c:	d8801d15 	stw	r2,116(sp)
   21a70:	dc401e15 	stw	r17,120(sp)
   21a74:	10800208 	cmpgei	r2,r2,8
   21a78:	103cb526 	beq	r2,zero,20d50 <___vfprintf_internal_r+0x3e8>
   21a7c:	d9400417 	ldw	r5,16(sp)
   21a80:	d9000517 	ldw	r4,20(sp)
   21a84:	d9801c04 	addi	r6,sp,112
   21a88:	dac00f15 	stw	r11,60(sp)
   21a8c:	da000815 	stw	r8,32(sp)
   21a90:	0022ec00 	call	22ec0 <__sprint_r>
   21a94:	103cbf1e 	bne	r2,zero,20d94 <___vfprintf_internal_r+0x42c>
   21a98:	dc401e17 	ldw	r17,120(sp)
   21a9c:	da000817 	ldw	r8,32(sp)
   21aa0:	dac00f17 	ldw	r11,60(sp)
   21aa4:	9021883a 	mov	r16,r18
   21aa8:	003caa06 	br	20d54 <___vfprintf_internal_r+0x3ec>
   21aac:	d9400417 	ldw	r5,16(sp)
   21ab0:	d9000517 	ldw	r4,20(sp)
   21ab4:	d9801c04 	addi	r6,sp,112
   21ab8:	dac01415 	stw	r11,80(sp)
   21abc:	da001315 	stw	r8,76(sp)
   21ac0:	da401215 	stw	r9,72(sp)
   21ac4:	db401015 	stw	r13,64(sp)
   21ac8:	db800f15 	stw	r14,60(sp)
   21acc:	0022ec00 	call	22ec0 <__sprint_r>
   21ad0:	103cb01e 	bne	r2,zero,20d94 <___vfprintf_internal_r+0x42c>
   21ad4:	dc401e17 	ldw	r17,120(sp)
   21ad8:	dac01417 	ldw	r11,80(sp)
   21adc:	da001317 	ldw	r8,76(sp)
   21ae0:	da401217 	ldw	r9,72(sp)
   21ae4:	db401017 	ldw	r13,64(sp)
   21ae8:	db800f17 	ldw	r14,60(sp)
   21aec:	9021883a 	mov	r16,r18
   21af0:	003c7b06 	br	20ce0 <___vfprintf_internal_r+0x378>
   21af4:	d9400417 	ldw	r5,16(sp)
   21af8:	d9000517 	ldw	r4,20(sp)
   21afc:	d9801c04 	addi	r6,sp,112
   21b00:	dac01315 	stw	r11,76(sp)
   21b04:	da001215 	stw	r8,72(sp)
   21b08:	da401015 	stw	r9,64(sp)
   21b0c:	db400f15 	stw	r13,60(sp)
   21b10:	0022ec00 	call	22ec0 <__sprint_r>
   21b14:	103c9f1e 	bne	r2,zero,20d94 <___vfprintf_internal_r+0x42c>
   21b18:	dc401e17 	ldw	r17,120(sp)
   21b1c:	dac01317 	ldw	r11,76(sp)
   21b20:	da001217 	ldw	r8,72(sp)
   21b24:	da401017 	ldw	r9,64(sp)
   21b28:	db400f17 	ldw	r13,60(sp)
   21b2c:	9021883a 	mov	r16,r18
   21b30:	003c7806 	br	20d14 <___vfprintf_internal_r+0x3ac>
   21b34:	dd401617 	ldw	r21,88(sp)
   21b38:	0541900e 	bge	zero,r21,2217c <___vfprintf_internal_r+0x1814>
   21b3c:	d8800917 	ldw	r2,36(sp)
   21b40:	d8c00817 	ldw	r3,32(sp)
   21b44:	102b883a 	mov	r21,r2
   21b48:	1880cc16 	blt	r3,r2,21e7c <___vfprintf_internal_r+0x1514>
   21b4c:	05400a0e 	bge	zero,r21,21b78 <___vfprintf_internal_r+0x1210>
   21b50:	d8801d17 	ldw	r2,116(sp)
   21b54:	8d63883a 	add	r17,r17,r21
   21b58:	85800015 	stw	r22,0(r16)
   21b5c:	10800044 	addi	r2,r2,1
   21b60:	d8801d15 	stw	r2,116(sp)
   21b64:	85400115 	stw	r21,4(r16)
   21b68:	dc401e15 	stw	r17,120(sp)
   21b6c:	10800208 	cmpgei	r2,r2,8
   21b70:	10038a1e 	bne	r2,zero,2299c <___vfprintf_internal_r+0x2034>
   21b74:	84000204 	addi	r16,r16,8
   21b78:	a800cc16 	blt	r21,zero,21eac <___vfprintf_internal_r+0x1544>
   21b7c:	d8800817 	ldw	r2,32(sp)
   21b80:	156bc83a 	sub	r21,r2,r21
   21b84:	0540f716 	blt	zero,r21,21f64 <___vfprintf_internal_r+0x15fc>
   21b88:	d8801617 	ldw	r2,88(sp)
   21b8c:	d8c00917 	ldw	r3,36(sp)
   21b90:	10c0bd0e 	bge	r2,r3,21e88 <___vfprintf_internal_r+0x1520>
   21b94:	d8c00d17 	ldw	r3,52(sp)
   21b98:	d9000c17 	ldw	r4,48(sp)
   21b9c:	80c00015 	stw	r3,0(r16)
   21ba0:	d8c01d17 	ldw	r3,116(sp)
   21ba4:	8923883a 	add	r17,r17,r4
   21ba8:	81000115 	stw	r4,4(r16)
   21bac:	18c00044 	addi	r3,r3,1
   21bb0:	d8c01d15 	stw	r3,116(sp)
   21bb4:	dc401e15 	stw	r17,120(sp)
   21bb8:	18c00208 	cmpgei	r3,r3,8
   21bbc:	18035e1e 	bne	r3,zero,22938 <___vfprintf_internal_r+0x1fd0>
   21bc0:	84000204 	addi	r16,r16,8
   21bc4:	d8c00917 	ldw	r3,36(sp)
   21bc8:	d9000817 	ldw	r4,32(sp)
   21bcc:	1885c83a 	sub	r2,r3,r2
   21bd0:	192bc83a 	sub	r21,r3,r4
   21bd4:	1540010e 	bge	r2,r21,21bdc <___vfprintf_internal_r+0x1274>
   21bd8:	102b883a 	mov	r21,r2
   21bdc:	05400c0e 	bge	zero,r21,21c10 <___vfprintf_internal_r+0x12a8>
   21be0:	d8c00817 	ldw	r3,32(sp)
   21be4:	8d63883a 	add	r17,r17,r21
   21be8:	85400115 	stw	r21,4(r16)
   21bec:	b0ed883a 	add	r22,r22,r3
   21bf0:	d8c01d17 	ldw	r3,116(sp)
   21bf4:	85800015 	stw	r22,0(r16)
   21bf8:	dc401e15 	stw	r17,120(sp)
   21bfc:	18c00044 	addi	r3,r3,1
   21c00:	d8c01d15 	stw	r3,116(sp)
   21c04:	18c00208 	cmpgei	r3,r3,8
   21c08:	1803731e 	bne	r3,zero,229d8 <___vfprintf_internal_r+0x2070>
   21c0c:	84000204 	addi	r16,r16,8
   21c10:	a800010e 	bge	r21,zero,21c18 <___vfprintf_internal_r+0x12b0>
   21c14:	002b883a 	mov	r21,zero
   21c18:	156bc83a 	sub	r21,r2,r21
   21c1c:	057c4d0e 	bge	zero,r21,20d54 <___vfprintf_internal_r+0x3ec>
   21c20:	030000f4 	movhi	r12,3
   21c24:	a8c00450 	cmplti	r3,r21,17
   21c28:	d8801d17 	ldw	r2,116(sp)
   21c2c:	63012504 	addi	r12,r12,1172
   21c30:	183f8a1e 	bne	r3,zero,21a5c <___vfprintf_internal_r+0x10f4>
   21c34:	8007883a 	mov	r3,r16
   21c38:	8809883a 	mov	r4,r17
   21c3c:	a821883a 	mov	r16,r21
   21c40:	df000517 	ldw	fp,20(sp)
   21c44:	a02b883a 	mov	r21,r20
   21c48:	05800404 	movi	r22,16
   21c4c:	9829883a 	mov	r20,r19
   21c50:	da000815 	stw	r8,32(sp)
   21c54:	6023883a 	mov	r17,r12
   21c58:	5827883a 	mov	r19,r11
   21c5c:	00000406 	br	21c70 <___vfprintf_internal_r+0x1308>
   21c60:	18c00204 	addi	r3,r3,8
   21c64:	843ffc04 	addi	r16,r16,-16
   21c68:	81400448 	cmpgei	r5,r16,17
   21c6c:	28033f26 	beq	r5,zero,2296c <___vfprintf_internal_r+0x2004>
   21c70:	10800044 	addi	r2,r2,1
   21c74:	21000404 	addi	r4,r4,16
   21c78:	1c400015 	stw	r17,0(r3)
   21c7c:	1d800115 	stw	r22,4(r3)
   21c80:	d9001e15 	stw	r4,120(sp)
   21c84:	d8801d15 	stw	r2,116(sp)
   21c88:	11400208 	cmpgei	r5,r2,8
   21c8c:	283ff426 	beq	r5,zero,21c60 <___vfprintf_internal_r+0x12f8>
   21c90:	d9400417 	ldw	r5,16(sp)
   21c94:	d9801c04 	addi	r6,sp,112
   21c98:	e009883a 	mov	r4,fp
   21c9c:	0022ec00 	call	22ec0 <__sprint_r>
   21ca0:	103c3c1e 	bne	r2,zero,20d94 <___vfprintf_internal_r+0x42c>
   21ca4:	d9001e17 	ldw	r4,120(sp)
   21ca8:	d8801d17 	ldw	r2,116(sp)
   21cac:	9007883a 	mov	r3,r18
   21cb0:	003fec06 	br	21c64 <___vfprintf_internal_r+0x12fc>
   21cb4:	0039883a 	mov	fp,zero
   21cb8:	902d883a 	mov	r22,r18
   21cbc:	003cb206 	br	20f88 <___vfprintf_internal_r+0x620>
   21cc0:	b880004c 	andi	r2,r23,1
   21cc4:	103eee1e 	bne	r2,zero,21880 <___vfprintf_internal_r+0xf18>
   21cc8:	00800044 	movi	r2,1
   21ccc:	80800115 	stw	r2,4(r16)
   21cd0:	85800015 	stw	r22,0(r16)
   21cd4:	dc401e15 	stw	r17,120(sp)
   21cd8:	dd401d15 	stw	r21,116(sp)
   21cdc:	a8800210 	cmplti	r2,r21,8
   21ce0:	103f0f1e 	bne	r2,zero,21920 <___vfprintf_internal_r+0xfb8>
   21ce4:	d9400417 	ldw	r5,16(sp)
   21ce8:	d9000517 	ldw	r4,20(sp)
   21cec:	d9801c04 	addi	r6,sp,112
   21cf0:	dac00f15 	stw	r11,60(sp)
   21cf4:	da000815 	stw	r8,32(sp)
   21cf8:	0022ec00 	call	22ec0 <__sprint_r>
   21cfc:	103c251e 	bne	r2,zero,20d94 <___vfprintf_internal_r+0x42c>
   21d00:	dc401e17 	ldw	r17,120(sp)
   21d04:	dd401d17 	ldw	r21,116(sp)
   21d08:	dac00f17 	ldw	r11,60(sp)
   21d0c:	da000817 	ldw	r8,32(sp)
   21d10:	9039883a 	mov	fp,r18
   21d14:	003f0206 	br	21920 <___vfprintf_internal_r+0xfb8>
   21d18:	d8800917 	ldw	r2,36(sp)
   21d1c:	10800090 	cmplti	r2,r2,2
   21d20:	103eff1e 	bne	r2,zero,21920 <___vfprintf_internal_r+0xfb8>
   21d24:	d8800917 	ldw	r2,36(sp)
   21d28:	030000f4 	movhi	r12,3
   21d2c:	63012504 	addi	r12,r12,1172
   21d30:	10800490 	cmplti	r2,r2,18
   21d34:	10020e1e 	bne	r2,zero,22570 <___vfprintf_internal_r+0x1c08>
   21d38:	8809883a 	mov	r4,r17
   21d3c:	a805883a 	mov	r2,r21
   21d40:	e007883a 	mov	r3,fp
   21d44:	982b883a 	mov	r21,r19
   21d48:	a039883a 	mov	fp,r20
   21d4c:	05800404 	movi	r22,16
   21d50:	4027883a 	mov	r19,r8
   21d54:	6023883a 	mov	r17,r12
   21d58:	5829883a 	mov	r20,r11
   21d5c:	00000406 	br	21d70 <___vfprintf_internal_r+0x1408>
   21d60:	18c00204 	addi	r3,r3,8
   21d64:	843ffc04 	addi	r16,r16,-16
   21d68:	81400448 	cmpgei	r5,r16,17
   21d6c:	2801f826 	beq	r5,zero,22550 <___vfprintf_internal_r+0x1be8>
   21d70:	10800044 	addi	r2,r2,1
   21d74:	21000404 	addi	r4,r4,16
   21d78:	1c400015 	stw	r17,0(r3)
   21d7c:	1d800115 	stw	r22,4(r3)
   21d80:	d9001e15 	stw	r4,120(sp)
   21d84:	d8801d15 	stw	r2,116(sp)
   21d88:	11400208 	cmpgei	r5,r2,8
   21d8c:	283ff426 	beq	r5,zero,21d60 <___vfprintf_internal_r+0x13f8>
   21d90:	d9400417 	ldw	r5,16(sp)
   21d94:	d9000517 	ldw	r4,20(sp)
   21d98:	d9801c04 	addi	r6,sp,112
   21d9c:	0022ec00 	call	22ec0 <__sprint_r>
   21da0:	103bfc1e 	bne	r2,zero,20d94 <___vfprintf_internal_r+0x42c>
   21da4:	d9001e17 	ldw	r4,120(sp)
   21da8:	d8801d17 	ldw	r2,116(sp)
   21dac:	9007883a 	mov	r3,r18
   21db0:	003fec06 	br	21d64 <___vfprintf_internal_r+0x13fc>
   21db4:	d9400417 	ldw	r5,16(sp)
   21db8:	d9000517 	ldw	r4,20(sp)
   21dbc:	d9801c04 	addi	r6,sp,112
   21dc0:	dac01215 	stw	r11,72(sp)
   21dc4:	da001015 	stw	r8,64(sp)
   21dc8:	da400f15 	stw	r9,60(sp)
   21dcc:	0022ec00 	call	22ec0 <__sprint_r>
   21dd0:	103bf01e 	bne	r2,zero,20d94 <___vfprintf_internal_r+0x42c>
   21dd4:	dc401e17 	ldw	r17,120(sp)
   21dd8:	dac01217 	ldw	r11,72(sp)
   21ddc:	da001017 	ldw	r8,64(sp)
   21de0:	da400f17 	ldw	r9,60(sp)
   21de4:	9021883a 	mov	r16,r18
   21de8:	003bce06 	br	20d24 <___vfprintf_internal_r+0x3bc>
   21dec:	d9400417 	ldw	r5,16(sp)
   21df0:	d9000517 	ldw	r4,20(sp)
   21df4:	d9801c04 	addi	r6,sp,112
   21df8:	dac00f15 	stw	r11,60(sp)
   21dfc:	da000815 	stw	r8,32(sp)
   21e00:	0022ec00 	call	22ec0 <__sprint_r>
   21e04:	103be31e 	bne	r2,zero,20d94 <___vfprintf_internal_r+0x42c>
   21e08:	dc401e17 	ldw	r17,120(sp)
   21e0c:	dac00f17 	ldw	r11,60(sp)
   21e10:	da000817 	ldw	r8,32(sp)
   21e14:	9021883a 	mov	r16,r18
   21e18:	003bce06 	br	20d54 <___vfprintf_internal_r+0x3ec>
   21e1c:	b880004c 	andi	r2,r23,1
   21e20:	103bcc26 	beq	r2,zero,20d54 <___vfprintf_internal_r+0x3ec>
   21e24:	003dcc06 	br	21558 <___vfprintf_internal_r+0xbf0>
   21e28:	63000414 	ori	r12,r12,16
   21e2c:	003b1d06 	br	20aa4 <___vfprintf_internal_r+0x13c>
   21e30:	9a400007 	ldb	r9,0(r19)
   21e34:	d8800715 	stw	r2,28(sp)
   21e38:	003b1a06 	br	20aa4 <___vfprintf_internal_r+0x13c>
   21e3c:	902d883a 	mov	r22,r18
   21e40:	003c5106 	br	20f88 <___vfprintf_internal_r+0x620>
   21e44:	18800017 	ldw	r2,0(r3)
   21e48:	d8800a15 	stw	r2,40(sp)
   21e4c:	18800117 	ldw	r2,4(r3)
   21e50:	d8800b15 	stw	r2,44(sp)
   21e54:	003cb506 	br	2112c <___vfprintf_internal_r+0x7c4>
   21e58:	6080040c 	andi	r2,r12,16
   21e5c:	10008d1e 	bne	r2,zero,22094 <___vfprintf_internal_r+0x172c>
   21e60:	6300100c 	andi	r12,r12,64
   21e64:	60008b26 	beq	r12,zero,22094 <___vfprintf_internal_r+0x172c>
   21e68:	d8800717 	ldw	r2,28(sp)
   21e6c:	d8c00617 	ldw	r3,24(sp)
   21e70:	10800017 	ldw	r2,0(r2)
   21e74:	10c0000d 	sth	r3,0(r2)
   21e78:	003d9706 	br	214d8 <___vfprintf_internal_r+0xb70>
   21e7c:	182b883a 	mov	r21,r3
   21e80:	057f3316 	blt	zero,r21,21b50 <___vfprintf_internal_r+0x11e8>
   21e84:	003f3c06 	br	21b78 <___vfprintf_internal_r+0x1210>
   21e88:	b8c0004c 	andi	r3,r23,1
   21e8c:	183f411e 	bne	r3,zero,21b94 <___vfprintf_internal_r+0x122c>
   21e90:	d8c00917 	ldw	r3,36(sp)
   21e94:	d9000817 	ldw	r4,32(sp)
   21e98:	1885c83a 	sub	r2,r3,r2
   21e9c:	192bc83a 	sub	r21,r3,r4
   21ea0:	157f5b0e 	bge	r2,r21,21c10 <___vfprintf_internal_r+0x12a8>
   21ea4:	102b883a 	mov	r21,r2
   21ea8:	003f5906 	br	21c10 <___vfprintf_internal_r+0x12a8>
   21eac:	002b883a 	mov	r21,zero
   21eb0:	003f3206 	br	21b7c <___vfprintf_internal_r+0x1214>
   21eb4:	d9400417 	ldw	r5,16(sp)
   21eb8:	d9000517 	ldw	r4,20(sp)
   21ebc:	d9801c04 	addi	r6,sp,112
   21ec0:	dac00f15 	stw	r11,60(sp)
   21ec4:	da000815 	stw	r8,32(sp)
   21ec8:	0022ec00 	call	22ec0 <__sprint_r>
   21ecc:	103bb11e 	bne	r2,zero,20d94 <___vfprintf_internal_r+0x42c>
   21ed0:	dc401e17 	ldw	r17,120(sp)
   21ed4:	dac00f17 	ldw	r11,60(sp)
   21ed8:	da000817 	ldw	r8,32(sp)
   21edc:	9021883a 	mov	r16,r18
   21ee0:	003da906 	br	21588 <___vfprintf_internal_r+0xc20>
   21ee4:	008000f4 	movhi	r2,3
   21ee8:	10811804 	addi	r2,r2,1120
   21eec:	d8800e15 	stw	r2,56(sp)
   21ef0:	6080080c 	andi	r2,r12,32
   21ef4:	10007926 	beq	r2,zero,220dc <___vfprintf_internal_r+0x1774>
   21ef8:	d8800717 	ldw	r2,28(sp)
   21efc:	14400017 	ldw	r17,0(r2)
   21f00:	17000117 	ldw	fp,4(r2)
   21f04:	10800204 	addi	r2,r2,8
   21f08:	d8800715 	stw	r2,28(sp)
   21f0c:	6080004c 	andi	r2,r12,1
   21f10:	10007026 	beq	r2,zero,220d4 <___vfprintf_internal_r+0x176c>
   21f14:	8f04b03a 	or	r2,r17,fp
   21f18:	10006e26 	beq	r2,zero,220d4 <___vfprintf_internal_r+0x176c>
   21f1c:	00800c04 	movi	r2,48
   21f20:	d8801585 	stb	r2,86(sp)
   21f24:	da4015c5 	stb	r9,87(sp)
   21f28:	63000094 	ori	r12,r12,2
   21f2c:	00800084 	movi	r2,2
   21f30:	003bf206 	br	20efc <___vfprintf_internal_r+0x594>
   21f34:	008000f4 	movhi	r2,3
   21f38:	10811d04 	addi	r2,r2,1140
   21f3c:	d8800e15 	stw	r2,56(sp)
   21f40:	003feb06 	br	21ef0 <___vfprintf_internal_r+0x1588>
   21f44:	a88001f0 	cmpltui	r2,r21,7
   21f48:	a839883a 	mov	fp,r21
   21f4c:	1001b926 	beq	r2,zero,22634 <___vfprintf_internal_r+0x1ccc>
   21f50:	058000f4 	movhi	r22,3
   21f54:	e017883a 	mov	r11,fp
   21f58:	ddc00715 	stw	r23,28(sp)
   21f5c:	b5812204 	addi	r22,r22,1160
   21f60:	003b4606 	br	20c7c <___vfprintf_internal_r+0x314>
   21f64:	030000f4 	movhi	r12,3
   21f68:	a8c00450 	cmplti	r3,r21,17
   21f6c:	d8801d17 	ldw	r2,116(sp)
   21f70:	63012504 	addi	r12,r12,1172
   21f74:	1801901e 	bne	r3,zero,225b8 <___vfprintf_internal_r+0x1c50>
   21f78:	8007883a 	mov	r3,r16
   21f7c:	8809883a 	mov	r4,r17
   21f80:	a821883a 	mov	r16,r21
   21f84:	07000404 	movi	fp,16
   21f88:	a02b883a 	mov	r21,r20
   21f8c:	da000f15 	stw	r8,60(sp)
   21f90:	9829883a 	mov	r20,r19
   21f94:	6023883a 	mov	r17,r12
   21f98:	5827883a 	mov	r19,r11
   21f9c:	00000406 	br	21fb0 <___vfprintf_internal_r+0x1648>
   21fa0:	18c00204 	addi	r3,r3,8
   21fa4:	843ffc04 	addi	r16,r16,-16
   21fa8:	81400448 	cmpgei	r5,r16,17
   21fac:	28017a26 	beq	r5,zero,22598 <___vfprintf_internal_r+0x1c30>
   21fb0:	10800044 	addi	r2,r2,1
   21fb4:	21000404 	addi	r4,r4,16
   21fb8:	1c400015 	stw	r17,0(r3)
   21fbc:	1f000115 	stw	fp,4(r3)
   21fc0:	d9001e15 	stw	r4,120(sp)
   21fc4:	d8801d15 	stw	r2,116(sp)
   21fc8:	11400208 	cmpgei	r5,r2,8
   21fcc:	283ff426 	beq	r5,zero,21fa0 <___vfprintf_internal_r+0x1638>
   21fd0:	d9400417 	ldw	r5,16(sp)
   21fd4:	d9000517 	ldw	r4,20(sp)
   21fd8:	d9801c04 	addi	r6,sp,112
   21fdc:	0022ec00 	call	22ec0 <__sprint_r>
   21fe0:	103b6c1e 	bne	r2,zero,20d94 <___vfprintf_internal_r+0x42c>
   21fe4:	d9001e17 	ldw	r4,120(sp)
   21fe8:	d8801d17 	ldw	r2,116(sp)
   21fec:	9007883a 	mov	r3,r18
   21ff0:	003fec06 	br	21fa4 <___vfprintf_internal_r+0x163c>
   21ff4:	dc001015 	stw	r16,64(sp)
   21ff8:	982d883a 	mov	r22,r19
   21ffc:	482f883a 	mov	r23,r9
   22000:	e027883a 	mov	r19,fp
   22004:	db000815 	stw	r12,32(sp)
   22008:	a039883a 	mov	fp,r20
   2200c:	da000f15 	stw	r8,60(sp)
   22010:	9021883a 	mov	r16,r18
   22014:	2029883a 	mov	r20,r4
   22018:	8809883a 	mov	r4,r17
   2201c:	980b883a 	mov	r5,r19
   22020:	01800284 	movi	r6,10
   22024:	000f883a 	mov	r7,zero
   22028:	002af200 	call	2af20 <__umoddi3>
   2202c:	10800c04 	addi	r2,r2,48
   22030:	8809883a 	mov	r4,r17
   22034:	980b883a 	mov	r5,r19
   22038:	01800284 	movi	r6,10
   2203c:	000f883a 	mov	r7,zero
   22040:	80bfffc5 	stb	r2,-1(r16)
   22044:	002a9480 	call	2a948 <__udivdi3>
   22048:	980d883a 	mov	r6,r19
   2204c:	880f883a 	mov	r7,r17
   22050:	843fffc4 	addi	r16,r16,-1
   22054:	1023883a 	mov	r17,r2
   22058:	1827883a 	mov	r19,r3
   2205c:	303fee1e 	bne	r6,zero,22018 <___vfprintf_internal_r+0x16b0>
   22060:	39c002a8 	cmpgeui	r7,r7,10
   22064:	383fec1e 	bne	r7,zero,22018 <___vfprintf_internal_r+0x16b0>
   22068:	db000817 	ldw	r12,32(sp)
   2206c:	b027883a 	mov	r19,r22
   22070:	802d883a 	mov	r22,r16
   22074:	b813883a 	mov	r9,r23
   22078:	a009883a 	mov	r4,r20
   2207c:	da000f17 	ldw	r8,60(sp)
   22080:	e029883a 	mov	r20,fp
   22084:	dc001017 	ldw	r16,64(sp)
   22088:	95b9c83a 	sub	fp,r18,r22
   2208c:	602f883a 	mov	r23,r12
   22090:	003bbd06 	br	20f88 <___vfprintf_internal_r+0x620>
   22094:	d8800717 	ldw	r2,28(sp)
   22098:	d8c00617 	ldw	r3,24(sp)
   2209c:	10800017 	ldw	r2,0(r2)
   220a0:	10c00015 	stw	r3,0(r2)
   220a4:	003d0c06 	br	214d8 <___vfprintf_internal_r+0xb70>
   220a8:	b009883a 	mov	r4,r22
   220ac:	00257040 	call	25704 <strlen>
   220b0:	d9001543 	ldbu	r4,85(sp)
   220b4:	da400717 	ldw	r9,28(sp)
   220b8:	db000817 	ldw	r12,32(sp)
   220bc:	da000f17 	ldw	r8,60(sp)
   220c0:	1039883a 	mov	fp,r2
   220c4:	1017883a 	mov	r11,r2
   220c8:	103ce50e 	bge	r2,zero,21460 <___vfprintf_internal_r+0xaf8>
   220cc:	0017883a 	mov	r11,zero
   220d0:	003ce306 	br	21460 <___vfprintf_internal_r+0xaf8>
   220d4:	00800084 	movi	r2,2
   220d8:	003b8806 	br	20efc <___vfprintf_internal_r+0x594>
   220dc:	d8c00717 	ldw	r3,28(sp)
   220e0:	6080040c 	andi	r2,r12,16
   220e4:	1c400017 	ldw	r17,0(r3)
   220e8:	1dc00104 	addi	r23,r3,4
   220ec:	1000061e 	bne	r2,zero,22108 <___vfprintf_internal_r+0x17a0>
   220f0:	6080100c 	andi	r2,r12,64
   220f4:	10000426 	beq	r2,zero,22108 <___vfprintf_internal_r+0x17a0>
   220f8:	8c7fffcc 	andi	r17,r17,65535
   220fc:	0039883a 	mov	fp,zero
   22100:	ddc00715 	stw	r23,28(sp)
   22104:	003f8106 	br	21f0c <___vfprintf_internal_r+0x15a4>
   22108:	0039883a 	mov	fp,zero
   2210c:	ddc00715 	stw	r23,28(sp)
   22110:	003f7e06 	br	21f0c <___vfprintf_internal_r+0x15a4>
   22114:	d9400417 	ldw	r5,16(sp)
   22118:	d9000517 	ldw	r4,20(sp)
   2211c:	d9801c04 	addi	r6,sp,112
   22120:	dac00f15 	stw	r11,60(sp)
   22124:	da000815 	stw	r8,32(sp)
   22128:	0022ec00 	call	22ec0 <__sprint_r>
   2212c:	103b191e 	bne	r2,zero,20d94 <___vfprintf_internal_r+0x42c>
   22130:	dc401e17 	ldw	r17,120(sp)
   22134:	dd401d17 	ldw	r21,116(sp)
   22138:	dac00f17 	ldw	r11,60(sp)
   2213c:	da000817 	ldw	r8,32(sp)
   22140:	9039883a 	mov	fp,r18
   22144:	003dd506 	br	2189c <___vfprintf_internal_r+0xf34>
   22148:	d9400417 	ldw	r5,16(sp)
   2214c:	d9000517 	ldw	r4,20(sp)
   22150:	d9801c04 	addi	r6,sp,112
   22154:	dac00f15 	stw	r11,60(sp)
   22158:	da000815 	stw	r8,32(sp)
   2215c:	0022ec00 	call	22ec0 <__sprint_r>
   22160:	103b0c1e 	bne	r2,zero,20d94 <___vfprintf_internal_r+0x42c>
   22164:	dc401e17 	ldw	r17,120(sp)
   22168:	dd401d17 	ldw	r21,116(sp)
   2216c:	dac00f17 	ldw	r11,60(sp)
   22170:	da000817 	ldw	r8,32(sp)
   22174:	9039883a 	mov	fp,r18
   22178:	003dd306 	br	218c8 <___vfprintf_internal_r+0xf60>
   2217c:	d8801d17 	ldw	r2,116(sp)
   22180:	00c000f4 	movhi	r3,3
   22184:	18c12404 	addi	r3,r3,1168
   22188:	10800044 	addi	r2,r2,1
   2218c:	8c400044 	addi	r17,r17,1
   22190:	80c00015 	stw	r3,0(r16)
   22194:	00c00044 	movi	r3,1
   22198:	d8801d15 	stw	r2,116(sp)
   2219c:	80c00115 	stw	r3,4(r16)
   221a0:	dc401e15 	stw	r17,120(sp)
   221a4:	10800208 	cmpgei	r2,r2,8
   221a8:	1001151e 	bne	r2,zero,22600 <___vfprintf_internal_r+0x1c98>
   221ac:	84000204 	addi	r16,r16,8
   221b0:	a800b91e 	bne	r21,zero,22498 <___vfprintf_internal_r+0x1b30>
   221b4:	d8c00917 	ldw	r3,36(sp)
   221b8:	b880004c 	andi	r2,r23,1
   221bc:	10c4b03a 	or	r2,r2,r3
   221c0:	103ae426 	beq	r2,zero,20d54 <___vfprintf_internal_r+0x3ec>
   221c4:	d8800d17 	ldw	r2,52(sp)
   221c8:	d8c00c17 	ldw	r3,48(sp)
   221cc:	80800015 	stw	r2,0(r16)
   221d0:	d8801d17 	ldw	r2,116(sp)
   221d4:	1c63883a 	add	r17,r3,r17
   221d8:	80c00115 	stw	r3,4(r16)
   221dc:	10800044 	addi	r2,r2,1
   221e0:	dc401e15 	stw	r17,120(sp)
   221e4:	d8801d15 	stw	r2,116(sp)
   221e8:	10c00208 	cmpgei	r3,r2,8
   221ec:	1801181e 	bne	r3,zero,22650 <___vfprintf_internal_r+0x1ce8>
   221f0:	84000204 	addi	r16,r16,8
   221f4:	d8c00917 	ldw	r3,36(sp)
   221f8:	10800044 	addi	r2,r2,1
   221fc:	d8801d15 	stw	r2,116(sp)
   22200:	1c63883a 	add	r17,r3,r17
   22204:	85800015 	stw	r22,0(r16)
   22208:	80c00115 	stw	r3,4(r16)
   2220c:	dc401e15 	stw	r17,120(sp)
   22210:	10800208 	cmpgei	r2,r2,8
   22214:	103ace26 	beq	r2,zero,20d50 <___vfprintf_internal_r+0x3e8>
   22218:	003e1806 	br	21a7c <___vfprintf_internal_r+0x1114>
   2221c:	d9400417 	ldw	r5,16(sp)
   22220:	d9000517 	ldw	r4,20(sp)
   22224:	d9801c04 	addi	r6,sp,112
   22228:	dac01415 	stw	r11,80(sp)
   2222c:	da001315 	stw	r8,76(sp)
   22230:	da401215 	stw	r9,72(sp)
   22234:	db401015 	stw	r13,64(sp)
   22238:	db800f15 	stw	r14,60(sp)
   2223c:	0022ec00 	call	22ec0 <__sprint_r>
   22240:	103ad41e 	bne	r2,zero,20d94 <___vfprintf_internal_r+0x42c>
   22244:	dc401e17 	ldw	r17,120(sp)
   22248:	dac01417 	ldw	r11,80(sp)
   2224c:	da001317 	ldw	r8,76(sp)
   22250:	da401217 	ldw	r9,72(sp)
   22254:	db401017 	ldw	r13,64(sp)
   22258:	db800f17 	ldw	r14,60(sp)
   2225c:	9021883a 	mov	r16,r18
   22260:	003a9106 	br	20ca8 <___vfprintf_internal_r+0x340>
   22264:	d9000a17 	ldw	r4,40(sp)
   22268:	d9400b17 	ldw	r5,44(sp)
   2226c:	da000f15 	stw	r8,60(sp)
   22270:	200d883a 	mov	r6,r4
   22274:	280f883a 	mov	r7,r5
   22278:	db000815 	stw	r12,32(sp)
   2227c:	da400715 	stw	r9,28(sp)
   22280:	002dac00 	call	2dac0 <__unorddf2>
   22284:	da400717 	ldw	r9,28(sp)
   22288:	db000817 	ldw	r12,32(sp)
   2228c:	da000f17 	ldw	r8,60(sp)
   22290:	1002421e 	bne	r2,zero,22b9c <___vfprintf_internal_r+0x2234>
   22294:	00fff7c4 	movi	r3,-33
   22298:	48c6703a 	and	r3,r9,r3
   2229c:	a8bfffe0 	cmpeqi	r2,r21,-1
   222a0:	d8c00815 	stw	r3,32(sp)
   222a4:	1001ca1e 	bne	r2,zero,229d0 <___vfprintf_internal_r+0x2068>
   222a8:	188011d8 	cmpnei	r2,r3,71
   222ac:	1001b826 	beq	r2,zero,22990 <___vfprintf_internal_r+0x2028>
   222b0:	d8800b17 	ldw	r2,44(sp)
   222b4:	65c04014 	ori	r23,r12,256
   222b8:	1000cd16 	blt	r2,zero,225f0 <___vfprintf_internal_r+0x1c88>
   222bc:	dc400b17 	ldw	r17,44(sp)
   222c0:	d8000705 	stb	zero,28(sp)
   222c4:	488019a0 	cmpeqi	r2,r9,102
   222c8:	d8800f15 	stw	r2,60(sp)
   222cc:	1001721e 	bne	r2,zero,22898 <___vfprintf_internal_r+0x1f30>
   222d0:	d8800817 	ldw	r2,32(sp)
   222d4:	10801158 	cmpnei	r2,r2,69
   222d8:	1000ec26 	beq	r2,zero,2268c <___vfprintf_internal_r+0x1d24>
   222dc:	d8801a04 	addi	r2,sp,104
   222e0:	d8800315 	stw	r2,12(sp)
   222e4:	d9400a17 	ldw	r5,40(sp)
   222e8:	d8801704 	addi	r2,sp,92
   222ec:	d9000517 	ldw	r4,20(sp)
   222f0:	d8800215 	stw	r2,8(sp)
   222f4:	d8801604 	addi	r2,sp,88
   222f8:	d8800115 	stw	r2,4(sp)
   222fc:	dd400015 	stw	r21,0(sp)
   22300:	01c00084 	movi	r7,2
   22304:	880d883a 	mov	r6,r17
   22308:	da001315 	stw	r8,76(sp)
   2230c:	db001215 	stw	r12,72(sp)
   22310:	da400915 	stw	r9,36(sp)
   22314:	0025d240 	call	25d24 <_dtoa_r>
   22318:	da400917 	ldw	r9,36(sp)
   2231c:	db001217 	ldw	r12,72(sp)
   22320:	da001317 	ldw	r8,76(sp)
   22324:	48c019e0 	cmpeqi	r3,r9,103
   22328:	102d883a 	mov	r22,r2
   2232c:	1800ff26 	beq	r3,zero,2272c <___vfprintf_internal_r+0x1dc4>
   22330:	6080004c 	andi	r2,r12,1
   22334:	1000ff26 	beq	r2,zero,22734 <___vfprintf_internal_r+0x1dcc>
   22338:	b579883a 	add	fp,r22,r21
   2233c:	d9000a17 	ldw	r4,40(sp)
   22340:	000d883a 	mov	r6,zero
   22344:	000f883a 	mov	r7,zero
   22348:	880b883a 	mov	r5,r17
   2234c:	da001315 	stw	r8,76(sp)
   22350:	db001215 	stw	r12,72(sp)
   22354:	da400915 	stw	r9,36(sp)
   22358:	002c6940 	call	2c694 <__eqdf2>
   2235c:	da400917 	ldw	r9,36(sp)
   22360:	db001217 	ldw	r12,72(sp)
   22364:	da001317 	ldw	r8,76(sp)
   22368:	10023126 	beq	r2,zero,22c30 <___vfprintf_internal_r+0x22c8>
   2236c:	d8801a17 	ldw	r2,104(sp)
   22370:	1700062e 	bgeu	r2,fp,2238c <___vfprintf_internal_r+0x1a24>
   22374:	01000c04 	movi	r4,48
   22378:	10c00044 	addi	r3,r2,1
   2237c:	d8c01a15 	stw	r3,104(sp)
   22380:	11000005 	stb	r4,0(r2)
   22384:	d8801a17 	ldw	r2,104(sp)
   22388:	173ffb36 	bltu	r2,fp,22378 <___vfprintf_internal_r+0x1a10>
   2238c:	d8c00817 	ldw	r3,32(sp)
   22390:	d9c01617 	ldw	r7,88(sp)
   22394:	1585c83a 	sub	r2,r2,r22
   22398:	18c011d8 	cmpnei	r3,r3,71
   2239c:	d8800915 	stw	r2,36(sp)
   223a0:	d9c00815 	stw	r7,32(sp)
   223a4:	1800e726 	beq	r3,zero,22744 <___vfprintf_internal_r+0x1ddc>
   223a8:	d8800f17 	ldw	r2,60(sp)
   223ac:	10021a26 	beq	r2,zero,22c18 <___vfprintf_internal_r+0x22b0>
   223b0:	d8c00817 	ldw	r3,32(sp)
   223b4:	6080004c 	andi	r2,r12,1
   223b8:	1544b03a 	or	r2,r2,r21
   223bc:	00c23a0e 	bge	zero,r3,22ca8 <___vfprintf_internal_r+0x2340>
   223c0:	10021f1e 	bne	r2,zero,22c40 <___vfprintf_internal_r+0x22d8>
   223c4:	df000817 	ldw	fp,32(sp)
   223c8:	e017883a 	mov	r11,fp
   223cc:	02401984 	movi	r9,102
   223d0:	d8800707 	ldb	r2,28(sp)
   223d4:	10012b26 	beq	r2,zero,22884 <___vfprintf_internal_r+0x1f1c>
   223d8:	00800b44 	movi	r2,45
   223dc:	d8801545 	stb	r2,85(sp)
   223e0:	d8801017 	ldw	r2,64(sp)
   223e4:	002b883a 	mov	r21,zero
   223e8:	d8800715 	stw	r2,28(sp)
   223ec:	003aee06 	br	20fa8 <___vfprintf_internal_r+0x640>
   223f0:	d9400417 	ldw	r5,16(sp)
   223f4:	d9000517 	ldw	r4,20(sp)
   223f8:	d9801c04 	addi	r6,sp,112
   223fc:	dac00f15 	stw	r11,60(sp)
   22400:	da000815 	stw	r8,32(sp)
   22404:	0022ec00 	call	22ec0 <__sprint_r>
   22408:	103a621e 	bne	r2,zero,20d94 <___vfprintf_internal_r+0x42c>
   2240c:	dc401e17 	ldw	r17,120(sp)
   22410:	dac00f17 	ldw	r11,60(sp)
   22414:	da000817 	ldw	r8,32(sp)
   22418:	9021883a 	mov	r16,r18
   2241c:	003c4b06 	br	2154c <___vfprintf_internal_r+0xbe4>
   22420:	d9400417 	ldw	r5,16(sp)
   22424:	d9000517 	ldw	r4,20(sp)
   22428:	d9801c04 	addi	r6,sp,112
   2242c:	dac00f15 	stw	r11,60(sp)
   22430:	da000815 	stw	r8,32(sp)
   22434:	0022ec00 	call	22ec0 <__sprint_r>
   22438:	103a561e 	bne	r2,zero,20d94 <___vfprintf_internal_r+0x42c>
   2243c:	dc401e17 	ldw	r17,120(sp)
   22440:	dd401d17 	ldw	r21,116(sp)
   22444:	da000817 	ldw	r8,32(sp)
   22448:	dac00f17 	ldw	r11,60(sp)
   2244c:	9039883a 	mov	fp,r18
   22450:	003d3306 	br	21920 <___vfprintf_internal_r+0xfb8>
   22454:	d9000517 	ldw	r4,20(sp)
   22458:	00248740 	call	24874 <__sinit>
   2245c:	00395b06 	br	209cc <___vfprintf_internal_r+0x64>
   22460:	d9400417 	ldw	r5,16(sp)
   22464:	d9000517 	ldw	r4,20(sp)
   22468:	d9801c04 	addi	r6,sp,112
   2246c:	dac01215 	stw	r11,72(sp)
   22470:	da001015 	stw	r8,64(sp)
   22474:	da400f15 	stw	r9,60(sp)
   22478:	0022ec00 	call	22ec0 <__sprint_r>
   2247c:	103a451e 	bne	r2,zero,20d94 <___vfprintf_internal_r+0x42c>
   22480:	dc401e17 	ldw	r17,120(sp)
   22484:	dac01217 	ldw	r11,72(sp)
   22488:	da001017 	ldw	r8,64(sp)
   2248c:	da400f17 	ldw	r9,60(sp)
   22490:	9021883a 	mov	r16,r18
   22494:	003a2106 	br	20d1c <___vfprintf_internal_r+0x3b4>
   22498:	d8800d17 	ldw	r2,52(sp)
   2249c:	d8c00c17 	ldw	r3,48(sp)
   224a0:	80800015 	stw	r2,0(r16)
   224a4:	d8801d17 	ldw	r2,116(sp)
   224a8:	1c63883a 	add	r17,r3,r17
   224ac:	80c00115 	stw	r3,4(r16)
   224b0:	10800044 	addi	r2,r2,1
   224b4:	dc401e15 	stw	r17,120(sp)
   224b8:	d8801d15 	stw	r2,116(sp)
   224bc:	10c00208 	cmpgei	r3,r2,8
   224c0:	1800631e 	bne	r3,zero,22650 <___vfprintf_internal_r+0x1ce8>
   224c4:	84000204 	addi	r16,r16,8
   224c8:	a83f4a0e 	bge	r21,zero,221f4 <___vfprintf_internal_r+0x188c>
   224cc:	030000f4 	movhi	r12,3
   224d0:	a8fffc08 	cmpgei	r3,r21,-16
   224d4:	63012504 	addi	r12,r12,1172
   224d8:	056bc83a 	sub	r21,zero,r21
   224dc:	1801881e 	bne	r3,zero,22b00 <___vfprintf_internal_r+0x2198>
   224e0:	8007883a 	mov	r3,r16
   224e4:	8809883a 	mov	r4,r17
   224e8:	07000404 	movi	fp,16
   224ec:	da000815 	stw	r8,32(sp)
   224f0:	5823883a 	mov	r17,r11
   224f4:	6021883a 	mov	r16,r12
   224f8:	00000406 	br	2250c <___vfprintf_internal_r+0x1ba4>
   224fc:	18c00204 	addi	r3,r3,8
   22500:	ad7ffc04 	addi	r21,r21,-16
   22504:	a9400448 	cmpgei	r5,r21,17
   22508:	28017826 	beq	r5,zero,22aec <___vfprintf_internal_r+0x2184>
   2250c:	10800044 	addi	r2,r2,1
   22510:	21000404 	addi	r4,r4,16
   22514:	1c000015 	stw	r16,0(r3)
   22518:	1f000115 	stw	fp,4(r3)
   2251c:	d9001e15 	stw	r4,120(sp)
   22520:	d8801d15 	stw	r2,116(sp)
   22524:	11400208 	cmpgei	r5,r2,8
   22528:	283ff426 	beq	r5,zero,224fc <___vfprintf_internal_r+0x1b94>
   2252c:	d9400417 	ldw	r5,16(sp)
   22530:	d9000517 	ldw	r4,20(sp)
   22534:	d9801c04 	addi	r6,sp,112
   22538:	0022ec00 	call	22ec0 <__sprint_r>
   2253c:	103a151e 	bne	r2,zero,20d94 <___vfprintf_internal_r+0x42c>
   22540:	d9001e17 	ldw	r4,120(sp)
   22544:	d8801d17 	ldw	r2,116(sp)
   22548:	9007883a 	mov	r3,r18
   2254c:	003fec06 	br	22500 <___vfprintf_internal_r+0x1b98>
   22550:	9811883a 	mov	r8,r19
   22554:	a017883a 	mov	r11,r20
   22558:	a827883a 	mov	r19,r21
   2255c:	8819883a 	mov	r12,r17
   22560:	e029883a 	mov	r20,fp
   22564:	102b883a 	mov	r21,r2
   22568:	2023883a 	mov	r17,r4
   2256c:	1839883a 	mov	fp,r3
   22570:	ad400044 	addi	r21,r21,1
   22574:	8c23883a 	add	r17,r17,r16
   22578:	e3000015 	stw	r12,0(fp)
   2257c:	003ce206 	br	21908 <___vfprintf_internal_r+0xfa0>
   22580:	058000f4 	movhi	r22,3
   22584:	b5811404 	addi	r22,r22,1104
   22588:	003b1206 	br	211d4 <___vfprintf_internal_r+0x86c>
   2258c:	030000f4 	movhi	r12,3
   22590:	63012504 	addi	r12,r12,1172
   22594:	003c8c06 	br	217c8 <___vfprintf_internal_r+0xe60>
   22598:	da000f17 	ldw	r8,60(sp)
   2259c:	9817883a 	mov	r11,r19
   225a0:	8819883a 	mov	r12,r17
   225a4:	a027883a 	mov	r19,r20
   225a8:	2023883a 	mov	r17,r4
   225ac:	a829883a 	mov	r20,r21
   225b0:	802b883a 	mov	r21,r16
   225b4:	1821883a 	mov	r16,r3
   225b8:	10800044 	addi	r2,r2,1
   225bc:	8d63883a 	add	r17,r17,r21
   225c0:	d8801d15 	stw	r2,116(sp)
   225c4:	83000015 	stw	r12,0(r16)
   225c8:	85400115 	stw	r21,4(r16)
   225cc:	dc401e15 	stw	r17,120(sp)
   225d0:	10800208 	cmpgei	r2,r2,8
   225d4:	1000491e 	bne	r2,zero,226fc <___vfprintf_internal_r+0x1d94>
   225d8:	84000204 	addi	r16,r16,8
   225dc:	003d6a06 	br	21b88 <___vfprintf_internal_r+0x1220>
   225e0:	00800b44 	movi	r2,45
   225e4:	d8801545 	stb	r2,85(sp)
   225e8:	01000b44 	movi	r4,45
   225ec:	003af506 	br	211c4 <___vfprintf_internal_r+0x85c>
   225f0:	1460003c 	xorhi	r17,r2,32768
   225f4:	00800b44 	movi	r2,45
   225f8:	d8800705 	stb	r2,28(sp)
   225fc:	003f3106 	br	222c4 <___vfprintf_internal_r+0x195c>
   22600:	d9400417 	ldw	r5,16(sp)
   22604:	d9000517 	ldw	r4,20(sp)
   22608:	d9801c04 	addi	r6,sp,112
   2260c:	dac00f15 	stw	r11,60(sp)
   22610:	da000815 	stw	r8,32(sp)
   22614:	0022ec00 	call	22ec0 <__sprint_r>
   22618:	1039de1e 	bne	r2,zero,20d94 <___vfprintf_internal_r+0x42c>
   2261c:	dd401617 	ldw	r21,88(sp)
   22620:	dc401e17 	ldw	r17,120(sp)
   22624:	dac00f17 	ldw	r11,60(sp)
   22628:	da000817 	ldw	r8,32(sp)
   2262c:	9021883a 	mov	r16,r18
   22630:	003edf06 	br	221b0 <___vfprintf_internal_r+0x1848>
   22634:	07000184 	movi	fp,6
   22638:	003e4506 	br	21f50 <___vfprintf_internal_r+0x15e8>
   2263c:	d9400417 	ldw	r5,16(sp)
   22640:	d9000517 	ldw	r4,20(sp)
   22644:	d9801c04 	addi	r6,sp,112
   22648:	0022ec00 	call	22ec0 <__sprint_r>
   2264c:	0039d106 	br	20d94 <___vfprintf_internal_r+0x42c>
   22650:	d9400417 	ldw	r5,16(sp)
   22654:	d9000517 	ldw	r4,20(sp)
   22658:	d9801c04 	addi	r6,sp,112
   2265c:	dac00f15 	stw	r11,60(sp)
   22660:	da000815 	stw	r8,32(sp)
   22664:	0022ec00 	call	22ec0 <__sprint_r>
   22668:	1039ca1e 	bne	r2,zero,20d94 <___vfprintf_internal_r+0x42c>
   2266c:	dd401617 	ldw	r21,88(sp)
   22670:	dc401e17 	ldw	r17,120(sp)
   22674:	d8801d17 	ldw	r2,116(sp)
   22678:	dac00f17 	ldw	r11,60(sp)
   2267c:	da000817 	ldw	r8,32(sp)
   22680:	9021883a 	mov	r16,r18
   22684:	a83edb0e 	bge	r21,zero,221f4 <___vfprintf_internal_r+0x188c>
   22688:	003f9006 	br	224cc <___vfprintf_internal_r+0x1b64>
   2268c:	d8801a04 	addi	r2,sp,104
   22690:	d8800315 	stw	r2,12(sp)
   22694:	d9400a17 	ldw	r5,40(sp)
   22698:	d8801704 	addi	r2,sp,92
   2269c:	d9000517 	ldw	r4,20(sp)
   226a0:	a8c00044 	addi	r3,r21,1
   226a4:	d8800215 	stw	r2,8(sp)
   226a8:	d8801604 	addi	r2,sp,88
   226ac:	d8800115 	stw	r2,4(sp)
   226b0:	d8c00015 	stw	r3,0(sp)
   226b4:	01c00084 	movi	r7,2
   226b8:	880d883a 	mov	r6,r17
   226bc:	da001415 	stw	r8,80(sp)
   226c0:	db001315 	stw	r12,76(sp)
   226c4:	da401215 	stw	r9,72(sp)
   226c8:	d8c00915 	stw	r3,36(sp)
   226cc:	0025d240 	call	25d24 <_dtoa_r>
   226d0:	da401217 	ldw	r9,72(sp)
   226d4:	db001317 	ldw	r12,76(sp)
   226d8:	da001417 	ldw	r8,80(sp)
   226dc:	102d883a 	mov	r22,r2
   226e0:	488011d8 	cmpnei	r2,r9,71
   226e4:	10013c1e 	bne	r2,zero,22bd8 <___vfprintf_internal_r+0x2270>
   226e8:	6080004c 	andi	r2,r12,1
   226ec:	10001126 	beq	r2,zero,22734 <___vfprintf_internal_r+0x1dcc>
   226f0:	d8800917 	ldw	r2,36(sp)
   226f4:	b0b9883a 	add	fp,r22,r2
   226f8:	003f1006 	br	2233c <___vfprintf_internal_r+0x19d4>
   226fc:	d9400417 	ldw	r5,16(sp)
   22700:	d9000517 	ldw	r4,20(sp)
   22704:	d9801c04 	addi	r6,sp,112
   22708:	dac01015 	stw	r11,64(sp)
   2270c:	da000f15 	stw	r8,60(sp)
   22710:	0022ec00 	call	22ec0 <__sprint_r>
   22714:	10399f1e 	bne	r2,zero,20d94 <___vfprintf_internal_r+0x42c>
   22718:	dc401e17 	ldw	r17,120(sp)
   2271c:	dac01017 	ldw	r11,64(sp)
   22720:	da000f17 	ldw	r8,60(sp)
   22724:	9021883a 	mov	r16,r18
   22728:	003d1706 	br	21b88 <___vfprintf_internal_r+0x1220>
   2272c:	dd400915 	stw	r21,36(sp)
   22730:	003feb06 	br	226e0 <___vfprintf_internal_r+0x1d78>
   22734:	d8801a17 	ldw	r2,104(sp)
   22738:	d9c01617 	ldw	r7,88(sp)
   2273c:	1585c83a 	sub	r2,r2,r22
   22740:	d8800915 	stw	r2,36(sp)
   22744:	38bfff48 	cmpgei	r2,r7,-3
   22748:	d9c00815 	stw	r7,32(sp)
   2274c:	1000b11e 	bne	r2,zero,22a14 <___vfprintf_internal_r+0x20ac>
   22750:	4a7fff84 	addi	r9,r9,-2
   22754:	393fffc4 	addi	r4,r7,-1
   22758:	4805883a 	mov	r2,r9
   2275c:	00c00044 	movi	r3,1
   22760:	19ebc83a 	sub	r21,r3,r7
   22764:	00c00b44 	movi	r3,45
   22768:	18c03fcc 	andi	r3,r3,255
   2276c:	1806923a 	slli	r3,r3,8
   22770:	10803fcc 	andi	r2,r2,255
   22774:	d9001615 	stw	r4,88(sp)
   22778:	10c4b03a 	or	r2,r2,r3
   2277c:	d880180d 	sth	r2,96(sp)
   22780:	a8800290 	cmplti	r2,r21,10
   22784:	1000bc1e 	bne	r2,zero,22a78 <___vfprintf_internal_r+0x2110>
   22788:	df001bc4 	addi	fp,sp,111
   2278c:	e023883a 	mov	r17,fp
   22790:	da400815 	stw	r9,32(sp)
   22794:	a039883a 	mov	fp,r20
   22798:	db000f15 	stw	r12,60(sp)
   2279c:	8029883a 	mov	r20,r16
   227a0:	da001115 	stw	r8,68(sp)
   227a4:	a821883a 	mov	r16,r21
   227a8:	982b883a 	mov	r21,r19
   227ac:	8009883a 	mov	r4,r16
   227b0:	01400284 	movi	r5,10
   227b4:	00207cc0 	call	207cc <__modsi3>
   227b8:	10800c04 	addi	r2,r2,48
   227bc:	8009883a 	mov	r4,r16
   227c0:	88bfffc5 	stb	r2,-1(r17)
   227c4:	01400284 	movi	r5,10
   227c8:	002074c0 	call	2074c <__divsi3>
   227cc:	81401908 	cmpgei	r5,r16,100
   227d0:	8827883a 	mov	r19,r17
   227d4:	1021883a 	mov	r16,r2
   227d8:	8c7fffc4 	addi	r17,r17,-1
   227dc:	283ff31e 	bne	r5,zero,227ac <___vfprintf_internal_r+0x1e44>
   227e0:	e005883a 	mov	r2,fp
   227e4:	8839883a 	mov	fp,r17
   227e8:	9823883a 	mov	r17,r19
   227ec:	a827883a 	mov	r19,r21
   227f0:	802b883a 	mov	r21,r16
   227f4:	ad400c04 	addi	r21,r21,48
   227f8:	a021883a 	mov	r16,r20
   227fc:	e57fffc5 	stb	r21,-1(fp)
   22800:	1029883a 	mov	r20,r2
   22804:	d8c01bc4 	addi	r3,sp,111
   22808:	88bfff84 	addi	r2,r17,-2
   2280c:	da400817 	ldw	r9,32(sp)
   22810:	db000f17 	ldw	r12,60(sp)
   22814:	da001117 	ldw	r8,68(sp)
   22818:	10c1312e 	bgeu	r2,r3,22ce0 <___vfprintf_internal_r+0x2378>
   2281c:	d8c01884 	addi	r3,sp,98
   22820:	11000003 	ldbu	r4,0(r2)
   22824:	10800044 	addi	r2,r2,1
   22828:	18c00044 	addi	r3,r3,1
   2282c:	193fffc5 	stb	r4,-1(r3)
   22830:	d9001bc4 	addi	r4,sp,111
   22834:	113ffa1e 	bne	r2,r4,22820 <___vfprintf_internal_r+0x1eb8>
   22838:	d8801c44 	addi	r2,sp,113
   2283c:	d8c01884 	addi	r3,sp,98
   22840:	1445c83a 	sub	r2,r2,r17
   22844:	1885883a 	add	r2,r3,r2
   22848:	d8c01804 	addi	r3,sp,96
   2284c:	10c5c83a 	sub	r2,r2,r3
   22850:	d8801115 	stw	r2,68(sp)
   22854:	d8c00917 	ldw	r3,36(sp)
   22858:	d9001117 	ldw	r4,68(sp)
   2285c:	18800088 	cmpgei	r2,r3,2
   22860:	1939883a 	add	fp,r3,r4
   22864:	10008b26 	beq	r2,zero,22a94 <___vfprintf_internal_r+0x212c>
   22868:	d8800c17 	ldw	r2,48(sp)
   2286c:	e0b9883a 	add	fp,fp,r2
   22870:	e017883a 	mov	r11,fp
   22874:	e000010e 	bge	fp,zero,2287c <___vfprintf_internal_r+0x1f14>
   22878:	0017883a 	mov	r11,zero
   2287c:	d8000815 	stw	zero,32(sp)
   22880:	003ed306 	br	223d0 <___vfprintf_internal_r+0x1a68>
   22884:	d8801017 	ldw	r2,64(sp)
   22888:	d9001543 	ldbu	r4,85(sp)
   2288c:	002b883a 	mov	r21,zero
   22890:	d8800715 	stw	r2,28(sp)
   22894:	0039c006 	br	20f98 <___vfprintf_internal_r+0x630>
   22898:	d8801a04 	addi	r2,sp,104
   2289c:	d8800315 	stw	r2,12(sp)
   228a0:	d9400a17 	ldw	r5,40(sp)
   228a4:	d8801704 	addi	r2,sp,92
   228a8:	d9000517 	ldw	r4,20(sp)
   228ac:	d8800215 	stw	r2,8(sp)
   228b0:	d8801604 	addi	r2,sp,88
   228b4:	d8800115 	stw	r2,4(sp)
   228b8:	dd400015 	stw	r21,0(sp)
   228bc:	01c000c4 	movi	r7,3
   228c0:	880d883a 	mov	r6,r17
   228c4:	da001315 	stw	r8,76(sp)
   228c8:	db001215 	stw	r12,72(sp)
   228cc:	da400915 	stw	r9,36(sp)
   228d0:	0025d240 	call	25d24 <_dtoa_r>
   228d4:	102d883a 	mov	r22,r2
   228d8:	10800007 	ldb	r2,0(r2)
   228dc:	da400917 	ldw	r9,36(sp)
   228e0:	db001217 	ldw	r12,72(sp)
   228e4:	10800c20 	cmpeqi	r2,r2,48
   228e8:	da001317 	ldw	r8,76(sp)
   228ec:	10009b1e 	bne	r2,zero,22b5c <___vfprintf_internal_r+0x21f4>
   228f0:	d8801617 	ldw	r2,88(sp)
   228f4:	d9000a17 	ldw	r4,40(sp)
   228f8:	880b883a 	mov	r5,r17
   228fc:	000d883a 	mov	r6,zero
   22900:	000f883a 	mov	r7,zero
   22904:	da001315 	stw	r8,76(sp)
   22908:	db001215 	stw	r12,72(sp)
   2290c:	da400915 	stw	r9,36(sp)
   22910:	1563883a 	add	r17,r2,r21
   22914:	002c6940 	call	2c694 <__eqdf2>
   22918:	da400917 	ldw	r9,36(sp)
   2291c:	db001217 	ldw	r12,72(sp)
   22920:	da001317 	ldw	r8,76(sp)
   22924:	10008b1e 	bne	r2,zero,22b54 <___vfprintf_internal_r+0x21ec>
   22928:	d8801617 	ldw	r2,88(sp)
   2292c:	dc400915 	stw	r17,36(sp)
   22930:	d8800815 	stw	r2,32(sp)
   22934:	003e9e06 	br	223b0 <___vfprintf_internal_r+0x1a48>
   22938:	d9400417 	ldw	r5,16(sp)
   2293c:	d9000517 	ldw	r4,20(sp)
   22940:	d9801c04 	addi	r6,sp,112
   22944:	dac01015 	stw	r11,64(sp)
   22948:	da000f15 	stw	r8,60(sp)
   2294c:	0022ec00 	call	22ec0 <__sprint_r>
   22950:	1039101e 	bne	r2,zero,20d94 <___vfprintf_internal_r+0x42c>
   22954:	d8801617 	ldw	r2,88(sp)
   22958:	dc401e17 	ldw	r17,120(sp)
   2295c:	dac01017 	ldw	r11,64(sp)
   22960:	da000f17 	ldw	r8,60(sp)
   22964:	9021883a 	mov	r16,r18
   22968:	003c9606 	br	21bc4 <___vfprintf_internal_r+0x125c>
   2296c:	9817883a 	mov	r11,r19
   22970:	8819883a 	mov	r12,r17
   22974:	a027883a 	mov	r19,r20
   22978:	da000817 	ldw	r8,32(sp)
   2297c:	a829883a 	mov	r20,r21
   22980:	2023883a 	mov	r17,r4
   22984:	802b883a 	mov	r21,r16
   22988:	1821883a 	mov	r16,r3
   2298c:	003c3306 	br	21a5c <___vfprintf_internal_r+0x10f4>
   22990:	a83e471e 	bne	r21,zero,222b0 <___vfprintf_internal_r+0x1948>
   22994:	05400044 	movi	r21,1
   22998:	003e4506 	br	222b0 <___vfprintf_internal_r+0x1948>
   2299c:	d9400417 	ldw	r5,16(sp)
   229a0:	d9000517 	ldw	r4,20(sp)
   229a4:	d9801c04 	addi	r6,sp,112
   229a8:	dac01015 	stw	r11,64(sp)
   229ac:	da000f15 	stw	r8,60(sp)
   229b0:	0022ec00 	call	22ec0 <__sprint_r>
   229b4:	1038f71e 	bne	r2,zero,20d94 <___vfprintf_internal_r+0x42c>
   229b8:	dc401e17 	ldw	r17,120(sp)
   229bc:	dac01017 	ldw	r11,64(sp)
   229c0:	da000f17 	ldw	r8,60(sp)
   229c4:	9021883a 	mov	r16,r18
   229c8:	a83c6c0e 	bge	r21,zero,21b7c <___vfprintf_internal_r+0x1214>
   229cc:	003d3706 	br	21eac <___vfprintf_internal_r+0x1544>
   229d0:	05400184 	movi	r21,6
   229d4:	003e3606 	br	222b0 <___vfprintf_internal_r+0x1948>
   229d8:	d9400417 	ldw	r5,16(sp)
   229dc:	d9000517 	ldw	r4,20(sp)
   229e0:	d9801c04 	addi	r6,sp,112
   229e4:	dac00f15 	stw	r11,60(sp)
   229e8:	da000815 	stw	r8,32(sp)
   229ec:	0022ec00 	call	22ec0 <__sprint_r>
   229f0:	1038e81e 	bne	r2,zero,20d94 <___vfprintf_internal_r+0x42c>
   229f4:	d8801617 	ldw	r2,88(sp)
   229f8:	d8c00917 	ldw	r3,36(sp)
   229fc:	dc401e17 	ldw	r17,120(sp)
   22a00:	dac00f17 	ldw	r11,60(sp)
   22a04:	da000817 	ldw	r8,32(sp)
   22a08:	9021883a 	mov	r16,r18
   22a0c:	1885c83a 	sub	r2,r3,r2
   22a10:	003c7f06 	br	21c10 <___vfprintf_internal_r+0x12a8>
   22a14:	a9c0060e 	bge	r21,r7,22a30 <___vfprintf_internal_r+0x20c8>
   22a18:	4a7fff84 	addi	r9,r9,-2
   22a1c:	3d7fffc4 	addi	r21,r7,-1
   22a20:	4805883a 	mov	r2,r9
   22a24:	a809883a 	mov	r4,r21
   22a28:	00c00ac4 	movi	r3,43
   22a2c:	003f4e06 	br	22768 <___vfprintf_internal_r+0x1e00>
   22a30:	d8c00917 	ldw	r3,36(sp)
   22a34:	38c01e16 	blt	r7,r3,22ab0 <___vfprintf_internal_r+0x2148>
   22a38:	6300004c 	andi	r12,r12,1
   22a3c:	60005f1e 	bne	r12,zero,22bbc <___vfprintf_internal_r+0x2254>
   22a40:	3817883a 	mov	r11,r7
   22a44:	3800010e 	bge	r7,zero,22a4c <___vfprintf_internal_r+0x20e4>
   22a48:	0017883a 	mov	r11,zero
   22a4c:	3839883a 	mov	fp,r7
   22a50:	024019c4 	movi	r9,103
   22a54:	003e5e06 	br	223d0 <___vfprintf_internal_r+0x1a68>
   22a58:	a817883a 	mov	r11,r21
   22a5c:	a839883a 	mov	fp,r21
   22a60:	ddc00715 	stw	r23,28(sp)
   22a64:	d9001543 	ldbu	r4,85(sp)
   22a68:	602f883a 	mov	r23,r12
   22a6c:	002b883a 	mov	r21,zero
   22a70:	d8000815 	stw	zero,32(sp)
   22a74:	00394806 	br	20f98 <___vfprintf_internal_r+0x630>
   22a78:	00800c04 	movi	r2,48
   22a7c:	ad400c04 	addi	r21,r21,48
   22a80:	d8801885 	stb	r2,98(sp)
   22a84:	00800104 	movi	r2,4
   22a88:	dd4018c5 	stb	r21,99(sp)
   22a8c:	d8801115 	stw	r2,68(sp)
   22a90:	003f7006 	br	22854 <___vfprintf_internal_r+0x1eec>
   22a94:	6080004c 	andi	r2,r12,1
   22a98:	d8800815 	stw	r2,32(sp)
   22a9c:	103f721e 	bne	r2,zero,22868 <___vfprintf_internal_r+0x1f00>
   22aa0:	e017883a 	mov	r11,fp
   22aa4:	e03e4a0e 	bge	fp,zero,223d0 <___vfprintf_internal_r+0x1a68>
   22aa8:	0017883a 	mov	r11,zero
   22aac:	003e4806 	br	223d0 <___vfprintf_internal_r+0x1a68>
   22ab0:	d8800917 	ldw	r2,36(sp)
   22ab4:	d8c00c17 	ldw	r3,48(sp)
   22ab8:	10f9883a 	add	fp,r2,r3
   22abc:	d8800817 	ldw	r2,32(sp)
   22ac0:	00800316 	blt	zero,r2,22ad0 <___vfprintf_internal_r+0x2168>
   22ac4:	d8800817 	ldw	r2,32(sp)
   22ac8:	e08fc83a 	sub	r7,fp,r2
   22acc:	3f000044 	addi	fp,r7,1
   22ad0:	e017883a 	mov	r11,fp
   22ad4:	e0003e16 	blt	fp,zero,22bd0 <___vfprintf_internal_r+0x2268>
   22ad8:	024019c4 	movi	r9,103
   22adc:	003e3c06 	br	223d0 <___vfprintf_internal_r+0x1a68>
   22ae0:	00bfffc4 	movi	r2,-1
   22ae4:	d8800615 	stw	r2,24(sp)
   22ae8:	0038ae06 	br	20da4 <___vfprintf_internal_r+0x43c>
   22aec:	da000817 	ldw	r8,32(sp)
   22af0:	8817883a 	mov	r11,r17
   22af4:	8019883a 	mov	r12,r16
   22af8:	2023883a 	mov	r17,r4
   22afc:	1821883a 	mov	r16,r3
   22b00:	10800044 	addi	r2,r2,1
   22b04:	8d63883a 	add	r17,r17,r21
   22b08:	83000015 	stw	r12,0(r16)
   22b0c:	85400115 	stw	r21,4(r16)
   22b10:	dc401e15 	stw	r17,120(sp)
   22b14:	d8801d15 	stw	r2,116(sp)
   22b18:	10c00208 	cmpgei	r3,r2,8
   22b1c:	183db426 	beq	r3,zero,221f0 <___vfprintf_internal_r+0x1888>
   22b20:	d9400417 	ldw	r5,16(sp)
   22b24:	d9000517 	ldw	r4,20(sp)
   22b28:	d9801c04 	addi	r6,sp,112
   22b2c:	dac00f15 	stw	r11,60(sp)
   22b30:	da000815 	stw	r8,32(sp)
   22b34:	0022ec00 	call	22ec0 <__sprint_r>
   22b38:	1038961e 	bne	r2,zero,20d94 <___vfprintf_internal_r+0x42c>
   22b3c:	dc401e17 	ldw	r17,120(sp)
   22b40:	d8801d17 	ldw	r2,116(sp)
   22b44:	dac00f17 	ldw	r11,60(sp)
   22b48:	da000817 	ldw	r8,32(sp)
   22b4c:	9021883a 	mov	r16,r18
   22b50:	003da806 	br	221f4 <___vfprintf_internal_r+0x188c>
   22b54:	b479883a 	add	fp,r22,r17
   22b58:	003e0406 	br	2236c <___vfprintf_internal_r+0x1a04>
   22b5c:	d9000a17 	ldw	r4,40(sp)
   22b60:	000d883a 	mov	r6,zero
   22b64:	000f883a 	mov	r7,zero
   22b68:	880b883a 	mov	r5,r17
   22b6c:	da001315 	stw	r8,76(sp)
   22b70:	db001215 	stw	r12,72(sp)
   22b74:	da400915 	stw	r9,36(sp)
   22b78:	002c6940 	call	2c694 <__eqdf2>
   22b7c:	da400917 	ldw	r9,36(sp)
   22b80:	db001217 	ldw	r12,72(sp)
   22b84:	da001317 	ldw	r8,76(sp)
   22b88:	103f5926 	beq	r2,zero,228f0 <___vfprintf_internal_r+0x1f88>
   22b8c:	00800044 	movi	r2,1
   22b90:	1545c83a 	sub	r2,r2,r21
   22b94:	d8801615 	stw	r2,88(sp)
   22b98:	003f5606 	br	228f4 <___vfprintf_internal_r+0x1f8c>
   22b9c:	d8800b17 	ldw	r2,44(sp)
   22ba0:	10003116 	blt	r2,zero,22c68 <___vfprintf_internal_r+0x2300>
   22ba4:	d9001543 	ldbu	r4,85(sp)
   22ba8:	48801210 	cmplti	r2,r9,72
   22bac:	10002b1e 	bne	r2,zero,22c5c <___vfprintf_internal_r+0x22f4>
   22bb0:	058000f4 	movhi	r22,3
   22bb4:	b5811704 	addi	r22,r22,1116
   22bb8:	00398606 	br	211d4 <___vfprintf_internal_r+0x86c>
   22bbc:	d8800817 	ldw	r2,32(sp)
   22bc0:	d8c00c17 	ldw	r3,48(sp)
   22bc4:	10f9883a 	add	fp,r2,r3
   22bc8:	e017883a 	mov	r11,fp
   22bcc:	e03fc20e 	bge	fp,zero,22ad8 <___vfprintf_internal_r+0x2170>
   22bd0:	0017883a 	mov	r11,zero
   22bd4:	003fc006 	br	22ad8 <___vfprintf_internal_r+0x2170>
   22bd8:	d9000a17 	ldw	r4,40(sp)
   22bdc:	000d883a 	mov	r6,zero
   22be0:	000f883a 	mov	r7,zero
   22be4:	880b883a 	mov	r5,r17
   22be8:	da001415 	stw	r8,80(sp)
   22bec:	db001315 	stw	r12,76(sp)
   22bf0:	da401215 	stw	r9,72(sp)
   22bf4:	002c6940 	call	2c694 <__eqdf2>
   22bf8:	da401217 	ldw	r9,72(sp)
   22bfc:	db001317 	ldw	r12,76(sp)
   22c00:	da001417 	ldw	r8,80(sp)
   22c04:	1000331e 	bne	r2,zero,22cd4 <___vfprintf_internal_r+0x236c>
   22c08:	d8800817 	ldw	r2,32(sp)
   22c0c:	d9c01617 	ldw	r7,88(sp)
   22c10:	108011e0 	cmpeqi	r2,r2,71
   22c14:	103ecb1e 	bne	r2,zero,22744 <___vfprintf_internal_r+0x1ddc>
   22c18:	393fffc4 	addi	r4,r7,-1
   22c1c:	4805883a 	mov	r2,r9
   22c20:	203ece16 	blt	r4,zero,2275c <___vfprintf_internal_r+0x1df4>
   22c24:	202b883a 	mov	r21,r4
   22c28:	00c00ac4 	movi	r3,43
   22c2c:	003ece06 	br	22768 <___vfprintf_internal_r+0x1e00>
   22c30:	e585c83a 	sub	r2,fp,r22
   22c34:	d9c01617 	ldw	r7,88(sp)
   22c38:	d8800915 	stw	r2,36(sp)
   22c3c:	003ec106 	br	22744 <___vfprintf_internal_r+0x1ddc>
   22c40:	d8800c17 	ldw	r2,48(sp)
   22c44:	188f883a 	add	r7,r3,r2
   22c48:	3d79883a 	add	fp,r7,r21
   22c4c:	e017883a 	mov	r11,fp
   22c50:	e03dde0e 	bge	fp,zero,223cc <___vfprintf_internal_r+0x1a64>
   22c54:	0017883a 	mov	r11,zero
   22c58:	003ddc06 	br	223cc <___vfprintf_internal_r+0x1a64>
   22c5c:	058000f4 	movhi	r22,3
   22c60:	b5811604 	addi	r22,r22,1112
   22c64:	00395b06 	br	211d4 <___vfprintf_internal_r+0x86c>
   22c68:	00800b44 	movi	r2,45
   22c6c:	d8801545 	stb	r2,85(sp)
   22c70:	01000b44 	movi	r4,45
   22c74:	003fcc06 	br	22ba8 <___vfprintf_internal_r+0x2240>
   22c78:	d8c00717 	ldw	r3,28(sp)
   22c7c:	1d400017 	ldw	r21,0(r3)
   22c80:	18c00104 	addi	r3,r3,4
   22c84:	a800010e 	bge	r21,zero,22c8c <___vfprintf_internal_r+0x2324>
   22c88:	057fffc4 	movi	r21,-1
   22c8c:	9a400043 	ldbu	r9,1(r19)
   22c90:	d8c00715 	stw	r3,28(sp)
   22c94:	1027883a 	mov	r19,r2
   22c98:	4a403fcc 	andi	r9,r9,255
   22c9c:	4a40201c 	xori	r9,r9,128
   22ca0:	4a7fe004 	addi	r9,r9,-128
   22ca4:	00377f06 	br	20aa4 <___vfprintf_internal_r+0x13c>
   22ca8:	1000041e 	bne	r2,zero,22cbc <___vfprintf_internal_r+0x2354>
   22cac:	02c00044 	movi	r11,1
   22cb0:	02401984 	movi	r9,102
   22cb4:	07000044 	movi	fp,1
   22cb8:	003dc506 	br	223d0 <___vfprintf_internal_r+0x1a68>
   22cbc:	d8800c17 	ldw	r2,48(sp)
   22cc0:	11c00044 	addi	r7,r2,1
   22cc4:	3d79883a 	add	fp,r7,r21
   22cc8:	e017883a 	mov	r11,fp
   22ccc:	e03dbf0e 	bge	fp,zero,223cc <___vfprintf_internal_r+0x1a64>
   22cd0:	003fe006 	br	22c54 <___vfprintf_internal_r+0x22ec>
   22cd4:	d8800917 	ldw	r2,36(sp)
   22cd8:	b0b9883a 	add	fp,r22,r2
   22cdc:	003da306 	br	2236c <___vfprintf_internal_r+0x1a04>
   22ce0:	00800084 	movi	r2,2
   22ce4:	d8801115 	stw	r2,68(sp)
   22ce8:	003eda06 	br	22854 <___vfprintf_internal_r+0x1eec>

00022cec <__vfprintf_internal>:
   22cec:	00c000f4 	movhi	r3,3
   22cf0:	2005883a 	mov	r2,r4
   22cf4:	1908cd17 	ldw	r4,9012(r3)
   22cf8:	300f883a 	mov	r7,r6
   22cfc:	280d883a 	mov	r6,r5
   22d00:	100b883a 	mov	r5,r2
   22d04:	00209681 	jmpi	20968 <___vfprintf_internal_r>

00022d08 <__sbprintf>:
   22d08:	28c0038b 	ldhu	r3,14(r5)
   22d0c:	2880030b 	ldhu	r2,12(r5)
   22d10:	2ac01917 	ldw	r11,100(r5)
   22d14:	1806943a 	slli	r3,r3,16
   22d18:	2a800717 	ldw	r10,28(r5)
   22d1c:	2a400917 	ldw	r9,36(r5)
   22d20:	defee204 	addi	sp,sp,-1144
   22d24:	10bfff4c 	andi	r2,r2,65533
   22d28:	10c4b03a 	or	r2,r2,r3
   22d2c:	da001a04 	addi	r8,sp,104
   22d30:	00c10004 	movi	r3,1024
   22d34:	dc011a15 	stw	r16,1128(sp)
   22d38:	2821883a 	mov	r16,r5
   22d3c:	d80b883a 	mov	r5,sp
   22d40:	dc811c15 	stw	r18,1136(sp)
   22d44:	dc411b15 	stw	r17,1132(sp)
   22d48:	dfc11d15 	stw	ra,1140(sp)
   22d4c:	2025883a 	mov	r18,r4
   22d50:	dac01915 	stw	r11,100(sp)
   22d54:	d8800315 	stw	r2,12(sp)
   22d58:	da800715 	stw	r10,28(sp)
   22d5c:	da400915 	stw	r9,36(sp)
   22d60:	da000015 	stw	r8,0(sp)
   22d64:	da000415 	stw	r8,16(sp)
   22d68:	d8c00215 	stw	r3,8(sp)
   22d6c:	d8c00515 	stw	r3,20(sp)
   22d70:	d8000615 	stw	zero,24(sp)
   22d74:	00209680 	call	20968 <___vfprintf_internal_r>
   22d78:	1023883a 	mov	r17,r2
   22d7c:	10000d0e 	bge	r2,zero,22db4 <__sbprintf+0xac>
   22d80:	d880030b 	ldhu	r2,12(sp)
   22d84:	1080100c 	andi	r2,r2,64
   22d88:	10000326 	beq	r2,zero,22d98 <__sbprintf+0x90>
   22d8c:	8080030b 	ldhu	r2,12(r16)
   22d90:	10801014 	ori	r2,r2,64
   22d94:	8080030d 	sth	r2,12(r16)
   22d98:	8805883a 	mov	r2,r17
   22d9c:	dfc11d17 	ldw	ra,1140(sp)
   22da0:	dc811c17 	ldw	r18,1136(sp)
   22da4:	dc411b17 	ldw	r17,1132(sp)
   22da8:	dc011a17 	ldw	r16,1128(sp)
   22dac:	dec11e04 	addi	sp,sp,1144
   22db0:	f800283a 	ret
   22db4:	d80b883a 	mov	r5,sp
   22db8:	9009883a 	mov	r4,r18
   22dbc:	002445c0 	call	2445c <_fflush_r>
   22dc0:	103fef26 	beq	r2,zero,22d80 <__sbprintf+0x78>
   22dc4:	047fffc4 	movi	r17,-1
   22dc8:	003fed06 	br	22d80 <__sbprintf+0x78>

00022dcc <__sprint_r.part.0>:
   22dcc:	28801917 	ldw	r2,100(r5)
   22dd0:	defff604 	addi	sp,sp,-40
   22dd4:	dcc00315 	stw	r19,12(sp)
   22dd8:	dfc00915 	stw	ra,36(sp)
   22ddc:	df000815 	stw	fp,32(sp)
   22de0:	ddc00715 	stw	r23,28(sp)
   22de4:	dd800615 	stw	r22,24(sp)
   22de8:	dd400515 	stw	r21,20(sp)
   22dec:	dd000415 	stw	r20,16(sp)
   22df0:	dc800215 	stw	r18,8(sp)
   22df4:	dc400115 	stw	r17,4(sp)
   22df8:	dc000015 	stw	r16,0(sp)
   22dfc:	1088000c 	andi	r2,r2,8192
   22e00:	3027883a 	mov	r19,r6
   22e04:	10002c26 	beq	r2,zero,22eb8 <__sprint_r.part.0+0xec>
   22e08:	30800217 	ldw	r2,8(r6)
   22e0c:	35000017 	ldw	r20,0(r6)
   22e10:	2821883a 	mov	r16,r5
   22e14:	2023883a 	mov	r17,r4
   22e18:	05bfff04 	movi	r22,-4
   22e1c:	10002426 	beq	r2,zero,22eb0 <__sprint_r.part.0+0xe4>
   22e20:	a5400117 	ldw	r21,4(r20)
   22e24:	a5c00017 	ldw	r23,0(r20)
   22e28:	a824d0ba 	srli	r18,r21,2
   22e2c:	90001b26 	beq	r18,zero,22e9c <__sprint_r.part.0+0xd0>
   22e30:	0039883a 	mov	fp,zero
   22e34:	00000206 	br	22e40 <__sprint_r.part.0+0x74>
   22e38:	bdc00104 	addi	r23,r23,4
   22e3c:	97001626 	beq	r18,fp,22e98 <__sprint_r.part.0+0xcc>
   22e40:	b9400017 	ldw	r5,0(r23)
   22e44:	800d883a 	mov	r6,r16
   22e48:	8809883a 	mov	r4,r17
   22e4c:	00252040 	call	25204 <_fputwc_r>
   22e50:	10bfffe0 	cmpeqi	r2,r2,-1
   22e54:	e7000044 	addi	fp,fp,1
   22e58:	103ff726 	beq	r2,zero,22e38 <__sprint_r.part.0+0x6c>
   22e5c:	00bfffc4 	movi	r2,-1
   22e60:	98000215 	stw	zero,8(r19)
   22e64:	98000115 	stw	zero,4(r19)
   22e68:	dfc00917 	ldw	ra,36(sp)
   22e6c:	df000817 	ldw	fp,32(sp)
   22e70:	ddc00717 	ldw	r23,28(sp)
   22e74:	dd800617 	ldw	r22,24(sp)
   22e78:	dd400517 	ldw	r21,20(sp)
   22e7c:	dd000417 	ldw	r20,16(sp)
   22e80:	dcc00317 	ldw	r19,12(sp)
   22e84:	dc800217 	ldw	r18,8(sp)
   22e88:	dc400117 	ldw	r17,4(sp)
   22e8c:	dc000017 	ldw	r16,0(sp)
   22e90:	dec00a04 	addi	sp,sp,40
   22e94:	f800283a 	ret
   22e98:	98800217 	ldw	r2,8(r19)
   22e9c:	adaa703a 	and	r21,r21,r22
   22ea0:	1545c83a 	sub	r2,r2,r21
   22ea4:	98800215 	stw	r2,8(r19)
   22ea8:	a5000204 	addi	r20,r20,8
   22eac:	103fdc1e 	bne	r2,zero,22e20 <__sprint_r.part.0+0x54>
   22eb0:	0005883a 	mov	r2,zero
   22eb4:	003fea06 	br	22e60 <__sprint_r.part.0+0x94>
   22eb8:	00248d40 	call	248d4 <__sfvwrite_r>
   22ebc:	003fe806 	br	22e60 <__sprint_r.part.0+0x94>

00022ec0 <__sprint_r>:
   22ec0:	30c00217 	ldw	r3,8(r6)
   22ec4:	18000126 	beq	r3,zero,22ecc <__sprint_r+0xc>
   22ec8:	0022dcc1 	jmpi	22dcc <__sprint_r.part.0>
   22ecc:	30000115 	stw	zero,4(r6)
   22ed0:	0005883a 	mov	r2,zero
   22ed4:	f800283a 	ret

00022ed8 <___vfiprintf_internal_r>:
   22ed8:	deffcf04 	addi	sp,sp,-196
   22edc:	dd002b15 	stw	r20,172(sp)
   22ee0:	dc802915 	stw	r18,164(sp)
   22ee4:	dfc03015 	stw	ra,192(sp)
   22ee8:	df002f15 	stw	fp,188(sp)
   22eec:	ddc02e15 	stw	r23,184(sp)
   22ef0:	dd802d15 	stw	r22,180(sp)
   22ef4:	dd402c15 	stw	r21,176(sp)
   22ef8:	dcc02a15 	stw	r19,168(sp)
   22efc:	dc402815 	stw	r17,160(sp)
   22f00:	dc002715 	stw	r16,156(sp)
   22f04:	d9000015 	stw	r4,0(sp)
   22f08:	d9c00315 	stw	r7,12(sp)
   22f0c:	2825883a 	mov	r18,r5
   22f10:	3029883a 	mov	r20,r6
   22f14:	20000226 	beq	r4,zero,22f20 <___vfiprintf_internal_r+0x48>
   22f18:	20800d17 	ldw	r2,52(r4)
   22f1c:	10044f26 	beq	r2,zero,2405c <___vfiprintf_internal_r+0x1184>
   22f20:	9080030b 	ldhu	r2,12(r18)
   22f24:	10c8000c 	andi	r3,r2,8192
   22f28:	1800071e 	bne	r3,zero,22f48 <___vfiprintf_internal_r+0x70>
   22f2c:	90c01917 	ldw	r3,100(r18)
   22f30:	11080014 	ori	r4,r2,8192
   22f34:	00b7ffc4 	movi	r2,-8193
   22f38:	1886703a 	and	r3,r3,r2
   22f3c:	9100030d 	sth	r4,12(r18)
   22f40:	2005883a 	mov	r2,r4
   22f44:	90c01915 	stw	r3,100(r18)
   22f48:	10c0020c 	andi	r3,r2,8
   22f4c:	1800ff26 	beq	r3,zero,2334c <___vfiprintf_internal_r+0x474>
   22f50:	90c00417 	ldw	r3,16(r18)
   22f54:	1800fd26 	beq	r3,zero,2334c <___vfiprintf_internal_r+0x474>
   22f58:	1080068c 	andi	r2,r2,26
   22f5c:	10800298 	cmpnei	r2,r2,10
   22f60:	10010226 	beq	r2,zero,2336c <___vfiprintf_internal_r+0x494>
   22f64:	dcc01704 	addi	r19,sp,92
   22f68:	05c000f4 	movhi	r23,3
   22f6c:	dcc00a15 	stw	r19,40(sp)
   22f70:	d8000c15 	stw	zero,48(sp)
   22f74:	d8000b15 	stw	zero,44(sp)
   22f78:	9811883a 	mov	r8,r19
   22f7c:	d8000515 	stw	zero,20(sp)
   22f80:	d8000115 	stw	zero,4(sp)
   22f84:	bdc12d04 	addi	r23,r23,1204
   22f88:	a0800007 	ldb	r2,0(r20)
   22f8c:	1000dd26 	beq	r2,zero,23304 <___vfiprintf_internal_r+0x42c>
   22f90:	a021883a 	mov	r16,r20
   22f94:	00000306 	br	22fa4 <___vfiprintf_internal_r+0xcc>
   22f98:	80800047 	ldb	r2,1(r16)
   22f9c:	84000044 	addi	r16,r16,1
   22fa0:	10011a26 	beq	r2,zero,2340c <___vfiprintf_internal_r+0x534>
   22fa4:	10800958 	cmpnei	r2,r2,37
   22fa8:	103ffb1e 	bne	r2,zero,22f98 <___vfiprintf_internal_r+0xc0>
   22fac:	8523c83a 	sub	r17,r16,r20
   22fb0:	8501181e 	bne	r16,r20,23414 <___vfiprintf_internal_r+0x53c>
   22fb4:	80800003 	ldbu	r2,0(r16)
   22fb8:	10803fcc 	andi	r2,r2,255
   22fbc:	1080201c 	xori	r2,r2,128
   22fc0:	10bfe004 	addi	r2,r2,-128
   22fc4:	1000cf26 	beq	r2,zero,23304 <___vfiprintf_internal_r+0x42c>
   22fc8:	80800047 	ldb	r2,1(r16)
   22fcc:	85000044 	addi	r20,r16,1
   22fd0:	d8000945 	stb	zero,37(sp)
   22fd4:	027fffc4 	movi	r9,-1
   22fd8:	0023883a 	mov	r17,zero
   22fdc:	0021883a 	mov	r16,zero
   22fe0:	a5000044 	addi	r20,r20,1
   22fe4:	10fff804 	addi	r3,r2,-32
   22fe8:	19001668 	cmpgeui	r4,r3,89
   22fec:	20006c1e 	bne	r4,zero,231a0 <___vfiprintf_internal_r+0x2c8>
   22ff0:	180690ba 	slli	r3,r3,2
   22ff4:	010000b4 	movhi	r4,2
   22ff8:	1909883a 	add	r4,r3,r4
   22ffc:	20cc0117 	ldw	r3,12292(r4)
   23000:	1800683a 	jmp	r3
   23004:	000236a0 	cmpeqi	zero,zero,2266
   23008:	000231a0 	cmpeqi	zero,zero,2246
   2300c:	000231a0 	cmpeqi	zero,zero,2246
   23010:	00023694 	movui	zero,2266
   23014:	000231a0 	cmpeqi	zero,zero,2246
   23018:	000231a0 	cmpeqi	zero,zero,2246
   2301c:	000231a0 	cmpeqi	zero,zero,2246
   23020:	000231a0 	cmpeqi	zero,zero,2246
   23024:	000231a0 	cmpeqi	zero,zero,2246
   23028:	000231a0 	cmpeqi	zero,zero,2246
   2302c:	00023608 	cmpgei	zero,zero,2264
   23030:	00023684 	movi	zero,2266
   23034:	000231a0 	cmpeqi	zero,zero,2246
   23038:	00023620 	cmpeqi	zero,zero,2264
   2303c:	0002362c 	andhi	zero,zero,2264
   23040:	000231a0 	cmpeqi	zero,zero,2246
   23044:	00023678 	rdprs	zero,zero,2265
   23048:	00023168 	cmpgeui	zero,zero,2245
   2304c:	00023168 	cmpgeui	zero,zero,2245
   23050:	00023168 	cmpgeui	zero,zero,2245
   23054:	00023168 	cmpgeui	zero,zero,2245
   23058:	00023168 	cmpgeui	zero,zero,2245
   2305c:	00023168 	cmpgeui	zero,zero,2245
   23060:	00023168 	cmpgeui	zero,zero,2245
   23064:	00023168 	cmpgeui	zero,zero,2245
   23068:	00023168 	cmpgeui	zero,zero,2245
   2306c:	000231a0 	cmpeqi	zero,zero,2246
   23070:	000231a0 	cmpeqi	zero,zero,2246
   23074:	000231a0 	cmpeqi	zero,zero,2246
   23078:	000231a0 	cmpeqi	zero,zero,2246
   2307c:	000231a0 	cmpeqi	zero,zero,2246
   23080:	000231a0 	cmpeqi	zero,zero,2246
   23084:	000231a0 	cmpeqi	zero,zero,2246
   23088:	000231a0 	cmpeqi	zero,zero,2246
   2308c:	000231a0 	cmpeqi	zero,zero,2246
   23090:	000231a0 	cmpeqi	zero,zero,2246
   23094:	000233b4 	movhi	zero,2254
   23098:	000231a0 	cmpeqi	zero,zero,2246
   2309c:	000231a0 	cmpeqi	zero,zero,2246
   230a0:	000231a0 	cmpeqi	zero,zero,2246
   230a4:	000231a0 	cmpeqi	zero,zero,2246
   230a8:	000231a0 	cmpeqi	zero,zero,2246
   230ac:	000231a0 	cmpeqi	zero,zero,2246
   230b0:	000231a0 	cmpeqi	zero,zero,2246
   230b4:	000231a0 	cmpeqi	zero,zero,2246
   230b8:	000231a0 	cmpeqi	zero,zero,2246
   230bc:	000231a0 	cmpeqi	zero,zero,2246
   230c0:	000237bc 	xorhi	zero,zero,2270
   230c4:	000231a0 	cmpeqi	zero,zero,2246
   230c8:	000231a0 	cmpeqi	zero,zero,2246
   230cc:	000231a0 	cmpeqi	zero,zero,2246
   230d0:	000231a0 	cmpeqi	zero,zero,2246
   230d4:	000231a0 	cmpeqi	zero,zero,2246
   230d8:	00023758 	cmpnei	zero,zero,2269
   230dc:	000231a0 	cmpeqi	zero,zero,2246
   230e0:	000231a0 	cmpeqi	zero,zero,2246
   230e4:	00023f4c 	andi	zero,zero,2301
   230e8:	000231a0 	cmpeqi	zero,zero,2246
   230ec:	000231a0 	cmpeqi	zero,zero,2246
   230f0:	000231a0 	cmpeqi	zero,zero,2246
   230f4:	000231a0 	cmpeqi	zero,zero,2246
   230f8:	000231a0 	cmpeqi	zero,zero,2246
   230fc:	000231a0 	cmpeqi	zero,zero,2246
   23100:	000231a0 	cmpeqi	zero,zero,2246
   23104:	000231a0 	cmpeqi	zero,zero,2246
   23108:	000231a0 	cmpeqi	zero,zero,2246
   2310c:	000231a0 	cmpeqi	zero,zero,2246
   23110:	00023730 	cmpltui	zero,zero,2268
   23114:	000233b8 	rdprs	zero,zero,2254
   23118:	000231a0 	cmpeqi	zero,zero,2246
   2311c:	000231a0 	cmpeqi	zero,zero,2246
   23120:	000231a0 	cmpeqi	zero,zero,2246
   23124:	00023724 	muli	zero,zero,2268
   23128:	000233b8 	rdprs	zero,zero,2254
   2312c:	000231a0 	cmpeqi	zero,zero,2246
   23130:	000231a0 	cmpeqi	zero,zero,2246
   23134:	00023710 	cmplti	zero,zero,2268
   23138:	000231a0 	cmpeqi	zero,zero,2246
   2313c:	000236e0 	cmpeqi	zero,zero,2267
   23140:	00023fa8 	cmpgeui	zero,zero,2302
   23144:	000238dc 	xori	zero,zero,2275
   23148:	000238d0 	cmplti	zero,zero,2275
   2314c:	000231a0 	cmpeqi	zero,zero,2246
   23150:	0002386c 	andhi	zero,zero,2273
   23154:	000231a0 	cmpeqi	zero,zero,2246
   23158:	00023f44 	movi	zero,2301
   2315c:	000231a0 	cmpeqi	zero,zero,2246
   23160:	000231a0 	cmpeqi	zero,zero,2246
   23164:	00023fb0 	cmpltui	zero,zero,2302
   23168:	0023883a 	mov	r17,zero
   2316c:	113ff404 	addi	r4,r2,-48
   23170:	880690ba 	slli	r3,r17,2
   23174:	a0800007 	ldb	r2,0(r20)
   23178:	a5000044 	addi	r20,r20,1
   2317c:	1c47883a 	add	r3,r3,r17
   23180:	18c7883a 	add	r3,r3,r3
   23184:	20e3883a 	add	r17,r4,r3
   23188:	113ff404 	addi	r4,r2,-48
   2318c:	20c002b0 	cmpltui	r3,r4,10
   23190:	183ff71e 	bne	r3,zero,23170 <___vfiprintf_internal_r+0x298>
   23194:	10fff804 	addi	r3,r2,-32
   23198:	19001668 	cmpgeui	r4,r3,89
   2319c:	203f9426 	beq	r4,zero,22ff0 <___vfiprintf_internal_r+0x118>
   231a0:	10005826 	beq	r2,zero,23304 <___vfiprintf_internal_r+0x42c>
   231a4:	d8800d05 	stb	r2,52(sp)
   231a8:	d8000945 	stb	zero,37(sp)
   231ac:	05800044 	movi	r22,1
   231b0:	05400044 	movi	r21,1
   231b4:	df000d04 	addi	fp,sp,52
   231b8:	0013883a 	mov	r9,zero
   231bc:	8340008c 	andi	r13,r16,2
   231c0:	68000126 	beq	r13,zero,231c8 <___vfiprintf_internal_r+0x2f0>
   231c4:	b5800084 	addi	r22,r22,2
   231c8:	d9000b17 	ldw	r4,44(sp)
   231cc:	8300210c 	andi	r12,r16,132
   231d0:	d8800c17 	ldw	r2,48(sp)
   231d4:	21800044 	addi	r6,r4,1
   231d8:	300b883a 	mov	r5,r6
   231dc:	6000021e 	bne	r12,zero,231e8 <___vfiprintf_internal_r+0x310>
   231e0:	8d87c83a 	sub	r3,r17,r22
   231e4:	00c29216 	blt	zero,r3,23c30 <___vfiprintf_internal_r+0xd58>
   231e8:	d8c00947 	ldb	r3,37(sp)
   231ec:	18000c26 	beq	r3,zero,23220 <___vfiprintf_internal_r+0x348>
   231f0:	d8c00944 	addi	r3,sp,37
   231f4:	10800044 	addi	r2,r2,1
   231f8:	40c00015 	stw	r3,0(r8)
   231fc:	00c00044 	movi	r3,1
   23200:	40c00115 	stw	r3,4(r8)
   23204:	d8800c15 	stw	r2,48(sp)
   23208:	d9400b15 	stw	r5,44(sp)
   2320c:	28c00208 	cmpgei	r3,r5,8
   23210:	18026b1e 	bne	r3,zero,23bc0 <___vfiprintf_internal_r+0xce8>
   23214:	2809883a 	mov	r4,r5
   23218:	42000204 	addi	r8,r8,8
   2321c:	29400044 	addi	r5,r5,1
   23220:	68001726 	beq	r13,zero,23280 <___vfiprintf_internal_r+0x3a8>
   23224:	d8c00984 	addi	r3,sp,38
   23228:	10800084 	addi	r2,r2,2
   2322c:	40c00015 	stw	r3,0(r8)
   23230:	00c00084 	movi	r3,2
   23234:	40c00115 	stw	r3,4(r8)
   23238:	d8800c15 	stw	r2,48(sp)
   2323c:	d9400b15 	stw	r5,44(sp)
   23240:	28c00208 	cmpgei	r3,r5,8
   23244:	18027626 	beq	r3,zero,23c20 <___vfiprintf_internal_r+0xd48>
   23248:	1002f926 	beq	r2,zero,23e30 <___vfiprintf_internal_r+0xf58>
   2324c:	d9000017 	ldw	r4,0(sp)
   23250:	d9800a04 	addi	r6,sp,40
   23254:	900b883a 	mov	r5,r18
   23258:	da400415 	stw	r9,16(sp)
   2325c:	db000215 	stw	r12,8(sp)
   23260:	0022dcc0 	call	22dcc <__sprint_r.part.0>
   23264:	1000291e 	bne	r2,zero,2330c <___vfiprintf_internal_r+0x434>
   23268:	d9000b17 	ldw	r4,44(sp)
   2326c:	d8800c17 	ldw	r2,48(sp)
   23270:	da400417 	ldw	r9,16(sp)
   23274:	db000217 	ldw	r12,8(sp)
   23278:	9811883a 	mov	r8,r19
   2327c:	21400044 	addi	r5,r4,1
   23280:	63002018 	cmpnei	r12,r12,128
   23284:	6001d226 	beq	r12,zero,239d0 <___vfiprintf_internal_r+0xaf8>
   23288:	4d53c83a 	sub	r9,r9,r21
   2328c:	02421016 	blt	zero,r9,23ad0 <___vfiprintf_internal_r+0xbf8>
   23290:	a885883a 	add	r2,r21,r2
   23294:	d9400b15 	stw	r5,44(sp)
   23298:	47000015 	stw	fp,0(r8)
   2329c:	45400115 	stw	r21,4(r8)
   232a0:	d8800c15 	stw	r2,48(sp)
   232a4:	29400208 	cmpgei	r5,r5,8
   232a8:	2801c326 	beq	r5,zero,239b8 <___vfiprintf_internal_r+0xae0>
   232ac:	10007126 	beq	r2,zero,23474 <___vfiprintf_internal_r+0x59c>
   232b0:	d9000017 	ldw	r4,0(sp)
   232b4:	d9800a04 	addi	r6,sp,40
   232b8:	900b883a 	mov	r5,r18
   232bc:	0022dcc0 	call	22dcc <__sprint_r.part.0>
   232c0:	1000121e 	bne	r2,zero,2330c <___vfiprintf_internal_r+0x434>
   232c4:	d8800c17 	ldw	r2,48(sp)
   232c8:	9811883a 	mov	r8,r19
   232cc:	8400010c 	andi	r16,r16,4
   232d0:	80000226 	beq	r16,zero,232dc <___vfiprintf_internal_r+0x404>
   232d4:	8da1c83a 	sub	r16,r17,r22
   232d8:	04006c16 	blt	zero,r16,2348c <___vfiprintf_internal_r+0x5b4>
   232dc:	8d80010e 	bge	r17,r22,232e4 <___vfiprintf_internal_r+0x40c>
   232e0:	b023883a 	mov	r17,r22
   232e4:	d8c00117 	ldw	r3,4(sp)
   232e8:	1c47883a 	add	r3,r3,r17
   232ec:	d8c00115 	stw	r3,4(sp)
   232f0:	1002291e 	bne	r2,zero,23b98 <___vfiprintf_internal_r+0xcc0>
   232f4:	a0800007 	ldb	r2,0(r20)
   232f8:	d8000b15 	stw	zero,44(sp)
   232fc:	9811883a 	mov	r8,r19
   23300:	103f231e 	bne	r2,zero,22f90 <___vfiprintf_internal_r+0xb8>
   23304:	d8800c17 	ldw	r2,48(sp)
   23308:	10036c1e 	bne	r2,zero,240bc <___vfiprintf_internal_r+0x11e4>
   2330c:	9080030b 	ldhu	r2,12(r18)
   23310:	1080100c 	andi	r2,r2,64
   23314:	10037d1e 	bne	r2,zero,2410c <___vfiprintf_internal_r+0x1234>
   23318:	d8800117 	ldw	r2,4(sp)
   2331c:	dfc03017 	ldw	ra,192(sp)
   23320:	df002f17 	ldw	fp,188(sp)
   23324:	ddc02e17 	ldw	r23,184(sp)
   23328:	dd802d17 	ldw	r22,180(sp)
   2332c:	dd402c17 	ldw	r21,176(sp)
   23330:	dd002b17 	ldw	r20,172(sp)
   23334:	dcc02a17 	ldw	r19,168(sp)
   23338:	dc802917 	ldw	r18,164(sp)
   2333c:	dc402817 	ldw	r17,160(sp)
   23340:	dc002717 	ldw	r16,156(sp)
   23344:	dec03104 	addi	sp,sp,196
   23348:	f800283a 	ret
   2334c:	d9000017 	ldw	r4,0(sp)
   23350:	900b883a 	mov	r5,r18
   23354:	0024f5c0 	call	24f5c <__swsetup_r>
   23358:	10036c1e 	bne	r2,zero,2410c <___vfiprintf_internal_r+0x1234>
   2335c:	9080030b 	ldhu	r2,12(r18)
   23360:	1080068c 	andi	r2,r2,26
   23364:	10800298 	cmpnei	r2,r2,10
   23368:	103efe1e 	bne	r2,zero,22f64 <___vfiprintf_internal_r+0x8c>
   2336c:	9080038f 	ldh	r2,14(r18)
   23370:	103efc16 	blt	r2,zero,22f64 <___vfiprintf_internal_r+0x8c>
   23374:	d9c00317 	ldw	r7,12(sp)
   23378:	d9000017 	ldw	r4,0(sp)
   2337c:	a00d883a 	mov	r6,r20
   23380:	900b883a 	mov	r5,r18
   23384:	dfc03017 	ldw	ra,192(sp)
   23388:	df002f17 	ldw	fp,188(sp)
   2338c:	ddc02e17 	ldw	r23,184(sp)
   23390:	dd802d17 	ldw	r22,180(sp)
   23394:	dd402c17 	ldw	r21,176(sp)
   23398:	dd002b17 	ldw	r20,172(sp)
   2339c:	dcc02a17 	ldw	r19,168(sp)
   233a0:	dc802917 	ldw	r18,164(sp)
   233a4:	dc402817 	ldw	r17,160(sp)
   233a8:	dc002717 	ldw	r16,156(sp)
   233ac:	dec03104 	addi	sp,sp,196
   233b0:	00241901 	jmpi	24190 <__sbprintf>
   233b4:	84000414 	ori	r16,r16,16
   233b8:	8080080c 	andi	r2,r16,32
   233bc:	10006626 	beq	r2,zero,23558 <___vfiprintf_internal_r+0x680>
   233c0:	d8c00317 	ldw	r3,12(sp)
   233c4:	18800117 	ldw	r2,4(r3)
   233c8:	1d800017 	ldw	r22,0(r3)
   233cc:	18c00204 	addi	r3,r3,8
   233d0:	d8c00315 	stw	r3,12(sp)
   233d4:	102b883a 	mov	r21,r2
   233d8:	10006d16 	blt	r2,zero,23590 <___vfiprintf_internal_r+0x6b8>
   233dc:	48bfffd8 	cmpnei	r2,r9,-1
   233e0:	db000943 	ldbu	r12,37(sp)
   233e4:	10007526 	beq	r2,zero,235bc <___vfiprintf_internal_r+0x6e4>
   233e8:	00ffdfc4 	movi	r3,-129
   233ec:	b544b03a 	or	r2,r22,r21
   233f0:	80e0703a 	and	r16,r16,r3
   233f4:	1000711e 	bne	r2,zero,235bc <___vfiprintf_internal_r+0x6e4>
   233f8:	4803471e 	bne	r9,zero,24118 <___vfiprintf_internal_r+0x1240>
   233fc:	002d883a 	mov	r22,zero
   23400:	002b883a 	mov	r21,zero
   23404:	9839883a 	mov	fp,r19
   23408:	00007606 	br	235e4 <___vfiprintf_internal_r+0x70c>
   2340c:	8523c83a 	sub	r17,r16,r20
   23410:	853fbc26 	beq	r16,r20,23304 <___vfiprintf_internal_r+0x42c>
   23414:	d8c00c17 	ldw	r3,48(sp)
   23418:	d8800b17 	ldw	r2,44(sp)
   2341c:	45000015 	stw	r20,0(r8)
   23420:	88c7883a 	add	r3,r17,r3
   23424:	10800044 	addi	r2,r2,1
   23428:	d8800b15 	stw	r2,44(sp)
   2342c:	44400115 	stw	r17,4(r8)
   23430:	d8c00c15 	stw	r3,48(sp)
   23434:	10800208 	cmpgei	r2,r2,8
   23438:	1000061e 	bne	r2,zero,23454 <___vfiprintf_internal_r+0x57c>
   2343c:	42000204 	addi	r8,r8,8
   23440:	d8c00117 	ldw	r3,4(sp)
   23444:	80800003 	ldbu	r2,0(r16)
   23448:	1c47883a 	add	r3,r3,r17
   2344c:	d8c00115 	stw	r3,4(sp)
   23450:	003ed906 	br	22fb8 <___vfiprintf_internal_r+0xe0>
   23454:	18025526 	beq	r3,zero,23dac <___vfiprintf_internal_r+0xed4>
   23458:	d9000017 	ldw	r4,0(sp)
   2345c:	d9800a04 	addi	r6,sp,40
   23460:	900b883a 	mov	r5,r18
   23464:	0022dcc0 	call	22dcc <__sprint_r.part.0>
   23468:	103fa81e 	bne	r2,zero,2330c <___vfiprintf_internal_r+0x434>
   2346c:	9811883a 	mov	r8,r19
   23470:	003ff306 	br	23440 <___vfiprintf_internal_r+0x568>
   23474:	d8000b15 	stw	zero,44(sp)
   23478:	8400010c 	andi	r16,r16,4
   2347c:	80022726 	beq	r16,zero,23d1c <___vfiprintf_internal_r+0xe44>
   23480:	8da1c83a 	sub	r16,r17,r22
   23484:	0402250e 	bge	zero,r16,23d1c <___vfiprintf_internal_r+0xe44>
   23488:	9811883a 	mov	r8,r19
   2348c:	80c00450 	cmplti	r3,r16,17
   23490:	d9000b17 	ldw	r4,44(sp)
   23494:	01c000f4 	movhi	r7,3
   23498:	1803141e 	bne	r3,zero,240ec <___vfiprintf_internal_r+0x1214>
   2349c:	39c13104 	addi	r7,r7,1220
   234a0:	05400404 	movi	r21,16
   234a4:	00000606 	br	234c0 <___vfiprintf_internal_r+0x5e8>
   234a8:	21400084 	addi	r5,r4,2
   234ac:	42000204 	addi	r8,r8,8
   234b0:	1809883a 	mov	r4,r3
   234b4:	843ffc04 	addi	r16,r16,-16
   234b8:	80c00448 	cmpgei	r3,r16,17
   234bc:	18001726 	beq	r3,zero,2351c <___vfiprintf_internal_r+0x644>
   234c0:	20c00044 	addi	r3,r4,1
   234c4:	10800404 	addi	r2,r2,16
   234c8:	41c00015 	stw	r7,0(r8)
   234cc:	45400115 	stw	r21,4(r8)
   234d0:	d8800c15 	stw	r2,48(sp)
   234d4:	d8c00b15 	stw	r3,44(sp)
   234d8:	19400208 	cmpgei	r5,r3,8
   234dc:	283ff226 	beq	r5,zero,234a8 <___vfiprintf_internal_r+0x5d0>
   234e0:	d9000017 	ldw	r4,0(sp)
   234e4:	d9800a04 	addi	r6,sp,40
   234e8:	900b883a 	mov	r5,r18
   234ec:	10013426 	beq	r2,zero,239c0 <___vfiprintf_internal_r+0xae8>
   234f0:	d9c00215 	stw	r7,8(sp)
   234f4:	0022dcc0 	call	22dcc <__sprint_r.part.0>
   234f8:	103f841e 	bne	r2,zero,2330c <___vfiprintf_internal_r+0x434>
   234fc:	d9000b17 	ldw	r4,44(sp)
   23500:	843ffc04 	addi	r16,r16,-16
   23504:	80c00448 	cmpgei	r3,r16,17
   23508:	d8800c17 	ldw	r2,48(sp)
   2350c:	d9c00217 	ldw	r7,8(sp)
   23510:	9811883a 	mov	r8,r19
   23514:	21400044 	addi	r5,r4,1
   23518:	183fe91e 	bne	r3,zero,234c0 <___vfiprintf_internal_r+0x5e8>
   2351c:	1405883a 	add	r2,r2,r16
   23520:	d9400b15 	stw	r5,44(sp)
   23524:	41c00015 	stw	r7,0(r8)
   23528:	44000115 	stw	r16,4(r8)
   2352c:	d8800c15 	stw	r2,48(sp)
   23530:	29400210 	cmplti	r5,r5,8
   23534:	283f691e 	bne	r5,zero,232dc <___vfiprintf_internal_r+0x404>
   23538:	1001f826 	beq	r2,zero,23d1c <___vfiprintf_internal_r+0xe44>
   2353c:	d9000017 	ldw	r4,0(sp)
   23540:	d9800a04 	addi	r6,sp,40
   23544:	900b883a 	mov	r5,r18
   23548:	0022dcc0 	call	22dcc <__sprint_r.part.0>
   2354c:	103f6f1e 	bne	r2,zero,2330c <___vfiprintf_internal_r+0x434>
   23550:	d8800c17 	ldw	r2,48(sp)
   23554:	003f6106 	br	232dc <___vfiprintf_internal_r+0x404>
   23558:	d8c00317 	ldw	r3,12(sp)
   2355c:	8080040c 	andi	r2,r16,16
   23560:	1d800017 	ldw	r22,0(r3)
   23564:	18c00104 	addi	r3,r3,4
   23568:	d8c00315 	stw	r3,12(sp)
   2356c:	1000231e 	bne	r2,zero,235fc <___vfiprintf_internal_r+0x724>
   23570:	8080100c 	andi	r2,r16,64
   23574:	10002126 	beq	r2,zero,235fc <___vfiprintf_internal_r+0x724>
   23578:	b5bfffcc 	andi	r22,r22,65535
   2357c:	b5a0001c 	xori	r22,r22,32768
   23580:	b5a00004 	addi	r22,r22,-32768
   23584:	b02bd7fa 	srai	r21,r22,31
   23588:	a805883a 	mov	r2,r21
   2358c:	103f930e 	bge	r2,zero,233dc <___vfiprintf_internal_r+0x504>
   23590:	00800b44 	movi	r2,45
   23594:	b006c03a 	cmpne	r3,r22,zero
   23598:	056bc83a 	sub	r21,zero,r21
   2359c:	d8800945 	stb	r2,37(sp)
   235a0:	48bfffd8 	cmpnei	r2,r9,-1
   235a4:	a8ebc83a 	sub	r21,r21,r3
   235a8:	05adc83a 	sub	r22,zero,r22
   235ac:	10000226 	beq	r2,zero,235b8 <___vfiprintf_internal_r+0x6e0>
   235b0:	00bfdfc4 	movi	r2,-129
   235b4:	80a0703a 	and	r16,r16,r2
   235b8:	03000b44 	movi	r12,45
   235bc:	a800d71e 	bne	r21,zero,2391c <___vfiprintf_internal_r+0xa44>
   235c0:	b08002a8 	cmpgeui	r2,r22,10
   235c4:	1000d51e 	bne	r2,zero,2391c <___vfiprintf_internal_r+0xa44>
   235c8:	b5800c04 	addi	r22,r22,48
   235cc:	dd8016c5 	stb	r22,91(sp)
   235d0:	482d883a 	mov	r22,r9
   235d4:	02400116 	blt	zero,r9,235dc <___vfiprintf_internal_r+0x704>
   235d8:	05800044 	movi	r22,1
   235dc:	05400044 	movi	r21,1
   235e0:	df0016c4 	addi	fp,sp,91
   235e4:	63003fcc 	andi	r12,r12,255
   235e8:	6300201c 	xori	r12,r12,128
   235ec:	633fe004 	addi	r12,r12,-128
   235f0:	603ef226 	beq	r12,zero,231bc <___vfiprintf_internal_r+0x2e4>
   235f4:	b5800044 	addi	r22,r22,1
   235f8:	003ef006 	br	231bc <___vfiprintf_internal_r+0x2e4>
   235fc:	b02bd7fa 	srai	r21,r22,31
   23600:	a805883a 	mov	r2,r21
   23604:	003f7406 	br	233d8 <___vfiprintf_internal_r+0x500>
   23608:	d8800317 	ldw	r2,12(sp)
   2360c:	14400017 	ldw	r17,0(r2)
   23610:	17000104 	addi	fp,r2,4
   23614:	8802250e 	bge	r17,zero,23eac <___vfiprintf_internal_r+0xfd4>
   23618:	0463c83a 	sub	r17,zero,r17
   2361c:	df000315 	stw	fp,12(sp)
   23620:	a0800007 	ldb	r2,0(r20)
   23624:	84000114 	ori	r16,r16,4
   23628:	003e6d06 	br	22fe0 <___vfiprintf_internal_r+0x108>
   2362c:	a0800007 	ldb	r2,0(r20)
   23630:	a0c00044 	addi	r3,r20,1
   23634:	11000aa0 	cmpeqi	r4,r2,42
   23638:	2002bc1e 	bne	r4,zero,2412c <___vfiprintf_internal_r+0x1254>
   2363c:	113ff404 	addi	r4,r2,-48
   23640:	214002b0 	cmpltui	r5,r4,10
   23644:	1829883a 	mov	r20,r3
   23648:	0013883a 	mov	r9,zero
   2364c:	283e6526 	beq	r5,zero,22fe4 <___vfiprintf_internal_r+0x10c>
   23650:	480690ba 	slli	r3,r9,2
   23654:	a0800007 	ldb	r2,0(r20)
   23658:	a5000044 	addi	r20,r20,1
   2365c:	1a47883a 	add	r3,r3,r9
   23660:	18c7883a 	add	r3,r3,r3
   23664:	1913883a 	add	r9,r3,r4
   23668:	113ff404 	addi	r4,r2,-48
   2366c:	20c002b0 	cmpltui	r3,r4,10
   23670:	183ff71e 	bne	r3,zero,23650 <___vfiprintf_internal_r+0x778>
   23674:	003e5b06 	br	22fe4 <___vfiprintf_internal_r+0x10c>
   23678:	a0800007 	ldb	r2,0(r20)
   2367c:	84002014 	ori	r16,r16,128
   23680:	003e5706 	br	22fe0 <___vfiprintf_internal_r+0x108>
   23684:	00c00ac4 	movi	r3,43
   23688:	a0800007 	ldb	r2,0(r20)
   2368c:	d8c00945 	stb	r3,37(sp)
   23690:	003e5306 	br	22fe0 <___vfiprintf_internal_r+0x108>
   23694:	a0800007 	ldb	r2,0(r20)
   23698:	84000054 	ori	r16,r16,1
   2369c:	003e5006 	br	22fe0 <___vfiprintf_internal_r+0x108>
   236a0:	d8c00947 	ldb	r3,37(sp)
   236a4:	a0800003 	ldbu	r2,0(r20)
   236a8:	1800091e 	bne	r3,zero,236d0 <___vfiprintf_internal_r+0x7f8>
   236ac:	10803fcc 	andi	r2,r2,255
   236b0:	00c00804 	movi	r3,32
   236b4:	1080201c 	xori	r2,r2,128
   236b8:	d8c00945 	stb	r3,37(sp)
   236bc:	10bfe004 	addi	r2,r2,-128
   236c0:	003e4706 	br	22fe0 <___vfiprintf_internal_r+0x108>
   236c4:	a0800043 	ldbu	r2,1(r20)
   236c8:	84000814 	ori	r16,r16,32
   236cc:	a5000044 	addi	r20,r20,1
   236d0:	10803fcc 	andi	r2,r2,255
   236d4:	1080201c 	xori	r2,r2,128
   236d8:	10bfe004 	addi	r2,r2,-128
   236dc:	003e4006 	br	22fe0 <___vfiprintf_internal_r+0x108>
   236e0:	8080080c 	andi	r2,r16,32
   236e4:	1001fb26 	beq	r2,zero,23ed4 <___vfiprintf_internal_r+0xffc>
   236e8:	d9000117 	ldw	r4,4(sp)
   236ec:	d8800317 	ldw	r2,12(sp)
   236f0:	2007d7fa 	srai	r3,r4,31
   236f4:	10800017 	ldw	r2,0(r2)
   236f8:	11000015 	stw	r4,0(r2)
   236fc:	10c00115 	stw	r3,4(r2)
   23700:	d8800317 	ldw	r2,12(sp)
   23704:	10800104 	addi	r2,r2,4
   23708:	d8800315 	stw	r2,12(sp)
   2370c:	003e1e06 	br	22f88 <___vfiprintf_internal_r+0xb0>
   23710:	a0800007 	ldb	r2,0(r20)
   23714:	10c01b18 	cmpnei	r3,r2,108
   23718:	183fea26 	beq	r3,zero,236c4 <___vfiprintf_internal_r+0x7ec>
   2371c:	84000414 	ori	r16,r16,16
   23720:	003e2f06 	br	22fe0 <___vfiprintf_internal_r+0x108>
   23724:	a0800007 	ldb	r2,0(r20)
   23728:	84001014 	ori	r16,r16,64
   2372c:	003e2c06 	br	22fe0 <___vfiprintf_internal_r+0x108>
   23730:	d8c00317 	ldw	r3,12(sp)
   23734:	d8000945 	stb	zero,37(sp)
   23738:	05800044 	movi	r22,1
   2373c:	18800017 	ldw	r2,0(r3)
   23740:	18c00104 	addi	r3,r3,4
   23744:	d8c00315 	stw	r3,12(sp)
   23748:	d8800d05 	stb	r2,52(sp)
   2374c:	05400044 	movi	r21,1
   23750:	df000d04 	addi	fp,sp,52
   23754:	003e9806 	br	231b8 <___vfiprintf_internal_r+0x2e0>
   23758:	80800414 	ori	r2,r16,16
   2375c:	10c0080c 	andi	r3,r2,32
   23760:	18019426 	beq	r3,zero,23db4 <___vfiprintf_internal_r+0xedc>
   23764:	d8c00317 	ldw	r3,12(sp)
   23768:	d8000945 	stb	zero,37(sp)
   2376c:	1d800017 	ldw	r22,0(r3)
   23770:	1d400117 	ldw	r21,4(r3)
   23774:	18c00204 	addi	r3,r3,8
   23778:	d8c00315 	stw	r3,12(sp)
   2377c:	48ffffd8 	cmpnei	r3,r9,-1
   23780:	18019926 	beq	r3,zero,23de8 <___vfiprintf_internal_r+0xf10>
   23784:	00c00044 	movi	r3,1
   23788:	043fdfc4 	movi	r16,-129
   2378c:	b548b03a 	or	r4,r22,r21
   23790:	1420703a 	and	r16,r2,r16
   23794:	2000191e 	bne	r4,zero,237fc <___vfiprintf_internal_r+0x924>
   23798:	4802291e 	bne	r9,zero,24040 <___vfiprintf_internal_r+0x1168>
   2379c:	1801bf1e 	bne	r3,zero,23e9c <___vfiprintf_internal_r+0xfc4>
   237a0:	1540004c 	andi	r21,r2,1
   237a4:	a801c426 	beq	r21,zero,23eb8 <___vfiprintf_internal_r+0xfe0>
   237a8:	00800c04 	movi	r2,48
   237ac:	d88016c5 	stb	r2,91(sp)
   237b0:	a82d883a 	mov	r22,r21
   237b4:	df0016c4 	addi	fp,sp,91
   237b8:	003e8006 	br	231bc <___vfiprintf_internal_r+0x2e4>
   237bc:	80800414 	ori	r2,r16,16
   237c0:	10c0080c 	andi	r3,r2,32
   237c4:	18018b26 	beq	r3,zero,23df4 <___vfiprintf_internal_r+0xf1c>
   237c8:	d8c00317 	ldw	r3,12(sp)
   237cc:	d8000945 	stb	zero,37(sp)
   237d0:	1d800017 	ldw	r22,0(r3)
   237d4:	1d400117 	ldw	r21,4(r3)
   237d8:	18c00204 	addi	r3,r3,8
   237dc:	d8c00315 	stw	r3,12(sp)
   237e0:	48ffffd8 	cmpnei	r3,r9,-1
   237e4:	18019026 	beq	r3,zero,23e28 <___vfiprintf_internal_r+0xf50>
   237e8:	043fdfc4 	movi	r16,-129
   237ec:	b548b03a 	or	r4,r22,r21
   237f0:	0007883a 	mov	r3,zero
   237f4:	1420703a 	and	r16,r2,r16
   237f8:	203fe726 	beq	r4,zero,23798 <___vfiprintf_internal_r+0x8c0>
   237fc:	18800060 	cmpeqi	r2,r3,1
   23800:	10025a1e 	bne	r2,zero,2416c <___vfiprintf_internal_r+0x1294>
   23804:	18c000a0 	cmpeqi	r3,r3,2
   23808:	18014b1e 	bne	r3,zero,23d38 <___vfiprintf_internal_r+0xe60>
   2380c:	9839883a 	mov	fp,r19
   23810:	a808977a 	slli	r4,r21,29
   23814:	b006d0fa 	srli	r3,r22,3
   23818:	a82ad0fa 	srli	r21,r21,3
   2381c:	b08001cc 	andi	r2,r22,7
   23820:	10800c04 	addi	r2,r2,48
   23824:	20ecb03a 	or	r22,r4,r3
   23828:	e0bfffc5 	stb	r2,-1(fp)
   2382c:	b546b03a 	or	r3,r22,r21
   23830:	e00b883a 	mov	r5,fp
   23834:	e73fffc4 	addi	fp,fp,-1
   23838:	183ff51e 	bne	r3,zero,23810 <___vfiprintf_internal_r+0x938>
   2383c:	80c0004c 	andi	r3,r16,1
   23840:	18014a26 	beq	r3,zero,23d6c <___vfiprintf_internal_r+0xe94>
   23844:	10800c18 	cmpnei	r2,r2,48
   23848:	10014826 	beq	r2,zero,23d6c <___vfiprintf_internal_r+0xe94>
   2384c:	297fff84 	addi	r5,r5,-2
   23850:	00800c04 	movi	r2,48
   23854:	e0bfffc5 	stb	r2,-1(fp)
   23858:	996bc83a 	sub	r21,r19,r5
   2385c:	482d883a 	mov	r22,r9
   23860:	4d41a916 	blt	r9,r21,23f08 <___vfiprintf_internal_r+0x1030>
   23864:	2839883a 	mov	fp,r5
   23868:	003e5406 	br	231bc <___vfiprintf_internal_r+0x2e4>
   2386c:	d8800317 	ldw	r2,12(sp)
   23870:	d8000945 	stb	zero,37(sp)
   23874:	17000017 	ldw	fp,0(r2)
   23878:	10c00104 	addi	r3,r2,4
   2387c:	e001f926 	beq	fp,zero,24064 <___vfiprintf_internal_r+0x118c>
   23880:	48bfffe0 	cmpeqi	r2,r9,-1
   23884:	1001a31e 	bne	r2,zero,23f14 <___vfiprintf_internal_r+0x103c>
   23888:	480d883a 	mov	r6,r9
   2388c:	000b883a 	mov	r5,zero
   23890:	e009883a 	mov	r4,fp
   23894:	d8c00415 	stw	r3,16(sp)
   23898:	da000315 	stw	r8,12(sp)
   2389c:	da400215 	stw	r9,8(sp)
   238a0:	00252a00 	call	252a0 <memchr>
   238a4:	da400217 	ldw	r9,8(sp)
   238a8:	da000317 	ldw	r8,12(sp)
   238ac:	d8c00417 	ldw	r3,16(sp)
   238b0:	10020726 	beq	r2,zero,240d0 <___vfiprintf_internal_r+0x11f8>
   238b4:	172bc83a 	sub	r21,r2,fp
   238b8:	db000943 	ldbu	r12,37(sp)
   238bc:	a82d883a 	mov	r22,r21
   238c0:	a8019e16 	blt	r21,zero,23f3c <___vfiprintf_internal_r+0x1064>
   238c4:	d8c00315 	stw	r3,12(sp)
   238c8:	0013883a 	mov	r9,zero
   238cc:	003f4506 	br	235e4 <___vfiprintf_internal_r+0x70c>
   238d0:	a0800007 	ldb	r2,0(r20)
   238d4:	84000814 	ori	r16,r16,32
   238d8:	003dc106 	br	22fe0 <___vfiprintf_internal_r+0x108>
   238dc:	d9000317 	ldw	r4,12(sp)
   238e0:	00de0c04 	movi	r3,30768
   238e4:	014000f4 	movhi	r5,3
   238e8:	d8c0098d 	sth	r3,38(sp)
   238ec:	25800017 	ldw	r22,0(r4)
   238f0:	20c00104 	addi	r3,r4,4
   238f4:	d8c00315 	stw	r3,12(sp)
   238f8:	28c11d04 	addi	r3,r5,1140
   238fc:	002b883a 	mov	r21,zero
   23900:	80800094 	ori	r2,r16,2
   23904:	d8c00515 	stw	r3,20(sp)
   23908:	d8000945 	stb	zero,37(sp)
   2390c:	48ffffd8 	cmpnei	r3,r9,-1
   23910:	18010826 	beq	r3,zero,23d34 <___vfiprintf_internal_r+0xe5c>
   23914:	00c00084 	movi	r3,2
   23918:	003f9b06 	br	23788 <___vfiprintf_internal_r+0x8b0>
   2391c:	9839883a 	mov	fp,r19
   23920:	b009883a 	mov	r4,r22
   23924:	a80b883a 	mov	r5,r21
   23928:	01800284 	movi	r6,10
   2392c:	000f883a 	mov	r7,zero
   23930:	db000615 	stw	r12,24(sp)
   23934:	da000415 	stw	r8,16(sp)
   23938:	da400215 	stw	r9,8(sp)
   2393c:	002af200 	call	2af20 <__umoddi3>
   23940:	10800c04 	addi	r2,r2,48
   23944:	b009883a 	mov	r4,r22
   23948:	a80b883a 	mov	r5,r21
   2394c:	e0bfffc5 	stb	r2,-1(fp)
   23950:	01800284 	movi	r6,10
   23954:	000f883a 	mov	r7,zero
   23958:	002a9480 	call	2a948 <__udivdi3>
   2395c:	a809883a 	mov	r4,r21
   23960:	b00b883a 	mov	r5,r22
   23964:	da400217 	ldw	r9,8(sp)
   23968:	da000417 	ldw	r8,16(sp)
   2396c:	db000617 	ldw	r12,24(sp)
   23970:	e73fffc4 	addi	fp,fp,-1
   23974:	102d883a 	mov	r22,r2
   23978:	182b883a 	mov	r21,r3
   2397c:	203fe81e 	bne	r4,zero,23920 <___vfiprintf_internal_r+0xa48>
   23980:	294002a8 	cmpgeui	r5,r5,10
   23984:	283fe61e 	bne	r5,zero,23920 <___vfiprintf_internal_r+0xa48>
   23988:	9f2bc83a 	sub	r21,r19,fp
   2398c:	482d883a 	mov	r22,r9
   23990:	4d7f140e 	bge	r9,r21,235e4 <___vfiprintf_internal_r+0x70c>
   23994:	a82d883a 	mov	r22,r21
   23998:	003f1206 	br	235e4 <___vfiprintf_internal_r+0x70c>
   2399c:	00c00044 	movi	r3,1
   239a0:	a805883a 	mov	r2,r21
   239a4:	df001715 	stw	fp,92(sp)
   239a8:	dd401815 	stw	r21,96(sp)
   239ac:	dd400c15 	stw	r21,48(sp)
   239b0:	d8c00b15 	stw	r3,44(sp)
   239b4:	9811883a 	mov	r8,r19
   239b8:	42000204 	addi	r8,r8,8
   239bc:	003e4306 	br	232cc <___vfiprintf_internal_r+0x3f4>
   239c0:	01400044 	movi	r5,1
   239c4:	0009883a 	mov	r4,zero
   239c8:	9811883a 	mov	r8,r19
   239cc:	003eb906 	br	234b4 <___vfiprintf_internal_r+0x5dc>
   239d0:	8d87c83a 	sub	r3,r17,r22
   239d4:	00fe2c0e 	bge	zero,r3,23288 <___vfiprintf_internal_r+0x3b0>
   239d8:	19800450 	cmplti	r6,r3,17
   239dc:	3001c61e 	bne	r6,zero,240f8 <___vfiprintf_internal_r+0x1220>
   239e0:	014000f4 	movhi	r5,3
   239e4:	29412d04 	addi	r5,r5,1204
   239e8:	d9400415 	stw	r5,16(sp)
   239ec:	01c00404 	movi	r7,16
   239f0:	00000606 	br	23a0c <___vfiprintf_internal_r+0xb34>
   239f4:	21800084 	addi	r6,r4,2
   239f8:	42000204 	addi	r8,r8,8
   239fc:	2809883a 	mov	r4,r5
   23a00:	18fffc04 	addi	r3,r3,-16
   23a04:	19400448 	cmpgei	r5,r3,17
   23a08:	28001b26 	beq	r5,zero,23a78 <___vfiprintf_internal_r+0xba0>
   23a0c:	d9800417 	ldw	r6,16(sp)
   23a10:	21400044 	addi	r5,r4,1
   23a14:	10800404 	addi	r2,r2,16
   23a18:	41800015 	stw	r6,0(r8)
   23a1c:	41c00115 	stw	r7,4(r8)
   23a20:	d8800c15 	stw	r2,48(sp)
   23a24:	d9400b15 	stw	r5,44(sp)
   23a28:	29800208 	cmpgei	r6,r5,8
   23a2c:	303ff126 	beq	r6,zero,239f4 <___vfiprintf_internal_r+0xb1c>
   23a30:	d9000017 	ldw	r4,0(sp)
   23a34:	d9800a04 	addi	r6,sp,40
   23a38:	900b883a 	mov	r5,r18
   23a3c:	10005c26 	beq	r2,zero,23bb0 <___vfiprintf_internal_r+0xcd8>
   23a40:	d8c00615 	stw	r3,24(sp)
   23a44:	da400215 	stw	r9,8(sp)
   23a48:	0022dcc0 	call	22dcc <__sprint_r.part.0>
   23a4c:	103e2f1e 	bne	r2,zero,2330c <___vfiprintf_internal_r+0x434>
   23a50:	d8c00617 	ldw	r3,24(sp)
   23a54:	d9000b17 	ldw	r4,44(sp)
   23a58:	d8800c17 	ldw	r2,48(sp)
   23a5c:	18fffc04 	addi	r3,r3,-16
   23a60:	19400448 	cmpgei	r5,r3,17
   23a64:	da400217 	ldw	r9,8(sp)
   23a68:	9811883a 	mov	r8,r19
   23a6c:	21800044 	addi	r6,r4,1
   23a70:	01c00404 	movi	r7,16
   23a74:	283fe51e 	bne	r5,zero,23a0c <___vfiprintf_internal_r+0xb34>
   23a78:	d9000417 	ldw	r4,16(sp)
   23a7c:	10c5883a 	add	r2,r2,r3
   23a80:	40c00115 	stw	r3,4(r8)
   23a84:	41000015 	stw	r4,0(r8)
   23a88:	d8800c15 	stw	r2,48(sp)
   23a8c:	d9800b15 	stw	r6,44(sp)
   23a90:	30c00208 	cmpgei	r3,r6,8
   23a94:	18010b26 	beq	r3,zero,23ec4 <___vfiprintf_internal_r+0xfec>
   23a98:	10017e26 	beq	r2,zero,24094 <___vfiprintf_internal_r+0x11bc>
   23a9c:	d9000017 	ldw	r4,0(sp)
   23aa0:	d9800a04 	addi	r6,sp,40
   23aa4:	900b883a 	mov	r5,r18
   23aa8:	da400215 	stw	r9,8(sp)
   23aac:	0022dcc0 	call	22dcc <__sprint_r.part.0>
   23ab0:	103e161e 	bne	r2,zero,2330c <___vfiprintf_internal_r+0x434>
   23ab4:	da400217 	ldw	r9,8(sp)
   23ab8:	d9000b17 	ldw	r4,44(sp)
   23abc:	d8800c17 	ldw	r2,48(sp)
   23ac0:	4d53c83a 	sub	r9,r9,r21
   23ac4:	9811883a 	mov	r8,r19
   23ac8:	21400044 	addi	r5,r4,1
   23acc:	027df00e 	bge	zero,r9,23290 <___vfiprintf_internal_r+0x3b8>
   23ad0:	48c00450 	cmplti	r3,r9,17
   23ad4:	18016b1e 	bne	r3,zero,24084 <___vfiprintf_internal_r+0x11ac>
   23ad8:	ddc00415 	stw	r23,16(sp)
   23adc:	01c00404 	movi	r7,16
   23ae0:	00000606 	br	23afc <___vfiprintf_internal_r+0xc24>
   23ae4:	21400084 	addi	r5,r4,2
   23ae8:	42000204 	addi	r8,r8,8
   23aec:	1809883a 	mov	r4,r3
   23af0:	4a7ffc04 	addi	r9,r9,-16
   23af4:	48c00448 	cmpgei	r3,r9,17
   23af8:	18001826 	beq	r3,zero,23b5c <___vfiprintf_internal_r+0xc84>
   23afc:	20c00044 	addi	r3,r4,1
   23b00:	10800404 	addi	r2,r2,16
   23b04:	45c00015 	stw	r23,0(r8)
   23b08:	41c00115 	stw	r7,4(r8)
   23b0c:	d8800c15 	stw	r2,48(sp)
   23b10:	d8c00b15 	stw	r3,44(sp)
   23b14:	19400208 	cmpgei	r5,r3,8
   23b18:	283ff226 	beq	r5,zero,23ae4 <___vfiprintf_internal_r+0xc0c>
   23b1c:	d9000017 	ldw	r4,0(sp)
   23b20:	d9800a04 	addi	r6,sp,40
   23b24:	900b883a 	mov	r5,r18
   23b28:	10001726 	beq	r2,zero,23b88 <___vfiprintf_internal_r+0xcb0>
   23b2c:	da400215 	stw	r9,8(sp)
   23b30:	0022dcc0 	call	22dcc <__sprint_r.part.0>
   23b34:	103df51e 	bne	r2,zero,2330c <___vfiprintf_internal_r+0x434>
   23b38:	da400217 	ldw	r9,8(sp)
   23b3c:	d9000b17 	ldw	r4,44(sp)
   23b40:	d8800c17 	ldw	r2,48(sp)
   23b44:	4a7ffc04 	addi	r9,r9,-16
   23b48:	48c00448 	cmpgei	r3,r9,17
   23b4c:	9811883a 	mov	r8,r19
   23b50:	21400044 	addi	r5,r4,1
   23b54:	01c00404 	movi	r7,16
   23b58:	183fe81e 	bne	r3,zero,23afc <___vfiprintf_internal_r+0xc24>
   23b5c:	d8c00417 	ldw	r3,16(sp)
   23b60:	1245883a 	add	r2,r2,r9
   23b64:	42400115 	stw	r9,4(r8)
   23b68:	40c00015 	stw	r3,0(r8)
   23b6c:	d8800c15 	stw	r2,48(sp)
   23b70:	d9400b15 	stw	r5,44(sp)
   23b74:	28c00208 	cmpgei	r3,r5,8
   23b78:	1800811e 	bne	r3,zero,23d80 <___vfiprintf_internal_r+0xea8>
   23b7c:	42000204 	addi	r8,r8,8
   23b80:	29400044 	addi	r5,r5,1
   23b84:	003dc206 	br	23290 <___vfiprintf_internal_r+0x3b8>
   23b88:	01400044 	movi	r5,1
   23b8c:	0009883a 	mov	r4,zero
   23b90:	9811883a 	mov	r8,r19
   23b94:	003fd606 	br	23af0 <___vfiprintf_internal_r+0xc18>
   23b98:	d9000017 	ldw	r4,0(sp)
   23b9c:	d9800a04 	addi	r6,sp,40
   23ba0:	900b883a 	mov	r5,r18
   23ba4:	0022dcc0 	call	22dcc <__sprint_r.part.0>
   23ba8:	103dd226 	beq	r2,zero,232f4 <___vfiprintf_internal_r+0x41c>
   23bac:	003dd706 	br	2330c <___vfiprintf_internal_r+0x434>
   23bb0:	01800044 	movi	r6,1
   23bb4:	0009883a 	mov	r4,zero
   23bb8:	9811883a 	mov	r8,r19
   23bbc:	003f9006 	br	23a00 <___vfiprintf_internal_r+0xb28>
   23bc0:	10001026 	beq	r2,zero,23c04 <___vfiprintf_internal_r+0xd2c>
   23bc4:	d9000017 	ldw	r4,0(sp)
   23bc8:	d9800a04 	addi	r6,sp,40
   23bcc:	900b883a 	mov	r5,r18
   23bd0:	da400615 	stw	r9,24(sp)
   23bd4:	db000415 	stw	r12,16(sp)
   23bd8:	db400215 	stw	r13,8(sp)
   23bdc:	0022dcc0 	call	22dcc <__sprint_r.part.0>
   23be0:	103dca1e 	bne	r2,zero,2330c <___vfiprintf_internal_r+0x434>
   23be4:	d9000b17 	ldw	r4,44(sp)
   23be8:	d8800c17 	ldw	r2,48(sp)
   23bec:	da400617 	ldw	r9,24(sp)
   23bf0:	db000417 	ldw	r12,16(sp)
   23bf4:	db400217 	ldw	r13,8(sp)
   23bf8:	9811883a 	mov	r8,r19
   23bfc:	21400044 	addi	r5,r4,1
   23c00:	003d8706 	br	23220 <___vfiprintf_internal_r+0x348>
   23c04:	6800bc26 	beq	r13,zero,23ef8 <___vfiprintf_internal_r+0x1020>
   23c08:	d8800984 	addi	r2,sp,38
   23c0c:	d8801715 	stw	r2,92(sp)
   23c10:	00800084 	movi	r2,2
   23c14:	d8801815 	stw	r2,96(sp)
   23c18:	01400044 	movi	r5,1
   23c1c:	9811883a 	mov	r8,r19
   23c20:	2809883a 	mov	r4,r5
   23c24:	42000204 	addi	r8,r8,8
   23c28:	29400044 	addi	r5,r5,1
   23c2c:	003d9406 	br	23280 <___vfiprintf_internal_r+0x3a8>
   23c30:	19400450 	cmplti	r5,r3,17
   23c34:	01c000f4 	movhi	r7,3
   23c38:	2801291e 	bne	r5,zero,240e0 <___vfiprintf_internal_r+0x1208>
   23c3c:	39c13104 	addi	r7,r7,1220
   23c40:	03800404 	movi	r14,16
   23c44:	00000706 	br	23c64 <___vfiprintf_internal_r+0xd8c>
   23c48:	23c00084 	addi	r15,r4,2
   23c4c:	42000204 	addi	r8,r8,8
   23c50:	3009883a 	mov	r4,r6
   23c54:	18fffc04 	addi	r3,r3,-16
   23c58:	19400448 	cmpgei	r5,r3,17
   23c5c:	28002026 	beq	r5,zero,23ce0 <___vfiprintf_internal_r+0xe08>
   23c60:	21800044 	addi	r6,r4,1
   23c64:	10800404 	addi	r2,r2,16
   23c68:	41c00015 	stw	r7,0(r8)
   23c6c:	43800115 	stw	r14,4(r8)
   23c70:	d8800c15 	stw	r2,48(sp)
   23c74:	d9800b15 	stw	r6,44(sp)
   23c78:	31400208 	cmpgei	r5,r6,8
   23c7c:	283ff226 	beq	r5,zero,23c48 <___vfiprintf_internal_r+0xd70>
   23c80:	d9000017 	ldw	r4,0(sp)
   23c84:	d9800a04 	addi	r6,sp,40
   23c88:	900b883a 	mov	r5,r18
   23c8c:	10001f26 	beq	r2,zero,23d0c <___vfiprintf_internal_r+0xe34>
   23c90:	d9c00815 	stw	r7,32(sp)
   23c94:	d8c00715 	stw	r3,28(sp)
   23c98:	da400615 	stw	r9,24(sp)
   23c9c:	db000415 	stw	r12,16(sp)
   23ca0:	db400215 	stw	r13,8(sp)
   23ca4:	0022dcc0 	call	22dcc <__sprint_r.part.0>
   23ca8:	103d981e 	bne	r2,zero,2330c <___vfiprintf_internal_r+0x434>
   23cac:	d8c00717 	ldw	r3,28(sp)
   23cb0:	d9000b17 	ldw	r4,44(sp)
   23cb4:	d8800c17 	ldw	r2,48(sp)
   23cb8:	18fffc04 	addi	r3,r3,-16
   23cbc:	19400448 	cmpgei	r5,r3,17
   23cc0:	d9c00817 	ldw	r7,32(sp)
   23cc4:	da400617 	ldw	r9,24(sp)
   23cc8:	db000417 	ldw	r12,16(sp)
   23ccc:	db400217 	ldw	r13,8(sp)
   23cd0:	9811883a 	mov	r8,r19
   23cd4:	23c00044 	addi	r15,r4,1
   23cd8:	03800404 	movi	r14,16
   23cdc:	283fe01e 	bne	r5,zero,23c60 <___vfiprintf_internal_r+0xd88>
   23ce0:	10c5883a 	add	r2,r2,r3
   23ce4:	40c00115 	stw	r3,4(r8)
   23ce8:	41c00015 	stw	r7,0(r8)
   23cec:	d8800c15 	stw	r2,48(sp)
   23cf0:	dbc00b15 	stw	r15,44(sp)
   23cf4:	78c00208 	cmpgei	r3,r15,8
   23cf8:	1800511e 	bne	r3,zero,23e40 <___vfiprintf_internal_r+0xf68>
   23cfc:	42000204 	addi	r8,r8,8
   23d00:	79400044 	addi	r5,r15,1
   23d04:	7809883a 	mov	r4,r15
   23d08:	003d3706 	br	231e8 <___vfiprintf_internal_r+0x310>
   23d0c:	0009883a 	mov	r4,zero
   23d10:	03c00044 	movi	r15,1
   23d14:	9811883a 	mov	r8,r19
   23d18:	003fce06 	br	23c54 <___vfiprintf_internal_r+0xd7c>
   23d1c:	8d80010e 	bge	r17,r22,23d24 <___vfiprintf_internal_r+0xe4c>
   23d20:	b023883a 	mov	r17,r22
   23d24:	d8800117 	ldw	r2,4(sp)
   23d28:	1445883a 	add	r2,r2,r17
   23d2c:	d8800115 	stw	r2,4(sp)
   23d30:	003d7006 	br	232f4 <___vfiprintf_internal_r+0x41c>
   23d34:	1021883a 	mov	r16,r2
   23d38:	9839883a 	mov	fp,r19
   23d3c:	d9000517 	ldw	r4,20(sp)
   23d40:	b08003cc 	andi	r2,r22,15
   23d44:	a806973a 	slli	r3,r21,28
   23d48:	b02cd13a 	srli	r22,r22,4
   23d4c:	2085883a 	add	r2,r4,r2
   23d50:	10800003 	ldbu	r2,0(r2)
   23d54:	a82ad13a 	srli	r21,r21,4
   23d58:	1dacb03a 	or	r22,r3,r22
   23d5c:	e0bfffc5 	stb	r2,-1(fp)
   23d60:	b544b03a 	or	r2,r22,r21
   23d64:	e73fffc4 	addi	fp,fp,-1
   23d68:	103ff41e 	bne	r2,zero,23d3c <___vfiprintf_internal_r+0xe64>
   23d6c:	9f2bc83a 	sub	r21,r19,fp
   23d70:	482d883a 	mov	r22,r9
   23d74:	4d7d110e 	bge	r9,r21,231bc <___vfiprintf_internal_r+0x2e4>
   23d78:	a82d883a 	mov	r22,r21
   23d7c:	003d0f06 	br	231bc <___vfiprintf_internal_r+0x2e4>
   23d80:	103f0626 	beq	r2,zero,2399c <___vfiprintf_internal_r+0xac4>
   23d84:	d9000017 	ldw	r4,0(sp)
   23d88:	d9800a04 	addi	r6,sp,40
   23d8c:	900b883a 	mov	r5,r18
   23d90:	0022dcc0 	call	22dcc <__sprint_r.part.0>
   23d94:	103d5d1e 	bne	r2,zero,2330c <___vfiprintf_internal_r+0x434>
   23d98:	d9400b17 	ldw	r5,44(sp)
   23d9c:	d8800c17 	ldw	r2,48(sp)
   23da0:	9811883a 	mov	r8,r19
   23da4:	29400044 	addi	r5,r5,1
   23da8:	003d3906 	br	23290 <___vfiprintf_internal_r+0x3b8>
   23dac:	d8000b15 	stw	zero,44(sp)
   23db0:	003dae06 	br	2346c <___vfiprintf_internal_r+0x594>
   23db4:	d9000317 	ldw	r4,12(sp)
   23db8:	10c0040c 	andi	r3,r2,16
   23dbc:	25800017 	ldw	r22,0(r4)
   23dc0:	21000104 	addi	r4,r4,4
   23dc4:	d9000315 	stw	r4,12(sp)
   23dc8:	1800031e 	bne	r3,zero,23dd8 <___vfiprintf_internal_r+0xf00>
   23dcc:	10c0100c 	andi	r3,r2,64
   23dd0:	18000126 	beq	r3,zero,23dd8 <___vfiprintf_internal_r+0xf00>
   23dd4:	b5bfffcc 	andi	r22,r22,65535
   23dd8:	d8000945 	stb	zero,37(sp)
   23ddc:	48ffffd8 	cmpnei	r3,r9,-1
   23de0:	002b883a 	mov	r21,zero
   23de4:	183e671e 	bne	r3,zero,23784 <___vfiprintf_internal_r+0x8ac>
   23de8:	1021883a 	mov	r16,r2
   23dec:	0019883a 	mov	r12,zero
   23df0:	003df206 	br	235bc <___vfiprintf_internal_r+0x6e4>
   23df4:	d9000317 	ldw	r4,12(sp)
   23df8:	10c0040c 	andi	r3,r2,16
   23dfc:	25800017 	ldw	r22,0(r4)
   23e00:	21000104 	addi	r4,r4,4
   23e04:	d9000315 	stw	r4,12(sp)
   23e08:	1800031e 	bne	r3,zero,23e18 <___vfiprintf_internal_r+0xf40>
   23e0c:	10c0100c 	andi	r3,r2,64
   23e10:	18000126 	beq	r3,zero,23e18 <___vfiprintf_internal_r+0xf40>
   23e14:	b5bfffcc 	andi	r22,r22,65535
   23e18:	d8000945 	stb	zero,37(sp)
   23e1c:	48ffffd8 	cmpnei	r3,r9,-1
   23e20:	002b883a 	mov	r21,zero
   23e24:	183e701e 	bne	r3,zero,237e8 <___vfiprintf_internal_r+0x910>
   23e28:	1021883a 	mov	r16,r2
   23e2c:	003e7706 	br	2380c <___vfiprintf_internal_r+0x934>
   23e30:	01400044 	movi	r5,1
   23e34:	0009883a 	mov	r4,zero
   23e38:	9811883a 	mov	r8,r19
   23e3c:	003d1006 	br	23280 <___vfiprintf_internal_r+0x3a8>
   23e40:	10005f26 	beq	r2,zero,23fc0 <___vfiprintf_internal_r+0x10e8>
   23e44:	d9000017 	ldw	r4,0(sp)
   23e48:	d9800a04 	addi	r6,sp,40
   23e4c:	900b883a 	mov	r5,r18
   23e50:	da400615 	stw	r9,24(sp)
   23e54:	db000415 	stw	r12,16(sp)
   23e58:	db400215 	stw	r13,8(sp)
   23e5c:	0022dcc0 	call	22dcc <__sprint_r.part.0>
   23e60:	103d2a1e 	bne	r2,zero,2330c <___vfiprintf_internal_r+0x434>
   23e64:	d9000b17 	ldw	r4,44(sp)
   23e68:	d8800c17 	ldw	r2,48(sp)
   23e6c:	da400617 	ldw	r9,24(sp)
   23e70:	db000417 	ldw	r12,16(sp)
   23e74:	db400217 	ldw	r13,8(sp)
   23e78:	9811883a 	mov	r8,r19
   23e7c:	21400044 	addi	r5,r4,1
   23e80:	003cd906 	br	231e8 <___vfiprintf_internal_r+0x310>
   23e84:	d8000945 	stb	zero,37(sp)
   23e88:	48bfffd8 	cmpnei	r2,r9,-1
   23e8c:	103faa26 	beq	r2,zero,23d38 <___vfiprintf_internal_r+0xe60>
   23e90:	00bfdfc4 	movi	r2,-129
   23e94:	80a0703a 	and	r16,r16,r2
   23e98:	4800661e 	bne	r9,zero,24034 <___vfiprintf_internal_r+0x115c>
   23e9c:	002d883a 	mov	r22,zero
   23ea0:	002b883a 	mov	r21,zero
   23ea4:	9839883a 	mov	fp,r19
   23ea8:	003cc406 	br	231bc <___vfiprintf_internal_r+0x2e4>
   23eac:	a0800007 	ldb	r2,0(r20)
   23eb0:	df000315 	stw	fp,12(sp)
   23eb4:	003c4a06 	br	22fe0 <___vfiprintf_internal_r+0x108>
   23eb8:	002d883a 	mov	r22,zero
   23ebc:	9839883a 	mov	fp,r19
   23ec0:	003cbe06 	br	231bc <___vfiprintf_internal_r+0x2e4>
   23ec4:	42000204 	addi	r8,r8,8
   23ec8:	31400044 	addi	r5,r6,1
   23ecc:	3009883a 	mov	r4,r6
   23ed0:	003ced06 	br	23288 <___vfiprintf_internal_r+0x3b0>
   23ed4:	8080040c 	andi	r2,r16,16
   23ed8:	1000421e 	bne	r2,zero,23fe4 <___vfiprintf_internal_r+0x110c>
   23edc:	8400100c 	andi	r16,r16,64
   23ee0:	80004026 	beq	r16,zero,23fe4 <___vfiprintf_internal_r+0x110c>
   23ee4:	d8800317 	ldw	r2,12(sp)
   23ee8:	d8c00117 	ldw	r3,4(sp)
   23eec:	10800017 	ldw	r2,0(r2)
   23ef0:	10c0000d 	sth	r3,0(r2)
   23ef4:	003e0206 	br	23700 <___vfiprintf_internal_r+0x828>
   23ef8:	0009883a 	mov	r4,zero
   23efc:	01400044 	movi	r5,1
   23f00:	9811883a 	mov	r8,r19
   23f04:	003cde06 	br	23280 <___vfiprintf_internal_r+0x3a8>
   23f08:	a82d883a 	mov	r22,r21
   23f0c:	2839883a 	mov	fp,r5
   23f10:	003caa06 	br	231bc <___vfiprintf_internal_r+0x2e4>
   23f14:	e009883a 	mov	r4,fp
   23f18:	d8c00315 	stw	r3,12(sp)
   23f1c:	da000215 	stw	r8,8(sp)
   23f20:	00257040 	call	25704 <strlen>
   23f24:	db000943 	ldbu	r12,37(sp)
   23f28:	da000217 	ldw	r8,8(sp)
   23f2c:	d8c00317 	ldw	r3,12(sp)
   23f30:	102b883a 	mov	r21,r2
   23f34:	102d883a 	mov	r22,r2
   23f38:	103e620e 	bge	r2,zero,238c4 <___vfiprintf_internal_r+0x9ec>
   23f3c:	002d883a 	mov	r22,zero
   23f40:	003e6006 	br	238c4 <___vfiprintf_internal_r+0x9ec>
   23f44:	8005883a 	mov	r2,r16
   23f48:	003e0406 	br	2375c <___vfiprintf_internal_r+0x884>
   23f4c:	00c000f4 	movhi	r3,3
   23f50:	18c11804 	addi	r3,r3,1120
   23f54:	d8c00515 	stw	r3,20(sp)
   23f58:	80c0080c 	andi	r3,r16,32
   23f5c:	18002826 	beq	r3,zero,24000 <___vfiprintf_internal_r+0x1128>
   23f60:	d8c00317 	ldw	r3,12(sp)
   23f64:	1d800017 	ldw	r22,0(r3)
   23f68:	1d400117 	ldw	r21,4(r3)
   23f6c:	18c00204 	addi	r3,r3,8
   23f70:	d8c00315 	stw	r3,12(sp)
   23f74:	80c0004c 	andi	r3,r16,1
   23f78:	18001f26 	beq	r3,zero,23ff8 <___vfiprintf_internal_r+0x1120>
   23f7c:	b546b03a 	or	r3,r22,r21
   23f80:	183fc026 	beq	r3,zero,23e84 <___vfiprintf_internal_r+0xfac>
   23f84:	00c00c04 	movi	r3,48
   23f88:	d8c00985 	stb	r3,38(sp)
   23f8c:	d88009c5 	stb	r2,39(sp)
   23f90:	d8000945 	stb	zero,37(sp)
   23f94:	48bfffd8 	cmpnei	r2,r9,-1
   23f98:	80c00094 	ori	r3,r16,2
   23f9c:	10006f1e 	bne	r2,zero,2415c <___vfiprintf_internal_r+0x1284>
   23fa0:	1821883a 	mov	r16,r3
   23fa4:	003f6406 	br	23d38 <___vfiprintf_internal_r+0xe60>
   23fa8:	8005883a 	mov	r2,r16
   23fac:	003e0406 	br	237c0 <___vfiprintf_internal_r+0x8e8>
   23fb0:	00c000f4 	movhi	r3,3
   23fb4:	18c11d04 	addi	r3,r3,1140
   23fb8:	d8c00515 	stw	r3,20(sp)
   23fbc:	003fe606 	br	23f58 <___vfiprintf_internal_r+0x1080>
   23fc0:	d8c00947 	ldb	r3,37(sp)
   23fc4:	18003926 	beq	r3,zero,240ac <___vfiprintf_internal_r+0x11d4>
   23fc8:	d8800944 	addi	r2,sp,37
   23fcc:	d8801715 	stw	r2,92(sp)
   23fd0:	00800044 	movi	r2,1
   23fd4:	d8801815 	stw	r2,96(sp)
   23fd8:	01400044 	movi	r5,1
   23fdc:	9811883a 	mov	r8,r19
   23fe0:	003c8c06 	br	23214 <___vfiprintf_internal_r+0x33c>
   23fe4:	d8800317 	ldw	r2,12(sp)
   23fe8:	d8c00117 	ldw	r3,4(sp)
   23fec:	10800017 	ldw	r2,0(r2)
   23ff0:	10c00015 	stw	r3,0(r2)
   23ff4:	003dc206 	br	23700 <___vfiprintf_internal_r+0x828>
   23ff8:	8005883a 	mov	r2,r16
   23ffc:	003e4206 	br	23908 <___vfiprintf_internal_r+0xa30>
   24000:	d9000317 	ldw	r4,12(sp)
   24004:	80c0040c 	andi	r3,r16,16
   24008:	25800017 	ldw	r22,0(r4)
   2400c:	21000104 	addi	r4,r4,4
   24010:	d9000315 	stw	r4,12(sp)
   24014:	1800051e 	bne	r3,zero,2402c <___vfiprintf_internal_r+0x1154>
   24018:	80c0100c 	andi	r3,r16,64
   2401c:	18000326 	beq	r3,zero,2402c <___vfiprintf_internal_r+0x1154>
   24020:	b5bfffcc 	andi	r22,r22,65535
   24024:	002b883a 	mov	r21,zero
   24028:	003fd206 	br	23f74 <___vfiprintf_internal_r+0x109c>
   2402c:	002b883a 	mov	r21,zero
   24030:	003fd006 	br	23f74 <___vfiprintf_internal_r+0x109c>
   24034:	002d883a 	mov	r22,zero
   24038:	002b883a 	mov	r21,zero
   2403c:	003f3e06 	br	23d38 <___vfiprintf_internal_r+0xe60>
   24040:	18800060 	cmpeqi	r2,r3,1
   24044:	1000361e 	bne	r2,zero,24120 <___vfiprintf_internal_r+0x1248>
   24048:	18c000a0 	cmpeqi	r3,r3,2
   2404c:	183ff91e 	bne	r3,zero,24034 <___vfiprintf_internal_r+0x115c>
   24050:	002d883a 	mov	r22,zero
   24054:	002b883a 	mov	r21,zero
   24058:	003dec06 	br	2380c <___vfiprintf_internal_r+0x934>
   2405c:	00248740 	call	24874 <__sinit>
   24060:	003baf06 	br	22f20 <___vfiprintf_internal_r+0x48>
   24064:	488001f0 	cmpltui	r2,r9,7
   24068:	482b883a 	mov	r21,r9
   2406c:	10000d26 	beq	r2,zero,240a4 <___vfiprintf_internal_r+0x11cc>
   24070:	070000f4 	movhi	fp,3
   24074:	a82d883a 	mov	r22,r21
   24078:	d8c00315 	stw	r3,12(sp)
   2407c:	e7012204 	addi	fp,fp,1160
   24080:	003c4d06 	br	231b8 <___vfiprintf_internal_r+0x2e0>
   24084:	00c000f4 	movhi	r3,3
   24088:	18c12d04 	addi	r3,r3,1204
   2408c:	d8c00415 	stw	r3,16(sp)
   24090:	003eb206 	br	23b5c <___vfiprintf_internal_r+0xc84>
   24094:	01400044 	movi	r5,1
   24098:	0009883a 	mov	r4,zero
   2409c:	9811883a 	mov	r8,r19
   240a0:	003c7906 	br	23288 <___vfiprintf_internal_r+0x3b0>
   240a4:	05400184 	movi	r21,6
   240a8:	003ff106 	br	24070 <___vfiprintf_internal_r+0x1198>
   240ac:	0009883a 	mov	r4,zero
   240b0:	01400044 	movi	r5,1
   240b4:	9811883a 	mov	r8,r19
   240b8:	003c5906 	br	23220 <___vfiprintf_internal_r+0x348>
   240bc:	d9000017 	ldw	r4,0(sp)
   240c0:	d9800a04 	addi	r6,sp,40
   240c4:	900b883a 	mov	r5,r18
   240c8:	0022dcc0 	call	22dcc <__sprint_r.part.0>
   240cc:	003c8f06 	br	2330c <___vfiprintf_internal_r+0x434>
   240d0:	db000943 	ldbu	r12,37(sp)
   240d4:	482d883a 	mov	r22,r9
   240d8:	482b883a 	mov	r21,r9
   240dc:	003df906 	br	238c4 <___vfiprintf_internal_r+0x9ec>
   240e0:	301f883a 	mov	r15,r6
   240e4:	39c13104 	addi	r7,r7,1220
   240e8:	003efd06 	br	23ce0 <___vfiprintf_internal_r+0xe08>
   240ec:	21400044 	addi	r5,r4,1
   240f0:	39c13104 	addi	r7,r7,1220
   240f4:	003d0906 	br	2351c <___vfiprintf_internal_r+0x644>
   240f8:	010000f4 	movhi	r4,3
   240fc:	21012d04 	addi	r4,r4,1204
   24100:	280d883a 	mov	r6,r5
   24104:	d9000415 	stw	r4,16(sp)
   24108:	003e5b06 	br	23a78 <___vfiprintf_internal_r+0xba0>
   2410c:	00bfffc4 	movi	r2,-1
   24110:	d8800115 	stw	r2,4(sp)
   24114:	003c8006 	br	23318 <___vfiprintf_internal_r+0x440>
   24118:	05800c04 	movi	r22,48
   2411c:	003d2b06 	br	235cc <___vfiprintf_internal_r+0x6f4>
   24120:	0019883a 	mov	r12,zero
   24124:	05800c04 	movi	r22,48
   24128:	003d2806 	br	235cc <___vfiprintf_internal_r+0x6f4>
   2412c:	d8800317 	ldw	r2,12(sp)
   24130:	12400017 	ldw	r9,0(r2)
   24134:	17000104 	addi	fp,r2,4
   24138:	4800010e 	bge	r9,zero,24140 <___vfiprintf_internal_r+0x1268>
   2413c:	027fffc4 	movi	r9,-1
   24140:	a0800043 	ldbu	r2,1(r20)
   24144:	df000315 	stw	fp,12(sp)
   24148:	1829883a 	mov	r20,r3
   2414c:	10803fcc 	andi	r2,r2,255
   24150:	1080201c 	xori	r2,r2,128
   24154:	10bfe004 	addi	r2,r2,-128
   24158:	003ba106 	br	22fe0 <___vfiprintf_internal_r+0x108>
   2415c:	00bfdfc4 	movi	r2,-129
   24160:	8084703a 	and	r2,r16,r2
   24164:	14000094 	ori	r16,r2,2
   24168:	003ef306 	br	23d38 <___vfiprintf_internal_r+0xe60>
   2416c:	0019883a 	mov	r12,zero
   24170:	003d1206 	br	235bc <___vfiprintf_internal_r+0x6e4>

00024174 <__vfiprintf_internal>:
   24174:	00c000f4 	movhi	r3,3
   24178:	2005883a 	mov	r2,r4
   2417c:	1908cd17 	ldw	r4,9012(r3)
   24180:	300f883a 	mov	r7,r6
   24184:	280d883a 	mov	r6,r5
   24188:	100b883a 	mov	r5,r2
   2418c:	0022ed81 	jmpi	22ed8 <___vfiprintf_internal_r>

00024190 <__sbprintf>:
   24190:	28c0038b 	ldhu	r3,14(r5)
   24194:	2880030b 	ldhu	r2,12(r5)
   24198:	2ac01917 	ldw	r11,100(r5)
   2419c:	1806943a 	slli	r3,r3,16
   241a0:	2a800717 	ldw	r10,28(r5)
   241a4:	2a400917 	ldw	r9,36(r5)
   241a8:	defee204 	addi	sp,sp,-1144
   241ac:	10bfff4c 	andi	r2,r2,65533
   241b0:	10c4b03a 	or	r2,r2,r3
   241b4:	da001a04 	addi	r8,sp,104
   241b8:	00c10004 	movi	r3,1024
   241bc:	dc011a15 	stw	r16,1128(sp)
   241c0:	2821883a 	mov	r16,r5
   241c4:	d80b883a 	mov	r5,sp
   241c8:	dc811c15 	stw	r18,1136(sp)
   241cc:	dc411b15 	stw	r17,1132(sp)
   241d0:	dfc11d15 	stw	ra,1140(sp)
   241d4:	2025883a 	mov	r18,r4
   241d8:	dac01915 	stw	r11,100(sp)
   241dc:	d8800315 	stw	r2,12(sp)
   241e0:	da800715 	stw	r10,28(sp)
   241e4:	da400915 	stw	r9,36(sp)
   241e8:	da000015 	stw	r8,0(sp)
   241ec:	da000415 	stw	r8,16(sp)
   241f0:	d8c00215 	stw	r3,8(sp)
   241f4:	d8c00515 	stw	r3,20(sp)
   241f8:	d8000615 	stw	zero,24(sp)
   241fc:	0022ed80 	call	22ed8 <___vfiprintf_internal_r>
   24200:	1023883a 	mov	r17,r2
   24204:	10000d0e 	bge	r2,zero,2423c <__sbprintf+0xac>
   24208:	d880030b 	ldhu	r2,12(sp)
   2420c:	1080100c 	andi	r2,r2,64
   24210:	10000326 	beq	r2,zero,24220 <__sbprintf+0x90>
   24214:	8080030b 	ldhu	r2,12(r16)
   24218:	10801014 	ori	r2,r2,64
   2421c:	8080030d 	sth	r2,12(r16)
   24220:	8805883a 	mov	r2,r17
   24224:	dfc11d17 	ldw	ra,1140(sp)
   24228:	dc811c17 	ldw	r18,1136(sp)
   2422c:	dc411b17 	ldw	r17,1132(sp)
   24230:	dc011a17 	ldw	r16,1128(sp)
   24234:	dec11e04 	addi	sp,sp,1144
   24238:	f800283a 	ret
   2423c:	d80b883a 	mov	r5,sp
   24240:	9009883a 	mov	r4,r18
   24244:	002445c0 	call	2445c <_fflush_r>
   24248:	103fef26 	beq	r2,zero,24208 <__sbprintf+0x78>
   2424c:	047fffc4 	movi	r17,-1
   24250:	003fed06 	br	24208 <__sbprintf+0x78>

00024254 <__sflush_r>:
   24254:	2880030b 	ldhu	r2,12(r5)
   24258:	defffb04 	addi	sp,sp,-20
   2425c:	dcc00315 	stw	r19,12(sp)
   24260:	dc000015 	stw	r16,0(sp)
   24264:	dfc00415 	stw	ra,16(sp)
   24268:	dc800215 	stw	r18,8(sp)
   2426c:	dc400115 	stw	r17,4(sp)
   24270:	10c0020c 	andi	r3,r2,8
   24274:	2821883a 	mov	r16,r5
   24278:	2027883a 	mov	r19,r4
   2427c:	18003c1e 	bne	r3,zero,24370 <__sflush_r+0x11c>
   24280:	29000117 	ldw	r4,4(r5)
   24284:	10c20014 	ori	r3,r2,2048
   24288:	28c0030d 	sth	r3,12(r5)
   2428c:	0100580e 	bge	zero,r4,243f0 <__sflush_r+0x19c>
   24290:	82000a17 	ldw	r8,40(r16)
   24294:	40003426 	beq	r8,zero,24368 <__sflush_r+0x114>
   24298:	9c400017 	ldw	r17,0(r19)
   2429c:	1084000c 	andi	r2,r2,4096
   242a0:	98000015 	stw	zero,0(r19)
   242a4:	81400717 	ldw	r5,28(r16)
   242a8:	1000561e 	bne	r2,zero,24404 <__sflush_r+0x1b0>
   242ac:	000d883a 	mov	r6,zero
   242b0:	01c00044 	movi	r7,1
   242b4:	9809883a 	mov	r4,r19
   242b8:	403ee83a 	callr	r8
   242bc:	100d883a 	mov	r6,r2
   242c0:	10bfffd8 	cmpnei	r2,r2,-1
   242c4:	10005b26 	beq	r2,zero,24434 <__sflush_r+0x1e0>
   242c8:	80c0030b 	ldhu	r3,12(r16)
   242cc:	82000a17 	ldw	r8,40(r16)
   242d0:	18c0010c 	andi	r3,r3,4
   242d4:	18000626 	beq	r3,zero,242f0 <__sflush_r+0x9c>
   242d8:	80c00117 	ldw	r3,4(r16)
   242dc:	80800c17 	ldw	r2,48(r16)
   242e0:	30cdc83a 	sub	r6,r6,r3
   242e4:	10000226 	beq	r2,zero,242f0 <__sflush_r+0x9c>
   242e8:	80800f17 	ldw	r2,60(r16)
   242ec:	308dc83a 	sub	r6,r6,r2
   242f0:	81400717 	ldw	r5,28(r16)
   242f4:	000f883a 	mov	r7,zero
   242f8:	9809883a 	mov	r4,r19
   242fc:	403ee83a 	callr	r8
   24300:	10ffffd8 	cmpnei	r3,r2,-1
   24304:	1800411e 	bne	r3,zero,2440c <__sflush_r+0x1b8>
   24308:	99400017 	ldw	r5,0(r19)
   2430c:	28c007b0 	cmpltui	r3,r5,30
   24310:	18002c26 	beq	r3,zero,243c4 <__sflush_r+0x170>
   24314:	00f7f034 	movhi	r3,57280
   24318:	18ffff84 	addi	r3,r3,-2
   2431c:	1949d83a 	sra	r4,r3,r5
   24320:	80c0030b 	ldhu	r3,12(r16)
   24324:	2100004c 	andi	r4,r4,1
   24328:	2000271e 	bne	r4,zero,243c8 <__sflush_r+0x174>
   2432c:	81000417 	ldw	r4,16(r16)
   24330:	19bdffcc 	andi	r6,r3,63487
   24334:	8180030d 	sth	r6,12(r16)
   24338:	80000115 	stw	zero,4(r16)
   2433c:	81000015 	stw	r4,0(r16)
   24340:	18c4000c 	andi	r3,r3,4096
   24344:	1800431e 	bne	r3,zero,24454 <__sflush_r+0x200>
   24348:	81400c17 	ldw	r5,48(r16)
   2434c:	9c400015 	stw	r17,0(r19)
   24350:	28000526 	beq	r5,zero,24368 <__sflush_r+0x114>
   24354:	80801004 	addi	r2,r16,64
   24358:	28800226 	beq	r5,r2,24364 <__sflush_r+0x110>
   2435c:	9809883a 	mov	r4,r19
   24360:	00276600 	call	27660 <_free_r>
   24364:	80000c15 	stw	zero,48(r16)
   24368:	0005883a 	mov	r2,zero
   2436c:	00001906 	br	243d4 <__sflush_r+0x180>
   24370:	2c800417 	ldw	r18,16(r5)
   24374:	903ffc26 	beq	r18,zero,24368 <__sflush_r+0x114>
   24378:	2c400017 	ldw	r17,0(r5)
   2437c:	108000cc 	andi	r2,r2,3
   24380:	2c800015 	stw	r18,0(r5)
   24384:	8ca3c83a 	sub	r17,r17,r18
   24388:	10001c1e 	bne	r2,zero,243fc <__sflush_r+0x1a8>
   2438c:	28800517 	ldw	r2,20(r5)
   24390:	80800215 	stw	r2,8(r16)
   24394:	04400316 	blt	zero,r17,243a4 <__sflush_r+0x150>
   24398:	003ff306 	br	24368 <__sflush_r+0x114>
   2439c:	90a5883a 	add	r18,r18,r2
   243a0:	047ff10e 	bge	zero,r17,24368 <__sflush_r+0x114>
   243a4:	80800917 	ldw	r2,36(r16)
   243a8:	81400717 	ldw	r5,28(r16)
   243ac:	880f883a 	mov	r7,r17
   243b0:	900d883a 	mov	r6,r18
   243b4:	9809883a 	mov	r4,r19
   243b8:	103ee83a 	callr	r2
   243bc:	88a3c83a 	sub	r17,r17,r2
   243c0:	00bff616 	blt	zero,r2,2439c <__sflush_r+0x148>
   243c4:	80c0030b 	ldhu	r3,12(r16)
   243c8:	18c01014 	ori	r3,r3,64
   243cc:	80c0030d 	sth	r3,12(r16)
   243d0:	00bfffc4 	movi	r2,-1
   243d4:	dfc00417 	ldw	ra,16(sp)
   243d8:	dcc00317 	ldw	r19,12(sp)
   243dc:	dc800217 	ldw	r18,8(sp)
   243e0:	dc400117 	ldw	r17,4(sp)
   243e4:	dc000017 	ldw	r16,0(sp)
   243e8:	dec00504 	addi	sp,sp,20
   243ec:	f800283a 	ret
   243f0:	29000f17 	ldw	r4,60(r5)
   243f4:	013fa616 	blt	zero,r4,24290 <__sflush_r+0x3c>
   243f8:	003fdb06 	br	24368 <__sflush_r+0x114>
   243fc:	0005883a 	mov	r2,zero
   24400:	003fe306 	br	24390 <__sflush_r+0x13c>
   24404:	81801417 	ldw	r6,80(r16)
   24408:	003fb106 	br	242d0 <__sflush_r+0x7c>
   2440c:	80c0030b 	ldhu	r3,12(r16)
   24410:	81000417 	ldw	r4,16(r16)
   24414:	80000115 	stw	zero,4(r16)
   24418:	197dffcc 	andi	r5,r3,63487
   2441c:	8140030d 	sth	r5,12(r16)
   24420:	81000015 	stw	r4,0(r16)
   24424:	18c4000c 	andi	r3,r3,4096
   24428:	183fc726 	beq	r3,zero,24348 <__sflush_r+0xf4>
   2442c:	80801415 	stw	r2,80(r16)
   24430:	003fc506 	br	24348 <__sflush_r+0xf4>
   24434:	98800017 	ldw	r2,0(r19)
   24438:	103fa326 	beq	r2,zero,242c8 <__sflush_r+0x74>
   2443c:	10c00760 	cmpeqi	r3,r2,29
   24440:	1800021e 	bne	r3,zero,2444c <__sflush_r+0x1f8>
   24444:	10800598 	cmpnei	r2,r2,22
   24448:	103fde1e 	bne	r2,zero,243c4 <__sflush_r+0x170>
   2444c:	9c400015 	stw	r17,0(r19)
   24450:	003fc506 	br	24368 <__sflush_r+0x114>
   24454:	283fbc1e 	bne	r5,zero,24348 <__sflush_r+0xf4>
   24458:	003ff406 	br	2442c <__sflush_r+0x1d8>

0002445c <_fflush_r>:
   2445c:	defffd04 	addi	sp,sp,-12
   24460:	dc000115 	stw	r16,4(sp)
   24464:	dfc00215 	stw	ra,8(sp)
   24468:	2021883a 	mov	r16,r4
   2446c:	20000226 	beq	r4,zero,24478 <_fflush_r+0x1c>
   24470:	20800d17 	ldw	r2,52(r4)
   24474:	10000c26 	beq	r2,zero,244a8 <_fflush_r+0x4c>
   24478:	2880030f 	ldh	r2,12(r5)
   2447c:	1000051e 	bne	r2,zero,24494 <_fflush_r+0x38>
   24480:	0005883a 	mov	r2,zero
   24484:	dfc00217 	ldw	ra,8(sp)
   24488:	dc000117 	ldw	r16,4(sp)
   2448c:	dec00304 	addi	sp,sp,12
   24490:	f800283a 	ret
   24494:	8009883a 	mov	r4,r16
   24498:	dfc00217 	ldw	ra,8(sp)
   2449c:	dc000117 	ldw	r16,4(sp)
   244a0:	dec00304 	addi	sp,sp,12
   244a4:	00242541 	jmpi	24254 <__sflush_r>
   244a8:	d9400015 	stw	r5,0(sp)
   244ac:	00248740 	call	24874 <__sinit>
   244b0:	d9400017 	ldw	r5,0(sp)
   244b4:	003ff006 	br	24478 <_fflush_r+0x1c>

000244b8 <fflush>:
   244b8:	20001826 	beq	r4,zero,2451c <fflush+0x64>
   244bc:	008000f4 	movhi	r2,3
   244c0:	200b883a 	mov	r5,r4
   244c4:	1108cd17 	ldw	r4,9012(r2)
   244c8:	20000226 	beq	r4,zero,244d4 <fflush+0x1c>
   244cc:	20800d17 	ldw	r2,52(r4)
   244d0:	10000526 	beq	r2,zero,244e8 <fflush+0x30>
   244d4:	2880030f 	ldh	r2,12(r5)
   244d8:	1000021e 	bne	r2,zero,244e4 <fflush+0x2c>
   244dc:	0005883a 	mov	r2,zero
   244e0:	f800283a 	ret
   244e4:	00242541 	jmpi	24254 <__sflush_r>
   244e8:	defffd04 	addi	sp,sp,-12
   244ec:	d9400115 	stw	r5,4(sp)
   244f0:	d9000015 	stw	r4,0(sp)
   244f4:	dfc00215 	stw	ra,8(sp)
   244f8:	00248740 	call	24874 <__sinit>
   244fc:	d9400117 	ldw	r5,4(sp)
   24500:	d9000017 	ldw	r4,0(sp)
   24504:	2880030f 	ldh	r2,12(r5)
   24508:	10000b1e 	bne	r2,zero,24538 <fflush+0x80>
   2450c:	0005883a 	mov	r2,zero
   24510:	dfc00217 	ldw	ra,8(sp)
   24514:	dec00304 	addi	sp,sp,12
   24518:	f800283a 	ret
   2451c:	018000f4 	movhi	r6,3
   24520:	014000b4 	movhi	r5,2
   24524:	010000f4 	movhi	r4,3
   24528:	3182ea04 	addi	r6,r6,2984
   2452c:	29511704 	addi	r5,r5,17500
   24530:	2102a304 	addi	r4,r4,2700
   24534:	0024d741 	jmpi	24d74 <_fwalk_sglue>
   24538:	dfc00217 	ldw	ra,8(sp)
   2453c:	dec00304 	addi	sp,sp,12
   24540:	00242541 	jmpi	24254 <__sflush_r>

00024544 <__fp_lock>:
   24544:	0005883a 	mov	r2,zero
   24548:	f800283a 	ret

0002454c <stdio_exit_handler>:
   2454c:	018000f4 	movhi	r6,3
   24550:	014000f4 	movhi	r5,3
   24554:	010000f4 	movhi	r4,3
   24558:	3182ea04 	addi	r6,r6,2984
   2455c:	29669504 	addi	r5,r5,-26028
   24560:	2102a304 	addi	r4,r4,2700
   24564:	0024d741 	jmpi	24d74 <_fwalk_sglue>

00024568 <cleanup_stdio>:
   24568:	21400117 	ldw	r5,4(r4)
   2456c:	defffe04 	addi	sp,sp,-8
   24570:	008000f4 	movhi	r2,3
   24574:	dc000015 	stw	r16,0(sp)
   24578:	dfc00115 	stw	ra,4(sp)
   2457c:	108f2204 	addi	r2,r2,15496
   24580:	2021883a 	mov	r16,r4
   24584:	28800126 	beq	r5,r2,2458c <cleanup_stdio+0x24>
   24588:	0029a540 	call	29a54 <_fclose_r>
   2458c:	81400217 	ldw	r5,8(r16)
   24590:	008000f4 	movhi	r2,3
   24594:	108f3c04 	addi	r2,r2,15600
   24598:	28800226 	beq	r5,r2,245a4 <cleanup_stdio+0x3c>
   2459c:	8009883a 	mov	r4,r16
   245a0:	0029a540 	call	29a54 <_fclose_r>
   245a4:	81400317 	ldw	r5,12(r16)
   245a8:	008000f4 	movhi	r2,3
   245ac:	108f5604 	addi	r2,r2,15704
   245b0:	28800526 	beq	r5,r2,245c8 <cleanup_stdio+0x60>
   245b4:	8009883a 	mov	r4,r16
   245b8:	dfc00117 	ldw	ra,4(sp)
   245bc:	dc000017 	ldw	r16,0(sp)
   245c0:	dec00204 	addi	sp,sp,8
   245c4:	0029a541 	jmpi	29a54 <_fclose_r>
   245c8:	dfc00117 	ldw	ra,4(sp)
   245cc:	dc000017 	ldw	r16,0(sp)
   245d0:	dec00204 	addi	sp,sp,8
   245d4:	f800283a 	ret

000245d8 <__fp_unlock>:
   245d8:	0005883a 	mov	r2,zero
   245dc:	f800283a 	ret

000245e0 <global_stdio_init.part.0>:
   245e0:	008000b4 	movhi	r2,2
   245e4:	defffa04 	addi	sp,sp,-24
   245e8:	00c000f4 	movhi	r3,3
   245ec:	10915304 	addi	r2,r2,17740
   245f0:	dc000015 	stw	r16,0(sp)
   245f4:	188f1515 	stw	r2,15444(r3)
   245f8:	040000f4 	movhi	r16,3
   245fc:	008000f4 	movhi	r2,3
   24600:	010000f4 	movhi	r4,3
   24604:	840f2204 	addi	r16,r16,15496
   24608:	dfc00515 	stw	ra,20(sp)
   2460c:	dd000415 	stw	r20,16(sp)
   24610:	dcc00315 	stw	r19,12(sp)
   24614:	dc800215 	stw	r18,8(sp)
   24618:	dc400115 	stw	r17,4(sp)
   2461c:	01800204 	movi	r6,8
   24620:	000b883a 	mov	r5,zero
   24624:	210f3904 	addi	r4,r4,15588
   24628:	100f2215 	stw	zero,15496(r2)
   2462c:	00800104 	movi	r2,4
   24630:	80000115 	stw	zero,4(r16)
   24634:	80000215 	stw	zero,8(r16)
   24638:	80001915 	stw	zero,100(r16)
   2463c:	80800315 	stw	r2,12(r16)
   24640:	80000415 	stw	zero,16(r16)
   24644:	80000515 	stw	zero,20(r16)
   24648:	80000615 	stw	zero,24(r16)
   2464c:	00255c40 	call	255c4 <memset>
   24650:	050000b4 	movhi	r20,2
   24654:	04c000b4 	movhi	r19,2
   24658:	048000b4 	movhi	r18,2
   2465c:	044000b4 	movhi	r17,2
   24660:	00800074 	movhi	r2,1
   24664:	010000f4 	movhi	r4,3
   24668:	a5138704 	addi	r20,r20,19996
   2466c:	9cd39e04 	addi	r19,r19,20088
   24670:	9493be04 	addi	r18,r18,20216
   24674:	8c53d504 	addi	r17,r17,20308
   24678:	10800284 	addi	r2,r2,10
   2467c:	01800204 	movi	r6,8
   24680:	000b883a 	mov	r5,zero
   24684:	210f5304 	addi	r4,r4,15692
   24688:	84000715 	stw	r16,28(r16)
   2468c:	85000815 	stw	r20,32(r16)
   24690:	84c00915 	stw	r19,36(r16)
   24694:	84800a15 	stw	r18,40(r16)
   24698:	84400b15 	stw	r17,44(r16)
   2469c:	80001a15 	stw	zero,104(r16)
   246a0:	80001b15 	stw	zero,108(r16)
   246a4:	80001c15 	stw	zero,112(r16)
   246a8:	80003315 	stw	zero,204(r16)
   246ac:	80801d15 	stw	r2,116(r16)
   246b0:	80001e15 	stw	zero,120(r16)
   246b4:	80001f15 	stw	zero,124(r16)
   246b8:	80002015 	stw	zero,128(r16)
   246bc:	00255c40 	call	255c4 <memset>
   246c0:	010000f4 	movhi	r4,3
   246c4:	00c000f4 	movhi	r3,3
   246c8:	008000b4 	movhi	r2,2
   246cc:	18cf3c04 	addi	r3,r3,15600
   246d0:	10800484 	addi	r2,r2,18
   246d4:	01800204 	movi	r6,8
   246d8:	000b883a 	mov	r5,zero
   246dc:	210f6d04 	addi	r4,r4,15796
   246e0:	80c02115 	stw	r3,132(r16)
   246e4:	85002215 	stw	r20,136(r16)
   246e8:	84c02315 	stw	r19,140(r16)
   246ec:	84802415 	stw	r18,144(r16)
   246f0:	84402515 	stw	r17,148(r16)
   246f4:	80003415 	stw	zero,208(r16)
   246f8:	80003515 	stw	zero,212(r16)
   246fc:	80003615 	stw	zero,216(r16)
   24700:	80004d15 	stw	zero,308(r16)
   24704:	80803715 	stw	r2,220(r16)
   24708:	80003815 	stw	zero,224(r16)
   2470c:	80003915 	stw	zero,228(r16)
   24710:	80003a15 	stw	zero,232(r16)
   24714:	00255c40 	call	255c4 <memset>
   24718:	008000f4 	movhi	r2,3
   2471c:	108f5604 	addi	r2,r2,15704
   24720:	80803b15 	stw	r2,236(r16)
   24724:	85003c15 	stw	r20,240(r16)
   24728:	84c03d15 	stw	r19,244(r16)
   2472c:	84803e15 	stw	r18,248(r16)
   24730:	84403f15 	stw	r17,252(r16)
   24734:	dfc00517 	ldw	ra,20(sp)
   24738:	dd000417 	ldw	r20,16(sp)
   2473c:	dcc00317 	ldw	r19,12(sp)
   24740:	dc800217 	ldw	r18,8(sp)
   24744:	dc400117 	ldw	r17,4(sp)
   24748:	dc000017 	ldw	r16,0(sp)
   2474c:	dec00604 	addi	sp,sp,24
   24750:	f800283a 	ret

00024754 <__sfp>:
   24754:	008000f4 	movhi	r2,3
   24758:	108f1517 	ldw	r2,15444(r2)
   2475c:	defffc04 	addi	sp,sp,-16
   24760:	dc800215 	stw	r18,8(sp)
   24764:	dfc00315 	stw	ra,12(sp)
   24768:	dc400115 	stw	r17,4(sp)
   2476c:	dc000015 	stw	r16,0(sp)
   24770:	2025883a 	mov	r18,r4
   24774:	10003926 	beq	r2,zero,2485c <__sfp+0x108>
   24778:	044000f4 	movhi	r17,3
   2477c:	8c42ea04 	addi	r17,r17,2984
   24780:	88800117 	ldw	r2,4(r17)
   24784:	8c000217 	ldw	r16,8(r17)
   24788:	10bfffc4 	addi	r2,r2,-1
   2478c:	1000030e 	bge	r2,zero,2479c <__sfp+0x48>
   24790:	00001f06 	br	24810 <__sfp+0xbc>
   24794:	84001a04 	addi	r16,r16,104
   24798:	28001d26 	beq	r5,zero,24810 <__sfp+0xbc>
   2479c:	80c0030f 	ldh	r3,12(r16)
   247a0:	10bfffc4 	addi	r2,r2,-1
   247a4:	117fffd8 	cmpnei	r5,r2,-1
   247a8:	183ffa1e 	bne	r3,zero,24794 <__sfp+0x40>
   247ac:	00bffff4 	movhi	r2,65535
   247b0:	10800044 	addi	r2,r2,1
   247b4:	80800315 	stw	r2,12(r16)
   247b8:	80001915 	stw	zero,100(r16)
   247bc:	80000015 	stw	zero,0(r16)
   247c0:	80000215 	stw	zero,8(r16)
   247c4:	80000115 	stw	zero,4(r16)
   247c8:	80000415 	stw	zero,16(r16)
   247cc:	80000515 	stw	zero,20(r16)
   247d0:	80000615 	stw	zero,24(r16)
   247d4:	01800204 	movi	r6,8
   247d8:	000b883a 	mov	r5,zero
   247dc:	81001704 	addi	r4,r16,92
   247e0:	00255c40 	call	255c4 <memset>
   247e4:	80000c15 	stw	zero,48(r16)
   247e8:	80000d15 	stw	zero,52(r16)
   247ec:	80001115 	stw	zero,68(r16)
   247f0:	80001215 	stw	zero,72(r16)
   247f4:	8005883a 	mov	r2,r16
   247f8:	dfc00317 	ldw	ra,12(sp)
   247fc:	dc800217 	ldw	r18,8(sp)
   24800:	dc400117 	ldw	r17,4(sp)
   24804:	dc000017 	ldw	r16,0(sp)
   24808:	dec00404 	addi	sp,sp,16
   2480c:	f800283a 	ret
   24810:	8c000017 	ldw	r16,0(r17)
   24814:	80000226 	beq	r16,zero,24820 <__sfp+0xcc>
   24818:	8023883a 	mov	r17,r16
   2481c:	003fd806 	br	24780 <__sfp+0x2c>
   24820:	01406b04 	movi	r5,428
   24824:	9009883a 	mov	r4,r18
   24828:	00279680 	call	27968 <_malloc_r>
   2482c:	1021883a 	mov	r16,r2
   24830:	10000c26 	beq	r2,zero,24864 <__sfp+0x110>
   24834:	10000015 	stw	zero,0(r2)
   24838:	11000304 	addi	r4,r2,12
   2483c:	00800104 	movi	r2,4
   24840:	80800115 	stw	r2,4(r16)
   24844:	81000215 	stw	r4,8(r16)
   24848:	01806804 	movi	r6,416
   2484c:	000b883a 	mov	r5,zero
   24850:	00255c40 	call	255c4 <memset>
   24854:	8c000015 	stw	r16,0(r17)
   24858:	003fef06 	br	24818 <__sfp+0xc4>
   2485c:	00245e00 	call	245e0 <global_stdio_init.part.0>
   24860:	003fc506 	br	24778 <__sfp+0x24>
   24864:	88000015 	stw	zero,0(r17)
   24868:	00800304 	movi	r2,12
   2486c:	90800015 	stw	r2,0(r18)
   24870:	003fe006 	br	247f4 <__sfp+0xa0>

00024874 <__sinit>:
   24874:	20800d17 	ldw	r2,52(r4)
   24878:	10000126 	beq	r2,zero,24880 <__sinit+0xc>
   2487c:	f800283a 	ret
   24880:	00c000f4 	movhi	r3,3
   24884:	008000b4 	movhi	r2,2
   24888:	18cf1517 	ldw	r3,15444(r3)
   2488c:	10915a04 	addi	r2,r2,17768
   24890:	20800d15 	stw	r2,52(r4)
   24894:	183ff91e 	bne	r3,zero,2487c <__sinit+0x8>
   24898:	00245e01 	jmpi	245e0 <global_stdio_init.part.0>

0002489c <__sfp_lock_acquire>:
   2489c:	f800283a 	ret

000248a0 <__sfp_lock_release>:
   248a0:	f800283a 	ret

000248a4 <__fp_lock_all>:
   248a4:	018000f4 	movhi	r6,3
   248a8:	014000b4 	movhi	r5,2
   248ac:	3182ea04 	addi	r6,r6,2984
   248b0:	29515104 	addi	r5,r5,17732
   248b4:	0009883a 	mov	r4,zero
   248b8:	0024d741 	jmpi	24d74 <_fwalk_sglue>

000248bc <__fp_unlock_all>:
   248bc:	018000f4 	movhi	r6,3
   248c0:	014000b4 	movhi	r5,2
   248c4:	3182ea04 	addi	r6,r6,2984
   248c8:	29517604 	addi	r5,r5,17880
   248cc:	0009883a 	mov	r4,zero
   248d0:	0024d741 	jmpi	24d74 <_fwalk_sglue>

000248d4 <__sfvwrite_r>:
   248d4:	30800217 	ldw	r2,8(r6)
   248d8:	1000c426 	beq	r2,zero,24bec <__sfvwrite_r+0x318>
   248dc:	2a80030b 	ldhu	r10,12(r5)
   248e0:	defff504 	addi	sp,sp,-44
   248e4:	df000915 	stw	fp,36(sp)
   248e8:	dcc00415 	stw	r19,16(sp)
   248ec:	dc000115 	stw	r16,4(sp)
   248f0:	dfc00a15 	stw	ra,40(sp)
   248f4:	ddc00815 	stw	r23,32(sp)
   248f8:	dd800715 	stw	r22,28(sp)
   248fc:	dd400615 	stw	r21,24(sp)
   24900:	dd000515 	stw	r20,20(sp)
   24904:	dc800315 	stw	r18,12(sp)
   24908:	dc400215 	stw	r17,8(sp)
   2490c:	5080020c 	andi	r2,r10,8
   24910:	3039883a 	mov	fp,r6
   24914:	2027883a 	mov	r19,r4
   24918:	2821883a 	mov	r16,r5
   2491c:	10002226 	beq	r2,zero,249a8 <__sfvwrite_r+0xd4>
   24920:	28800417 	ldw	r2,16(r5)
   24924:	10002026 	beq	r2,zero,249a8 <__sfvwrite_r+0xd4>
   24928:	5080008c 	andi	r2,r10,2
   2492c:	e4400017 	ldw	r17,0(fp)
   24930:	10002526 	beq	r2,zero,249c8 <__sfvwrite_r+0xf4>
   24934:	80800917 	ldw	r2,36(r16)
   24938:	81400717 	ldw	r5,28(r16)
   2493c:	05600034 	movhi	r21,32768
   24940:	0029883a 	mov	r20,zero
   24944:	0025883a 	mov	r18,zero
   24948:	ad7f0004 	addi	r21,r21,-1024
   2494c:	a00d883a 	mov	r6,r20
   24950:	9809883a 	mov	r4,r19
   24954:	90001026 	beq	r18,zero,24998 <__sfvwrite_r+0xc4>
   24958:	900f883a 	mov	r7,r18
   2495c:	ac80012e 	bgeu	r21,r18,24964 <__sfvwrite_r+0x90>
   24960:	a80f883a 	mov	r7,r21
   24964:	103ee83a 	callr	r2
   24968:	00809b0e 	bge	zero,r2,24bd8 <__sfvwrite_r+0x304>
   2496c:	e0c00217 	ldw	r3,8(fp)
   24970:	a0a9883a 	add	r20,r20,r2
   24974:	90a5c83a 	sub	r18,r18,r2
   24978:	1885c83a 	sub	r2,r3,r2
   2497c:	e0800215 	stw	r2,8(fp)
   24980:	10008426 	beq	r2,zero,24b94 <__sfvwrite_r+0x2c0>
   24984:	80800917 	ldw	r2,36(r16)
   24988:	81400717 	ldw	r5,28(r16)
   2498c:	a00d883a 	mov	r6,r20
   24990:	9809883a 	mov	r4,r19
   24994:	903ff01e 	bne	r18,zero,24958 <__sfvwrite_r+0x84>
   24998:	8d000017 	ldw	r20,0(r17)
   2499c:	8c800117 	ldw	r18,4(r17)
   249a0:	8c400204 	addi	r17,r17,8
   249a4:	003fe906 	br	2494c <__sfvwrite_r+0x78>
   249a8:	800b883a 	mov	r5,r16
   249ac:	9809883a 	mov	r4,r19
   249b0:	0024f5c0 	call	24f5c <__swsetup_r>
   249b4:	10008b1e 	bne	r2,zero,24be4 <__sfvwrite_r+0x310>
   249b8:	8280030b 	ldhu	r10,12(r16)
   249bc:	e4400017 	ldw	r17,0(fp)
   249c0:	5080008c 	andi	r2,r10,2
   249c4:	103fdb1e 	bne	r2,zero,24934 <__sfvwrite_r+0x60>
   249c8:	5080004c 	andi	r2,r10,1
   249cc:	1000501e 	bne	r2,zero,24b10 <__sfvwrite_r+0x23c>
   249d0:	00a00034 	movhi	r2,32768
   249d4:	81c00017 	ldw	r7,0(r16)
   249d8:	80c00217 	ldw	r3,8(r16)
   249dc:	10bfffc4 	addi	r2,r2,-1
   249e0:	002d883a 	mov	r22,zero
   249e4:	0025883a 	mov	r18,zero
   249e8:	d8800015 	stw	r2,0(sp)
   249ec:	3809883a 	mov	r4,r7
   249f0:	1829883a 	mov	r20,r3
   249f4:	90004226 	beq	r18,zero,24b00 <__sfvwrite_r+0x22c>
   249f8:	5080800c 	andi	r2,r10,512
   249fc:	10009526 	beq	r2,zero,24c54 <__sfvwrite_r+0x380>
   24a00:	182b883a 	mov	r21,r3
   24a04:	90c0ba36 	bltu	r18,r3,24cf0 <__sfvwrite_r+0x41c>
   24a08:	5081200c 	andi	r2,r10,1152
   24a0c:	10002626 	beq	r2,zero,24aa8 <__sfvwrite_r+0x1d4>
   24a10:	80c00517 	ldw	r3,20(r16)
   24a14:	81400417 	ldw	r5,16(r16)
   24a18:	18c5883a 	add	r2,r3,r3
   24a1c:	10c5883a 	add	r2,r2,r3
   24a20:	1006d7fa 	srli	r3,r2,31
   24a24:	396bc83a 	sub	r21,r7,r5
   24a28:	a9000044 	addi	r4,r21,1
   24a2c:	1887883a 	add	r3,r3,r2
   24a30:	1829d07a 	srai	r20,r3,1
   24a34:	2485883a 	add	r2,r4,r18
   24a38:	a00d883a 	mov	r6,r20
   24a3c:	a080022e 	bgeu	r20,r2,24a48 <__sfvwrite_r+0x174>
   24a40:	1029883a 	mov	r20,r2
   24a44:	100d883a 	mov	r6,r2
   24a48:	5281000c 	andi	r10,r10,1024
   24a4c:	5000b626 	beq	r10,zero,24d28 <__sfvwrite_r+0x454>
   24a50:	300b883a 	mov	r5,r6
   24a54:	9809883a 	mov	r4,r19
   24a58:	00279680 	call	27968 <_malloc_r>
   24a5c:	102f883a 	mov	r23,r2
   24a60:	1000c026 	beq	r2,zero,24d64 <__sfvwrite_r+0x490>
   24a64:	81400417 	ldw	r5,16(r16)
   24a68:	a80d883a 	mov	r6,r21
   24a6c:	1009883a 	mov	r4,r2
   24a70:	002539c0 	call	2539c <memcpy>
   24a74:	8080030b 	ldhu	r2,12(r16)
   24a78:	00fedfc4 	movi	r3,-1153
   24a7c:	10c4703a 	and	r2,r2,r3
   24a80:	10802014 	ori	r2,r2,128
   24a84:	8080030d 	sth	r2,12(r16)
   24a88:	a54fc83a 	sub	r7,r20,r21
   24a8c:	bd49883a 	add	r4,r23,r21
   24a90:	85000515 	stw	r20,20(r16)
   24a94:	85c00415 	stw	r23,16(r16)
   24a98:	81000015 	stw	r4,0(r16)
   24a9c:	9029883a 	mov	r20,r18
   24aa0:	81c00215 	stw	r7,8(r16)
   24aa4:	902b883a 	mov	r21,r18
   24aa8:	a80d883a 	mov	r6,r21
   24aac:	b00b883a 	mov	r5,r22
   24ab0:	002549c0 	call	2549c <memmove>
   24ab4:	80c00217 	ldw	r3,8(r16)
   24ab8:	81c00017 	ldw	r7,0(r16)
   24abc:	902f883a 	mov	r23,r18
   24ac0:	1d07c83a 	sub	r3,r3,r20
   24ac4:	3d4d883a 	add	r6,r7,r21
   24ac8:	80c00215 	stw	r3,8(r16)
   24acc:	81800015 	stw	r6,0(r16)
   24ad0:	0025883a 	mov	r18,zero
   24ad4:	e0800217 	ldw	r2,8(fp)
   24ad8:	b5ed883a 	add	r22,r22,r23
   24adc:	15c5c83a 	sub	r2,r2,r23
   24ae0:	e0800215 	stw	r2,8(fp)
   24ae4:	10002b26 	beq	r2,zero,24b94 <__sfvwrite_r+0x2c0>
   24ae8:	81c00017 	ldw	r7,0(r16)
   24aec:	80c00217 	ldw	r3,8(r16)
   24af0:	8280030b 	ldhu	r10,12(r16)
   24af4:	3809883a 	mov	r4,r7
   24af8:	1829883a 	mov	r20,r3
   24afc:	903fbe1e 	bne	r18,zero,249f8 <__sfvwrite_r+0x124>
   24b00:	8d800017 	ldw	r22,0(r17)
   24b04:	8c800117 	ldw	r18,4(r17)
   24b08:	8c400204 	addi	r17,r17,8
   24b0c:	003fb706 	br	249ec <__sfvwrite_r+0x118>
   24b10:	002f883a 	mov	r23,zero
   24b14:	0005883a 	mov	r2,zero
   24b18:	002d883a 	mov	r22,zero
   24b1c:	002b883a 	mov	r21,zero
   24b20:	a8003426 	beq	r21,zero,24bf4 <__sfvwrite_r+0x320>
   24b24:	10003826 	beq	r2,zero,24c08 <__sfvwrite_r+0x334>
   24b28:	b829883a 	mov	r20,r23
   24b2c:	ad00012e 	bgeu	r21,r20,24b34 <__sfvwrite_r+0x260>
   24b30:	a829883a 	mov	r20,r21
   24b34:	81000017 	ldw	r4,0(r16)
   24b38:	80800417 	ldw	r2,16(r16)
   24b3c:	84800217 	ldw	r18,8(r16)
   24b40:	81c00517 	ldw	r7,20(r16)
   24b44:	1100022e 	bgeu	r2,r4,24b50 <__sfvwrite_r+0x27c>
   24b48:	91e5883a 	add	r18,r18,r7
   24b4c:	95003616 	blt	r18,r20,24c28 <__sfvwrite_r+0x354>
   24b50:	a1c06a16 	blt	r20,r7,24cfc <__sfvwrite_r+0x428>
   24b54:	80800917 	ldw	r2,36(r16)
   24b58:	81400717 	ldw	r5,28(r16)
   24b5c:	b00d883a 	mov	r6,r22
   24b60:	9809883a 	mov	r4,r19
   24b64:	103ee83a 	callr	r2
   24b68:	1025883a 	mov	r18,r2
   24b6c:	00801a0e 	bge	zero,r2,24bd8 <__sfvwrite_r+0x304>
   24b70:	bcafc83a 	sub	r23,r23,r18
   24b74:	b8001426 	beq	r23,zero,24bc8 <__sfvwrite_r+0x2f4>
   24b78:	00800044 	movi	r2,1
   24b7c:	e0c00217 	ldw	r3,8(fp)
   24b80:	b4ad883a 	add	r22,r22,r18
   24b84:	acabc83a 	sub	r21,r21,r18
   24b88:	1c87c83a 	sub	r3,r3,r18
   24b8c:	e0c00215 	stw	r3,8(fp)
   24b90:	183fe31e 	bne	r3,zero,24b20 <__sfvwrite_r+0x24c>
   24b94:	0005883a 	mov	r2,zero
   24b98:	dfc00a17 	ldw	ra,40(sp)
   24b9c:	df000917 	ldw	fp,36(sp)
   24ba0:	ddc00817 	ldw	r23,32(sp)
   24ba4:	dd800717 	ldw	r22,28(sp)
   24ba8:	dd400617 	ldw	r21,24(sp)
   24bac:	dd000517 	ldw	r20,20(sp)
   24bb0:	dcc00417 	ldw	r19,16(sp)
   24bb4:	dc800317 	ldw	r18,12(sp)
   24bb8:	dc400217 	ldw	r17,8(sp)
   24bbc:	dc000117 	ldw	r16,4(sp)
   24bc0:	dec00b04 	addi	sp,sp,44
   24bc4:	f800283a 	ret
   24bc8:	800b883a 	mov	r5,r16
   24bcc:	9809883a 	mov	r4,r19
   24bd0:	002445c0 	call	2445c <_fflush_r>
   24bd4:	103fe926 	beq	r2,zero,24b7c <__sfvwrite_r+0x2a8>
   24bd8:	8080030b 	ldhu	r2,12(r16)
   24bdc:	10801014 	ori	r2,r2,64
   24be0:	8080030d 	sth	r2,12(r16)
   24be4:	00bfffc4 	movi	r2,-1
   24be8:	003feb06 	br	24b98 <__sfvwrite_r+0x2c4>
   24bec:	0005883a 	mov	r2,zero
   24bf0:	f800283a 	ret
   24bf4:	8d400117 	ldw	r21,4(r17)
   24bf8:	8805883a 	mov	r2,r17
   24bfc:	8c400204 	addi	r17,r17,8
   24c00:	a83ffc26 	beq	r21,zero,24bf4 <__sfvwrite_r+0x320>
   24c04:	15800017 	ldw	r22,0(r2)
   24c08:	a80d883a 	mov	r6,r21
   24c0c:	01400284 	movi	r5,10
   24c10:	b009883a 	mov	r4,r22
   24c14:	00252a00 	call	252a0 <memchr>
   24c18:	10004f26 	beq	r2,zero,24d58 <__sfvwrite_r+0x484>
   24c1c:	10800044 	addi	r2,r2,1
   24c20:	15afc83a 	sub	r23,r2,r22
   24c24:	003fc006 	br	24b28 <__sfvwrite_r+0x254>
   24c28:	b00b883a 	mov	r5,r22
   24c2c:	900d883a 	mov	r6,r18
   24c30:	002549c0 	call	2549c <memmove>
   24c34:	80800017 	ldw	r2,0(r16)
   24c38:	800b883a 	mov	r5,r16
   24c3c:	9809883a 	mov	r4,r19
   24c40:	1485883a 	add	r2,r2,r18
   24c44:	80800015 	stw	r2,0(r16)
   24c48:	002445c0 	call	2445c <_fflush_r>
   24c4c:	103fc826 	beq	r2,zero,24b70 <__sfvwrite_r+0x29c>
   24c50:	003fe106 	br	24bd8 <__sfvwrite_r+0x304>
   24c54:	80800417 	ldw	r2,16(r16)
   24c58:	11c01236 	bltu	r2,r7,24ca4 <__sfvwrite_r+0x3d0>
   24c5c:	81400517 	ldw	r5,20(r16)
   24c60:	91401036 	bltu	r18,r5,24ca4 <__sfvwrite_r+0x3d0>
   24c64:	00a00034 	movhi	r2,32768
   24c68:	902f883a 	mov	r23,r18
   24c6c:	90800136 	bltu	r18,r2,24c74 <__sfvwrite_r+0x3a0>
   24c70:	ddc00017 	ldw	r23,0(sp)
   24c74:	b809883a 	mov	r4,r23
   24c78:	00207cc0 	call	207cc <__modsi3>
   24c7c:	80c00917 	ldw	r3,36(r16)
   24c80:	81400717 	ldw	r5,28(r16)
   24c84:	b88fc83a 	sub	r7,r23,r2
   24c88:	b00d883a 	mov	r6,r22
   24c8c:	9809883a 	mov	r4,r19
   24c90:	183ee83a 	callr	r3
   24c94:	102f883a 	mov	r23,r2
   24c98:	00bfcf0e 	bge	zero,r2,24bd8 <__sfvwrite_r+0x304>
   24c9c:	95e5c83a 	sub	r18,r18,r23
   24ca0:	003f8c06 	br	24ad4 <__sfvwrite_r+0x200>
   24ca4:	182f883a 	mov	r23,r3
   24ca8:	90c0012e 	bgeu	r18,r3,24cb0 <__sfvwrite_r+0x3dc>
   24cac:	902f883a 	mov	r23,r18
   24cb0:	3809883a 	mov	r4,r7
   24cb4:	b80d883a 	mov	r6,r23
   24cb8:	b00b883a 	mov	r5,r22
   24cbc:	002549c0 	call	2549c <memmove>
   24cc0:	80c00217 	ldw	r3,8(r16)
   24cc4:	81c00017 	ldw	r7,0(r16)
   24cc8:	1dc7c83a 	sub	r3,r3,r23
   24ccc:	3dcf883a 	add	r7,r7,r23
   24cd0:	80c00215 	stw	r3,8(r16)
   24cd4:	81c00015 	stw	r7,0(r16)
   24cd8:	183ff01e 	bne	r3,zero,24c9c <__sfvwrite_r+0x3c8>
   24cdc:	800b883a 	mov	r5,r16
   24ce0:	9809883a 	mov	r4,r19
   24ce4:	002445c0 	call	2445c <_fflush_r>
   24ce8:	103fec26 	beq	r2,zero,24c9c <__sfvwrite_r+0x3c8>
   24cec:	003fba06 	br	24bd8 <__sfvwrite_r+0x304>
   24cf0:	9029883a 	mov	r20,r18
   24cf4:	902b883a 	mov	r21,r18
   24cf8:	003f6b06 	br	24aa8 <__sfvwrite_r+0x1d4>
   24cfc:	a00d883a 	mov	r6,r20
   24d00:	b00b883a 	mov	r5,r22
   24d04:	002549c0 	call	2549c <memmove>
   24d08:	80c00217 	ldw	r3,8(r16)
   24d0c:	80800017 	ldw	r2,0(r16)
   24d10:	a025883a 	mov	r18,r20
   24d14:	1d07c83a 	sub	r3,r3,r20
   24d18:	1505883a 	add	r2,r2,r20
   24d1c:	80c00215 	stw	r3,8(r16)
   24d20:	80800015 	stw	r2,0(r16)
   24d24:	003f9206 	br	24b70 <__sfvwrite_r+0x29c>
   24d28:	9809883a 	mov	r4,r19
   24d2c:	00293380 	call	29338 <_realloc_r>
   24d30:	102f883a 	mov	r23,r2
   24d34:	103f541e 	bne	r2,zero,24a88 <__sfvwrite_r+0x1b4>
   24d38:	81400417 	ldw	r5,16(r16)
   24d3c:	9809883a 	mov	r4,r19
   24d40:	00276600 	call	27660 <_free_r>
   24d44:	8080030b 	ldhu	r2,12(r16)
   24d48:	00c00304 	movi	r3,12
   24d4c:	98c00015 	stw	r3,0(r19)
   24d50:	10bfdfcc 	andi	r2,r2,65407
   24d54:	003fa106 	br	24bdc <__sfvwrite_r+0x308>
   24d58:	ad000044 	addi	r20,r21,1
   24d5c:	a02f883a 	mov	r23,r20
   24d60:	003f7206 	br	24b2c <__sfvwrite_r+0x258>
   24d64:	00c00304 	movi	r3,12
   24d68:	8080030b 	ldhu	r2,12(r16)
   24d6c:	98c00015 	stw	r3,0(r19)
   24d70:	003f9a06 	br	24bdc <__sfvwrite_r+0x308>

00024d74 <_fwalk_sglue>:
   24d74:	defff904 	addi	sp,sp,-28
   24d78:	dd400515 	stw	r21,20(sp)
   24d7c:	dd000415 	stw	r20,16(sp)
   24d80:	dcc00315 	stw	r19,12(sp)
   24d84:	dc800215 	stw	r18,8(sp)
   24d88:	dfc00615 	stw	ra,24(sp)
   24d8c:	dc400115 	stw	r17,4(sp)
   24d90:	dc000015 	stw	r16,0(sp)
   24d94:	2027883a 	mov	r19,r4
   24d98:	2829883a 	mov	r20,r5
   24d9c:	3025883a 	mov	r18,r6
   24da0:	002b883a 	mov	r21,zero
   24da4:	94400117 	ldw	r17,4(r18)
   24da8:	94000217 	ldw	r16,8(r18)
   24dac:	8c7fffc4 	addi	r17,r17,-1
   24db0:	88000e16 	blt	r17,zero,24dec <_fwalk_sglue+0x78>
   24db4:	8080030b 	ldhu	r2,12(r16)
   24db8:	8c7fffc4 	addi	r17,r17,-1
   24dbc:	108000b0 	cmpltui	r2,r2,2
   24dc0:	1000071e 	bne	r2,zero,24de0 <_fwalk_sglue+0x6c>
   24dc4:	8080038f 	ldh	r2,14(r16)
   24dc8:	800b883a 	mov	r5,r16
   24dcc:	9809883a 	mov	r4,r19
   24dd0:	10bfffe0 	cmpeqi	r2,r2,-1
   24dd4:	1000021e 	bne	r2,zero,24de0 <_fwalk_sglue+0x6c>
   24dd8:	a03ee83a 	callr	r20
   24ddc:	a8aab03a 	or	r21,r21,r2
   24de0:	88bfffd8 	cmpnei	r2,r17,-1
   24de4:	84001a04 	addi	r16,r16,104
   24de8:	103ff21e 	bne	r2,zero,24db4 <_fwalk_sglue+0x40>
   24dec:	94800017 	ldw	r18,0(r18)
   24df0:	903fec1e 	bne	r18,zero,24da4 <_fwalk_sglue+0x30>
   24df4:	a805883a 	mov	r2,r21
   24df8:	dfc00617 	ldw	ra,24(sp)
   24dfc:	dd400517 	ldw	r21,20(sp)
   24e00:	dd000417 	ldw	r20,16(sp)
   24e04:	dcc00317 	ldw	r19,12(sp)
   24e08:	dc800217 	ldw	r18,8(sp)
   24e0c:	dc400117 	ldw	r17,4(sp)
   24e10:	dc000017 	ldw	r16,0(sp)
   24e14:	dec00704 	addi	sp,sp,28
   24e18:	f800283a 	ret

00024e1c <__sread>:
   24e1c:	defffe04 	addi	sp,sp,-8
   24e20:	dc000015 	stw	r16,0(sp)
   24e24:	2821883a 	mov	r16,r5
   24e28:	2940038f 	ldh	r5,14(r5)
   24e2c:	dfc00115 	stw	ra,4(sp)
   24e30:	0025a440 	call	25a44 <_read_r>
   24e34:	10000716 	blt	r2,zero,24e54 <__sread+0x38>
   24e38:	80c01417 	ldw	r3,80(r16)
   24e3c:	1887883a 	add	r3,r3,r2
   24e40:	80c01415 	stw	r3,80(r16)
   24e44:	dfc00117 	ldw	ra,4(sp)
   24e48:	dc000017 	ldw	r16,0(sp)
   24e4c:	dec00204 	addi	sp,sp,8
   24e50:	f800283a 	ret
   24e54:	80c0030b 	ldhu	r3,12(r16)
   24e58:	18fbffcc 	andi	r3,r3,61439
   24e5c:	80c0030d 	sth	r3,12(r16)
   24e60:	dfc00117 	ldw	ra,4(sp)
   24e64:	dc000017 	ldw	r16,0(sp)
   24e68:	dec00204 	addi	sp,sp,8
   24e6c:	f800283a 	ret

00024e70 <__seofread>:
   24e70:	0005883a 	mov	r2,zero
   24e74:	f800283a 	ret

00024e78 <__swrite>:
   24e78:	2880030b 	ldhu	r2,12(r5)
   24e7c:	defffb04 	addi	sp,sp,-20
   24e80:	dcc00315 	stw	r19,12(sp)
   24e84:	dc800215 	stw	r18,8(sp)
   24e88:	dc400115 	stw	r17,4(sp)
   24e8c:	dc000015 	stw	r16,0(sp)
   24e90:	dfc00415 	stw	ra,16(sp)
   24e94:	10c0400c 	andi	r3,r2,256
   24e98:	2821883a 	mov	r16,r5
   24e9c:	2023883a 	mov	r17,r4
   24ea0:	3025883a 	mov	r18,r6
   24ea4:	3827883a 	mov	r19,r7
   24ea8:	18000d1e 	bne	r3,zero,24ee0 <__swrite+0x68>
   24eac:	8140038f 	ldh	r5,14(r16)
   24eb0:	10bbffcc 	andi	r2,r2,61439
   24eb4:	980f883a 	mov	r7,r19
   24eb8:	900d883a 	mov	r6,r18
   24ebc:	8809883a 	mov	r4,r17
   24ec0:	8080030d 	sth	r2,12(r16)
   24ec4:	dfc00417 	ldw	ra,16(sp)
   24ec8:	dcc00317 	ldw	r19,12(sp)
   24ecc:	dc800217 	ldw	r18,8(sp)
   24ed0:	dc400117 	ldw	r17,4(sp)
   24ed4:	dc000017 	ldw	r16,0(sp)
   24ed8:	dec00504 	addi	sp,sp,20
   24edc:	0025aa81 	jmpi	25aa8 <_write_r>
   24ee0:	2940038f 	ldh	r5,14(r5)
   24ee4:	01c00084 	movi	r7,2
   24ee8:	000d883a 	mov	r6,zero
   24eec:	00259e00 	call	259e0 <_lseek_r>
   24ef0:	8080030b 	ldhu	r2,12(r16)
   24ef4:	003fed06 	br	24eac <__swrite+0x34>

00024ef8 <__sseek>:
   24ef8:	defffe04 	addi	sp,sp,-8
   24efc:	dc000015 	stw	r16,0(sp)
   24f00:	2821883a 	mov	r16,r5
   24f04:	2940038f 	ldh	r5,14(r5)
   24f08:	dfc00115 	stw	ra,4(sp)
   24f0c:	00259e00 	call	259e0 <_lseek_r>
   24f10:	10ffffd8 	cmpnei	r3,r2,-1
   24f14:	18000826 	beq	r3,zero,24f38 <__sseek+0x40>
   24f18:	80c0030b 	ldhu	r3,12(r16)
   24f1c:	80801415 	stw	r2,80(r16)
   24f20:	18c40014 	ori	r3,r3,4096
   24f24:	80c0030d 	sth	r3,12(r16)
   24f28:	dfc00117 	ldw	ra,4(sp)
   24f2c:	dc000017 	ldw	r16,0(sp)
   24f30:	dec00204 	addi	sp,sp,8
   24f34:	f800283a 	ret
   24f38:	80c0030b 	ldhu	r3,12(r16)
   24f3c:	18fbffcc 	andi	r3,r3,61439
   24f40:	80c0030d 	sth	r3,12(r16)
   24f44:	dfc00117 	ldw	ra,4(sp)
   24f48:	dc000017 	ldw	r16,0(sp)
   24f4c:	dec00204 	addi	sp,sp,8
   24f50:	f800283a 	ret

00024f54 <__sclose>:
   24f54:	2940038f 	ldh	r5,14(r5)
   24f58:	00258c01 	jmpi	258c0 <_close_r>

00024f5c <__swsetup_r>:
   24f5c:	008000f4 	movhi	r2,3
   24f60:	1088cd17 	ldw	r2,9012(r2)
   24f64:	defffd04 	addi	sp,sp,-12
   24f68:	dc400115 	stw	r17,4(sp)
   24f6c:	dc000015 	stw	r16,0(sp)
   24f70:	dfc00215 	stw	ra,8(sp)
   24f74:	2023883a 	mov	r17,r4
   24f78:	2821883a 	mov	r16,r5
   24f7c:	10000226 	beq	r2,zero,24f88 <__swsetup_r+0x2c>
   24f80:	10c00d17 	ldw	r3,52(r2)
   24f84:	18003f26 	beq	r3,zero,25084 <__swsetup_r+0x128>
   24f88:	80c0030b 	ldhu	r3,12(r16)
   24f8c:	1880020c 	andi	r2,r3,8
   24f90:	10001a26 	beq	r2,zero,24ffc <__swsetup_r+0xa0>
   24f94:	80800417 	ldw	r2,16(r16)
   24f98:	10002126 	beq	r2,zero,25020 <__swsetup_r+0xc4>
   24f9c:	1900004c 	andi	r4,r3,1
   24fa0:	20000b1e 	bne	r4,zero,24fd0 <__swsetup_r+0x74>
   24fa4:	1900008c 	andi	r4,r3,2
   24fa8:	2000261e 	bne	r4,zero,25044 <__swsetup_r+0xe8>
   24fac:	81000517 	ldw	r4,20(r16)
   24fb0:	81000215 	stw	r4,8(r16)
   24fb4:	10000b26 	beq	r2,zero,24fe4 <__swsetup_r+0x88>
   24fb8:	0005883a 	mov	r2,zero
   24fbc:	dfc00217 	ldw	ra,8(sp)
   24fc0:	dc400117 	ldw	r17,4(sp)
   24fc4:	dc000017 	ldw	r16,0(sp)
   24fc8:	dec00304 	addi	sp,sp,12
   24fcc:	f800283a 	ret
   24fd0:	81000517 	ldw	r4,20(r16)
   24fd4:	80000215 	stw	zero,8(r16)
   24fd8:	0109c83a 	sub	r4,zero,r4
   24fdc:	81000615 	stw	r4,24(r16)
   24fe0:	103ff51e 	bne	r2,zero,24fb8 <__swsetup_r+0x5c>
   24fe4:	1900200c 	andi	r4,r3,128
   24fe8:	203ff426 	beq	r4,zero,24fbc <__swsetup_r+0x60>
   24fec:	18c01014 	ori	r3,r3,64
   24ff0:	80c0030d 	sth	r3,12(r16)
   24ff4:	00bfffc4 	movi	r2,-1
   24ff8:	003ff006 	br	24fbc <__swsetup_r+0x60>
   24ffc:	1880040c 	andi	r2,r3,16
   25000:	10002326 	beq	r2,zero,25090 <__swsetup_r+0x134>
   25004:	1880010c 	andi	r2,r3,4
   25008:	1000101e 	bne	r2,zero,2504c <__swsetup_r+0xf0>
   2500c:	80800417 	ldw	r2,16(r16)
   25010:	19000214 	ori	r4,r3,8
   25014:	8100030d 	sth	r4,12(r16)
   25018:	2007883a 	mov	r3,r4
   2501c:	103fdf1e 	bne	r2,zero,24f9c <__swsetup_r+0x40>
   25020:	1900a00c 	andi	r4,r3,640
   25024:	21008020 	cmpeqi	r4,r4,512
   25028:	203fdc1e 	bne	r4,zero,24f9c <__swsetup_r+0x40>
   2502c:	800b883a 	mov	r5,r16
   25030:	8809883a 	mov	r4,r17
   25034:	0029b540 	call	29b54 <__smakebuf_r>
   25038:	80c0030b 	ldhu	r3,12(r16)
   2503c:	80800417 	ldw	r2,16(r16)
   25040:	003fd606 	br	24f9c <__swsetup_r+0x40>
   25044:	0009883a 	mov	r4,zero
   25048:	003fd906 	br	24fb0 <__swsetup_r+0x54>
   2504c:	81400c17 	ldw	r5,48(r16)
   25050:	28000626 	beq	r5,zero,2506c <__swsetup_r+0x110>
   25054:	80801004 	addi	r2,r16,64
   25058:	28800326 	beq	r5,r2,25068 <__swsetup_r+0x10c>
   2505c:	8809883a 	mov	r4,r17
   25060:	00276600 	call	27660 <_free_r>
   25064:	80c0030b 	ldhu	r3,12(r16)
   25068:	80000c15 	stw	zero,48(r16)
   2506c:	80800417 	ldw	r2,16(r16)
   25070:	013ff6c4 	movi	r4,-37
   25074:	20c6703a 	and	r3,r4,r3
   25078:	80000115 	stw	zero,4(r16)
   2507c:	80800015 	stw	r2,0(r16)
   25080:	003fe306 	br	25010 <__swsetup_r+0xb4>
   25084:	1009883a 	mov	r4,r2
   25088:	00248740 	call	24874 <__sinit>
   2508c:	003fbe06 	br	24f88 <__swsetup_r+0x2c>
   25090:	00800244 	movi	r2,9
   25094:	88800015 	stw	r2,0(r17)
   25098:	18c01014 	ori	r3,r3,64
   2509c:	003fd406 	br	24ff0 <__swsetup_r+0x94>

000250a0 <__fputwc>:
   250a0:	defff904 	addi	sp,sp,-28
   250a4:	dcc00415 	stw	r19,16(sp)
   250a8:	dc800315 	stw	r18,12(sp)
   250ac:	dc000115 	stw	r16,4(sp)
   250b0:	dfc00615 	stw	ra,24(sp)
   250b4:	dd000515 	stw	r20,20(sp)
   250b8:	dc400215 	stw	r17,8(sp)
   250bc:	2027883a 	mov	r19,r4
   250c0:	2825883a 	mov	r18,r5
   250c4:	3021883a 	mov	r16,r6
   250c8:	00258180 	call	25818 <__locale_mb_cur_max>
   250cc:	10800058 	cmpnei	r2,r2,1
   250d0:	1000071e 	bne	r2,zero,250f0 <__fputwc+0x50>
   250d4:	90bfffc4 	addi	r2,r18,-1
   250d8:	10803fe8 	cmpgeui	r2,r2,255
   250dc:	1000041e 	bne	r2,zero,250f0 <__fputwc+0x50>
   250e0:	900b883a 	mov	r5,r18
   250e4:	dc8000c5 	stb	r18,3(sp)
   250e8:	05000044 	movi	r20,1
   250ec:	00000a06 	br	25118 <__fputwc+0x78>
   250f0:	81c01704 	addi	r7,r16,92
   250f4:	900d883a 	mov	r6,r18
   250f8:	d94000c4 	addi	r5,sp,3
   250fc:	9809883a 	mov	r4,r19
   25100:	00299600 	call	29960 <_wcrtomb_r>
   25104:	1029883a 	mov	r20,r2
   25108:	10bfffd8 	cmpnei	r2,r2,-1
   2510c:	10003826 	beq	r2,zero,251f0 <__fputwc+0x150>
   25110:	a0001f26 	beq	r20,zero,25190 <__fputwc+0xf0>
   25114:	d94000c3 	ldbu	r5,3(sp)
   25118:	0023883a 	mov	r17,zero
   2511c:	00000a06 	br	25148 <__fputwc+0xa8>
   25120:	80800017 	ldw	r2,0(r16)
   25124:	11400005 	stb	r5,0(r2)
   25128:	80c00017 	ldw	r3,0(r16)
   2512c:	18c00044 	addi	r3,r3,1
   25130:	80c00015 	stw	r3,0(r16)
   25134:	8c400044 	addi	r17,r17,1
   25138:	d88000c4 	addi	r2,sp,3
   2513c:	1447883a 	add	r3,r2,r17
   25140:	8d00132e 	bgeu	r17,r20,25190 <__fputwc+0xf0>
   25144:	19400003 	ldbu	r5,0(r3)
   25148:	80c00217 	ldw	r3,8(r16)
   2514c:	18ffffc4 	addi	r3,r3,-1
   25150:	80c00215 	stw	r3,8(r16)
   25154:	183ff20e 	bge	r3,zero,25120 <__fputwc+0x80>
   25158:	80800617 	ldw	r2,24(r16)
   2515c:	18801516 	blt	r3,r2,251b4 <__fputwc+0x114>
   25160:	80800017 	ldw	r2,0(r16)
   25164:	11400005 	stb	r5,0(r2)
   25168:	80800017 	ldw	r2,0(r16)
   2516c:	10c00003 	ldbu	r3,0(r2)
   25170:	10800044 	addi	r2,r2,1
   25174:	18c002a0 	cmpeqi	r3,r3,10
   25178:	1800161e 	bne	r3,zero,251d4 <__fputwc+0x134>
   2517c:	80800015 	stw	r2,0(r16)
   25180:	8c400044 	addi	r17,r17,1
   25184:	d88000c4 	addi	r2,sp,3
   25188:	1447883a 	add	r3,r2,r17
   2518c:	8d3fed36 	bltu	r17,r20,25144 <__fputwc+0xa4>
   25190:	9005883a 	mov	r2,r18
   25194:	dfc00617 	ldw	ra,24(sp)
   25198:	dd000517 	ldw	r20,20(sp)
   2519c:	dcc00417 	ldw	r19,16(sp)
   251a0:	dc800317 	ldw	r18,12(sp)
   251a4:	dc400217 	ldw	r17,8(sp)
   251a8:	dc000117 	ldw	r16,4(sp)
   251ac:	dec00704 	addi	sp,sp,28
   251b0:	f800283a 	ret
   251b4:	29403fcc 	andi	r5,r5,255
   251b8:	800d883a 	mov	r6,r16
   251bc:	9809883a 	mov	r4,r19
   251c0:	0029d880 	call	29d88 <__swbuf_r>
   251c4:	10bfffe0 	cmpeqi	r2,r2,-1
   251c8:	103fda26 	beq	r2,zero,25134 <__fputwc+0x94>
   251cc:	00bfffc4 	movi	r2,-1
   251d0:	003ff006 	br	25194 <__fputwc+0xf4>
   251d4:	800d883a 	mov	r6,r16
   251d8:	01400284 	movi	r5,10
   251dc:	9809883a 	mov	r4,r19
   251e0:	0029d880 	call	29d88 <__swbuf_r>
   251e4:	10bfffe0 	cmpeqi	r2,r2,-1
   251e8:	103fd226 	beq	r2,zero,25134 <__fputwc+0x94>
   251ec:	003ff706 	br	251cc <__fputwc+0x12c>
   251f0:	8080030b 	ldhu	r2,12(r16)
   251f4:	10801014 	ori	r2,r2,64
   251f8:	8080030d 	sth	r2,12(r16)
   251fc:	00bfffc4 	movi	r2,-1
   25200:	003fe406 	br	25194 <__fputwc+0xf4>

00025204 <_fputwc_r>:
   25204:	3080030b 	ldhu	r2,12(r6)
   25208:	10c8000c 	andi	r3,r2,8192
   2520c:	1800051e 	bne	r3,zero,25224 <_fputwc_r+0x20>
   25210:	30c01917 	ldw	r3,100(r6)
   25214:	10880014 	ori	r2,r2,8192
   25218:	3080030d 	sth	r2,12(r6)
   2521c:	18880014 	ori	r2,r3,8192
   25220:	30801915 	stw	r2,100(r6)
   25224:	00250a01 	jmpi	250a0 <__fputwc>

00025228 <fputwc>:
   25228:	defffc04 	addi	sp,sp,-16
   2522c:	008000f4 	movhi	r2,3
   25230:	dc000215 	stw	r16,8(sp)
   25234:	1408cd17 	ldw	r16,9012(r2)
   25238:	dfc00315 	stw	ra,12(sp)
   2523c:	280d883a 	mov	r6,r5
   25240:	200b883a 	mov	r5,r4
   25244:	80000226 	beq	r16,zero,25250 <fputwc+0x28>
   25248:	80800d17 	ldw	r2,52(r16)
   2524c:	10000d26 	beq	r2,zero,25284 <fputwc+0x5c>
   25250:	3080030b 	ldhu	r2,12(r6)
   25254:	10c8000c 	andi	r3,r2,8192
   25258:	1800051e 	bne	r3,zero,25270 <fputwc+0x48>
   2525c:	30c01917 	ldw	r3,100(r6)
   25260:	10880014 	ori	r2,r2,8192
   25264:	3080030d 	sth	r2,12(r6)
   25268:	18880014 	ori	r2,r3,8192
   2526c:	30801915 	stw	r2,100(r6)
   25270:	8009883a 	mov	r4,r16
   25274:	dfc00317 	ldw	ra,12(sp)
   25278:	dc000217 	ldw	r16,8(sp)
   2527c:	dec00404 	addi	sp,sp,16
   25280:	00250a01 	jmpi	250a0 <__fputwc>
   25284:	d9000015 	stw	r4,0(sp)
   25288:	8009883a 	mov	r4,r16
   2528c:	d9800115 	stw	r6,4(sp)
   25290:	00248740 	call	24874 <__sinit>
   25294:	d9800117 	ldw	r6,4(sp)
   25298:	d9400017 	ldw	r5,0(sp)
   2529c:	003fec06 	br	25250 <fputwc+0x28>

000252a0 <memchr>:
   252a0:	defffc04 	addi	sp,sp,-16
   252a4:	dc000015 	stw	r16,0(sp)
   252a8:	2021883a 	mov	r16,r4
   252ac:	dc800215 	stw	r18,8(sp)
   252b0:	dfc00315 	stw	ra,12(sp)
   252b4:	dc400115 	stw	r17,4(sp)
   252b8:	808000cc 	andi	r2,r16,3
   252bc:	2809883a 	mov	r4,r5
   252c0:	2825883a 	mov	r18,r5
   252c4:	10000e26 	beq	r2,zero,25300 <memchr+0x60>
   252c8:	347fffc4 	addi	r17,r6,-1
   252cc:	30001726 	beq	r6,zero,2532c <memchr+0x8c>
   252d0:	28c03fcc 	andi	r3,r5,255
   252d4:	00000606 	br	252f0 <memchr+0x50>
   252d8:	84000044 	addi	r16,r16,1
   252dc:	808000cc 	andi	r2,r16,3
   252e0:	10000826 	beq	r2,zero,25304 <memchr+0x64>
   252e4:	8c7fffc4 	addi	r17,r17,-1
   252e8:	88bfffe0 	cmpeqi	r2,r17,-1
   252ec:	10000f1e 	bne	r2,zero,2532c <memchr+0x8c>
   252f0:	80800003 	ldbu	r2,0(r16)
   252f4:	10fff81e 	bne	r2,r3,252d8 <memchr+0x38>
   252f8:	8005883a 	mov	r2,r16
   252fc:	00000c06 	br	25330 <memchr+0x90>
   25300:	3023883a 	mov	r17,r6
   25304:	88800130 	cmpltui	r2,r17,4
   25308:	10000f26 	beq	r2,zero,25348 <memchr+0xa8>
   2530c:	88000726 	beq	r17,zero,2532c <memchr+0x8c>
   25310:	8463883a 	add	r17,r16,r17
   25314:	8005883a 	mov	r2,r16
   25318:	90c03fcc 	andi	r3,r18,255
   2531c:	11000003 	ldbu	r4,0(r2)
   25320:	20c00326 	beq	r4,r3,25330 <memchr+0x90>
   25324:	10800044 	addi	r2,r2,1
   25328:	88bffc1e 	bne	r17,r2,2531c <memchr+0x7c>
   2532c:	0005883a 	mov	r2,zero
   25330:	dfc00317 	ldw	ra,12(sp)
   25334:	dc800217 	ldw	r18,8(sp)
   25338:	dc400117 	ldw	r17,4(sp)
   2533c:	dc000017 	ldw	r16,0(sp)
   25340:	dec00404 	addi	sp,sp,16
   25344:	f800283a 	ret
   25348:	01404074 	movhi	r5,257
   2534c:	29404044 	addi	r5,r5,257
   25350:	21003fcc 	andi	r4,r4,255
   25354:	002b47c0 	call	2b47c <__mulsi3>
   25358:	01bfbff4 	movhi	r6,65279
   2535c:	01602074 	movhi	r5,32897
   25360:	31bfbfc4 	addi	r6,r6,-257
   25364:	29602004 	addi	r5,r5,-32640
   25368:	00000406 	br	2537c <memchr+0xdc>
   2536c:	8c7fff04 	addi	r17,r17,-4
   25370:	88c00128 	cmpgeui	r3,r17,4
   25374:	84000104 	addi	r16,r16,4
   25378:	183fe426 	beq	r3,zero,2530c <memchr+0x6c>
   2537c:	80c00017 	ldw	r3,0(r16)
   25380:	10c6f03a 	xor	r3,r2,r3
   25384:	1989883a 	add	r4,r3,r6
   25388:	00c6303a 	nor	r3,zero,r3
   2538c:	20c6703a 	and	r3,r4,r3
   25390:	1946703a 	and	r3,r3,r5
   25394:	183ff526 	beq	r3,zero,2536c <memchr+0xcc>
   25398:	003fdc06 	br	2530c <memchr+0x6c>

0002539c <memcpy>:
   2539c:	30c00428 	cmpgeui	r3,r6,16
   253a0:	2005883a 	mov	r2,r4
   253a4:	18000b1e 	bne	r3,zero,253d4 <memcpy+0x38>
   253a8:	2007883a 	mov	r3,r4
   253ac:	31ffffc4 	addi	r7,r6,-1
   253b0:	30003426 	beq	r6,zero,25484 <memcpy+0xe8>
   253b4:	39c00044 	addi	r7,r7,1
   253b8:	19cf883a 	add	r7,r3,r7
   253bc:	29800003 	ldbu	r6,0(r5)
   253c0:	18c00044 	addi	r3,r3,1
   253c4:	29400044 	addi	r5,r5,1
   253c8:	19bfffc5 	stb	r6,-1(r3)
   253cc:	19fffb1e 	bne	r3,r7,253bc <memcpy+0x20>
   253d0:	f800283a 	ret
   253d4:	2146b03a 	or	r3,r4,r5
   253d8:	18c000cc 	andi	r3,r3,3
   253dc:	18002a1e 	bne	r3,zero,25488 <memcpy+0xec>
   253e0:	333ffc04 	addi	r12,r6,-16
   253e4:	6018d13a 	srli	r12,r12,4
   253e8:	2811883a 	mov	r8,r5
   253ec:	200f883a 	mov	r7,r4
   253f0:	63000044 	addi	r12,r12,1
   253f4:	6018913a 	slli	r12,r12,4
   253f8:	2307883a 	add	r3,r4,r12
   253fc:	42c00017 	ldw	r11,0(r8)
   25400:	42800117 	ldw	r10,4(r8)
   25404:	42400217 	ldw	r9,8(r8)
   25408:	41000317 	ldw	r4,12(r8)
   2540c:	39c00404 	addi	r7,r7,16
   25410:	3afffc15 	stw	r11,-16(r7)
   25414:	3abffd15 	stw	r10,-12(r7)
   25418:	3a7ffe15 	stw	r9,-8(r7)
   2541c:	393fff15 	stw	r4,-4(r7)
   25420:	42000404 	addi	r8,r8,16
   25424:	38fff51e 	bne	r7,r3,253fc <memcpy+0x60>
   25428:	3100030c 	andi	r4,r6,12
   2542c:	2b0b883a 	add	r5,r5,r12
   25430:	324003cc 	andi	r9,r6,15
   25434:	20001726 	beq	r4,zero,25494 <memcpy+0xf8>
   25438:	2811883a 	mov	r8,r5
   2543c:	1809883a 	mov	r4,r3
   25440:	1a57883a 	add	r11,r3,r9
   25444:	42800017 	ldw	r10,0(r8)
   25448:	21000104 	addi	r4,r4,4
   2544c:	590fc83a 	sub	r7,r11,r4
   25450:	39c00128 	cmpgeui	r7,r7,4
   25454:	22bfff15 	stw	r10,-4(r4)
   25458:	42000104 	addi	r8,r8,4
   2545c:	383ff91e 	bne	r7,zero,25444 <memcpy+0xa8>
   25460:	493fff04 	addi	r4,r9,-4
   25464:	2008d0ba 	srli	r4,r4,2
   25468:	318000cc 	andi	r6,r6,3
   2546c:	31ffffc4 	addi	r7,r6,-1
   25470:	21000044 	addi	r4,r4,1
   25474:	200890ba 	slli	r4,r4,2
   25478:	1907883a 	add	r3,r3,r4
   2547c:	290b883a 	add	r5,r5,r4
   25480:	303fcc1e 	bne	r6,zero,253b4 <memcpy+0x18>
   25484:	f800283a 	ret
   25488:	31ffffc4 	addi	r7,r6,-1
   2548c:	2007883a 	mov	r3,r4
   25490:	003fc806 	br	253b4 <memcpy+0x18>
   25494:	480d883a 	mov	r6,r9
   25498:	003fc406 	br	253ac <memcpy+0x10>

0002549c <memmove>:
   2549c:	2005883a 	mov	r2,r4
   254a0:	29000a2e 	bgeu	r5,r4,254cc <memmove+0x30>
   254a4:	298f883a 	add	r7,r5,r6
   254a8:	21c0082e 	bgeu	r4,r7,254cc <memmove+0x30>
   254ac:	2187883a 	add	r3,r4,r6
   254b0:	30001226 	beq	r6,zero,254fc <memmove+0x60>
   254b4:	397fffc3 	ldbu	r5,-1(r7)
   254b8:	18ffffc4 	addi	r3,r3,-1
   254bc:	39ffffc4 	addi	r7,r7,-1
   254c0:	19400005 	stb	r5,0(r3)
   254c4:	10fffb1e 	bne	r2,r3,254b4 <memmove+0x18>
   254c8:	f800283a 	ret
   254cc:	30c00428 	cmpgeui	r3,r6,16
   254d0:	18000b1e 	bne	r3,zero,25500 <memmove+0x64>
   254d4:	1007883a 	mov	r3,r2
   254d8:	31ffffc4 	addi	r7,r6,-1
   254dc:	30003626 	beq	r6,zero,255b8 <memmove+0x11c>
   254e0:	39c00044 	addi	r7,r7,1
   254e4:	19cf883a 	add	r7,r3,r7
   254e8:	29800003 	ldbu	r6,0(r5)
   254ec:	18c00044 	addi	r3,r3,1
   254f0:	29400044 	addi	r5,r5,1
   254f4:	19bfffc5 	stb	r6,-1(r3)
   254f8:	19fffb1e 	bne	r3,r7,254e8 <memmove+0x4c>
   254fc:	f800283a 	ret
   25500:	1146b03a 	or	r3,r2,r5
   25504:	18c000cc 	andi	r3,r3,3
   25508:	1800281e 	bne	r3,zero,255ac <memmove+0x110>
   2550c:	313ffc04 	addi	r4,r6,-16
   25510:	2008d13a 	srli	r4,r4,4
   25514:	2811883a 	mov	r8,r5
   25518:	100f883a 	mov	r7,r2
   2551c:	21000044 	addi	r4,r4,1
   25520:	2008913a 	slli	r4,r4,4
   25524:	1107883a 	add	r3,r2,r4
   25528:	42400017 	ldw	r9,0(r8)
   2552c:	42000404 	addi	r8,r8,16
   25530:	39c00404 	addi	r7,r7,16
   25534:	3a7ffc15 	stw	r9,-16(r7)
   25538:	427ffd17 	ldw	r9,-12(r8)
   2553c:	3a7ffd15 	stw	r9,-12(r7)
   25540:	427ffe17 	ldw	r9,-8(r8)
   25544:	3a7ffe15 	stw	r9,-8(r7)
   25548:	427fff17 	ldw	r9,-4(r8)
   2554c:	3a7fff15 	stw	r9,-4(r7)
   25550:	38fff51e 	bne	r7,r3,25528 <memmove+0x8c>
   25554:	31c0030c 	andi	r7,r6,12
   25558:	290b883a 	add	r5,r5,r4
   2555c:	324003cc 	andi	r9,r6,15
   25560:	38001626 	beq	r7,zero,255bc <memmove+0x120>
   25564:	2809883a 	mov	r4,r5
   25568:	180f883a 	mov	r7,r3
   2556c:	1a57883a 	add	r11,r3,r9
   25570:	22800017 	ldw	r10,0(r4)
   25574:	39c00104 	addi	r7,r7,4
   25578:	59d1c83a 	sub	r8,r11,r7
   2557c:	42000128 	cmpgeui	r8,r8,4
   25580:	3abfff15 	stw	r10,-4(r7)
   25584:	21000104 	addi	r4,r4,4
   25588:	403ff91e 	bne	r8,zero,25570 <memmove+0xd4>
   2558c:	493fff04 	addi	r4,r9,-4
   25590:	2008d0ba 	srli	r4,r4,2
   25594:	318000cc 	andi	r6,r6,3
   25598:	21000044 	addi	r4,r4,1
   2559c:	200890ba 	slli	r4,r4,2
   255a0:	1907883a 	add	r3,r3,r4
   255a4:	290b883a 	add	r5,r5,r4
   255a8:	003fcb06 	br	254d8 <memmove+0x3c>
   255ac:	31ffffc4 	addi	r7,r6,-1
   255b0:	1007883a 	mov	r3,r2
   255b4:	003fca06 	br	254e0 <memmove+0x44>
   255b8:	f800283a 	ret
   255bc:	480d883a 	mov	r6,r9
   255c0:	003fc506 	br	254d8 <memmove+0x3c>

000255c4 <memset>:
   255c4:	defffb04 	addi	sp,sp,-20
   255c8:	dc800215 	stw	r18,8(sp)
   255cc:	dc400115 	stw	r17,4(sp)
   255d0:	dfc00415 	stw	ra,16(sp)
   255d4:	dcc00315 	stw	r19,12(sp)
   255d8:	dc000015 	stw	r16,0(sp)
   255dc:	208000cc 	andi	r2,r4,3
   255e0:	2023883a 	mov	r17,r4
   255e4:	2825883a 	mov	r18,r5
   255e8:	10004026 	beq	r2,zero,256ec <memset+0x128>
   255ec:	34ffffc4 	addi	r19,r6,-1
   255f0:	30003326 	beq	r6,zero,256c0 <memset+0xfc>
   255f4:	280f883a 	mov	r7,r5
   255f8:	2021883a 	mov	r16,r4
   255fc:	00000306 	br	2560c <memset+0x48>
   25600:	9cffffc4 	addi	r19,r19,-1
   25604:	99bfffe0 	cmpeqi	r6,r19,-1
   25608:	30002d1e 	bne	r6,zero,256c0 <memset+0xfc>
   2560c:	84000044 	addi	r16,r16,1
   25610:	818000cc 	andi	r6,r16,3
   25614:	81ffffc5 	stb	r7,-1(r16)
   25618:	303ff91e 	bne	r6,zero,25600 <memset+0x3c>
   2561c:	98800128 	cmpgeui	r2,r19,4
   25620:	10002126 	beq	r2,zero,256a8 <memset+0xe4>
   25624:	01404074 	movhi	r5,257
   25628:	29404044 	addi	r5,r5,257
   2562c:	91003fcc 	andi	r4,r18,255
   25630:	002b47c0 	call	2b47c <__mulsi3>
   25634:	98c00430 	cmpltui	r3,r19,16
   25638:	18002f1e 	bne	r3,zero,256f8 <memset+0x134>
   2563c:	99bffc04 	addi	r6,r19,-16
   25640:	300cd13a 	srli	r6,r6,4
   25644:	31800044 	addi	r6,r6,1
   25648:	300c913a 	slli	r6,r6,4
   2564c:	818d883a 	add	r6,r16,r6
   25650:	80800015 	stw	r2,0(r16)
   25654:	80800115 	stw	r2,4(r16)
   25658:	80800215 	stw	r2,8(r16)
   2565c:	80800315 	stw	r2,12(r16)
   25660:	84000404 	addi	r16,r16,16
   25664:	81bffa1e 	bne	r16,r6,25650 <memset+0x8c>
   25668:	9900030c 	andi	r4,r19,12
   2566c:	98c003cc 	andi	r3,r19,15
   25670:	20001b26 	beq	r4,zero,256e0 <memset+0x11c>
   25674:	3009883a 	mov	r4,r6
   25678:	30cb883a 	add	r5,r6,r3
   2567c:	21000104 	addi	r4,r4,4
   25680:	290fc83a 	sub	r7,r5,r4
   25684:	39c00128 	cmpgeui	r7,r7,4
   25688:	20bfff15 	stw	r2,-4(r4)
   2568c:	383ffb1e 	bne	r7,zero,2567c <memset+0xb8>
   25690:	1c3fff04 	addi	r16,r3,-4
   25694:	8020d0ba 	srli	r16,r16,2
   25698:	1cc000cc 	andi	r19,r3,3
   2569c:	84000044 	addi	r16,r16,1
   256a0:	802090ba 	slli	r16,r16,2
   256a4:	3421883a 	add	r16,r6,r16
   256a8:	98000526 	beq	r19,zero,256c0 <memset+0xfc>
   256ac:	900b883a 	mov	r5,r18
   256b0:	84c7883a 	add	r3,r16,r19
   256b4:	84000044 	addi	r16,r16,1
   256b8:	817fffc5 	stb	r5,-1(r16)
   256bc:	1c3ffd1e 	bne	r3,r16,256b4 <memset+0xf0>
   256c0:	8805883a 	mov	r2,r17
   256c4:	dfc00417 	ldw	ra,16(sp)
   256c8:	dcc00317 	ldw	r19,12(sp)
   256cc:	dc800217 	ldw	r18,8(sp)
   256d0:	dc400117 	ldw	r17,4(sp)
   256d4:	dc000017 	ldw	r16,0(sp)
   256d8:	dec00504 	addi	sp,sp,20
   256dc:	f800283a 	ret
   256e0:	1827883a 	mov	r19,r3
   256e4:	983ff11e 	bne	r19,zero,256ac <memset+0xe8>
   256e8:	003ff506 	br	256c0 <memset+0xfc>
   256ec:	2021883a 	mov	r16,r4
   256f0:	3027883a 	mov	r19,r6
   256f4:	003fc906 	br	2561c <memset+0x58>
   256f8:	800d883a 	mov	r6,r16
   256fc:	9807883a 	mov	r3,r19
   25700:	003fdc06 	br	25674 <memset+0xb0>

00025704 <strlen>:
   25704:	208000cc 	andi	r2,r4,3
   25708:	10000926 	beq	r2,zero,25730 <strlen+0x2c>
   2570c:	2005883a 	mov	r2,r4
   25710:	00000306 	br	25720 <strlen+0x1c>
   25714:	10800044 	addi	r2,r2,1
   25718:	10c000cc 	andi	r3,r2,3
   2571c:	18000526 	beq	r3,zero,25734 <strlen+0x30>
   25720:	10c00007 	ldb	r3,0(r2)
   25724:	183ffb1e 	bne	r3,zero,25714 <strlen+0x10>
   25728:	1105c83a 	sub	r2,r2,r4
   2572c:	f800283a 	ret
   25730:	2005883a 	mov	r2,r4
   25734:	11400017 	ldw	r5,0(r2)
   25738:	01ffbff4 	movhi	r7,65279
   2573c:	39ffbfc4 	addi	r7,r7,-257
   25740:	29c7883a 	add	r3,r5,r7
   25744:	01a02074 	movhi	r6,32897
   25748:	014a303a 	nor	r5,zero,r5
   2574c:	1946703a 	and	r3,r3,r5
   25750:	31a02004 	addi	r6,r6,-32640
   25754:	1986703a 	and	r3,r3,r6
   25758:	1800071e 	bne	r3,zero,25778 <strlen+0x74>
   2575c:	11400117 	ldw	r5,4(r2)
   25760:	10800104 	addi	r2,r2,4
   25764:	29c7883a 	add	r3,r5,r7
   25768:	014a303a 	nor	r5,zero,r5
   2576c:	1946703a 	and	r3,r3,r5
   25770:	1986703a 	and	r3,r3,r6
   25774:	183ff926 	beq	r3,zero,2575c <strlen+0x58>
   25778:	10c00007 	ldb	r3,0(r2)
   2577c:	183fea26 	beq	r3,zero,25728 <strlen+0x24>
   25780:	10c00047 	ldb	r3,1(r2)
   25784:	10800044 	addi	r2,r2,1
   25788:	183fe726 	beq	r3,zero,25728 <strlen+0x24>
   2578c:	10c00047 	ldb	r3,1(r2)
   25790:	10800044 	addi	r2,r2,1
   25794:	183ffa1e 	bne	r3,zero,25780 <strlen+0x7c>
   25798:	003fe306 	br	25728 <strlen+0x24>

0002579c <_setlocale_r>:
   2579c:	30000f26 	beq	r6,zero,257dc <_setlocale_r+0x40>
   257a0:	014000f4 	movhi	r5,3
   257a4:	defffe04 	addi	sp,sp,-8
   257a8:	29413604 	addi	r5,r5,1240
   257ac:	3009883a 	mov	r4,r6
   257b0:	dc000015 	stw	r16,0(sp)
   257b4:	dfc00115 	stw	ra,4(sp)
   257b8:	3021883a 	mov	r16,r6
   257bc:	0029ee80 	call	29ee8 <strcmp>
   257c0:	1000091e 	bne	r2,zero,257e8 <_setlocale_r+0x4c>
   257c4:	008000f4 	movhi	r2,3
   257c8:	10813504 	addi	r2,r2,1236
   257cc:	dfc00117 	ldw	ra,4(sp)
   257d0:	dc000017 	ldw	r16,0(sp)
   257d4:	dec00204 	addi	sp,sp,8
   257d8:	f800283a 	ret
   257dc:	008000f4 	movhi	r2,3
   257e0:	10813504 	addi	r2,r2,1236
   257e4:	f800283a 	ret
   257e8:	014000f4 	movhi	r5,3
   257ec:	29413504 	addi	r5,r5,1236
   257f0:	8009883a 	mov	r4,r16
   257f4:	0029ee80 	call	29ee8 <strcmp>
   257f8:	103ff226 	beq	r2,zero,257c4 <_setlocale_r+0x28>
   257fc:	014000f4 	movhi	r5,3
   25800:	29424b04 	addi	r5,r5,2348
   25804:	8009883a 	mov	r4,r16
   25808:	0029ee80 	call	29ee8 <strcmp>
   2580c:	103fed26 	beq	r2,zero,257c4 <_setlocale_r+0x28>
   25810:	0005883a 	mov	r2,zero
   25814:	003fed06 	br	257cc <_setlocale_r+0x30>

00025818 <__locale_mb_cur_max>:
   25818:	008000f4 	movhi	r2,3
   2581c:	10833707 	ldb	r2,3292(r2)
   25820:	f800283a 	ret

00025824 <setlocale>:
   25824:	28000f26 	beq	r5,zero,25864 <setlocale+0x40>
   25828:	defffe04 	addi	sp,sp,-8
   2582c:	dc000015 	stw	r16,0(sp)
   25830:	2821883a 	mov	r16,r5
   25834:	014000f4 	movhi	r5,3
   25838:	29413604 	addi	r5,r5,1240
   2583c:	8009883a 	mov	r4,r16
   25840:	dfc00115 	stw	ra,4(sp)
   25844:	0029ee80 	call	29ee8 <strcmp>
   25848:	1000091e 	bne	r2,zero,25870 <setlocale+0x4c>
   2584c:	008000f4 	movhi	r2,3
   25850:	10813504 	addi	r2,r2,1236
   25854:	dfc00117 	ldw	ra,4(sp)
   25858:	dc000017 	ldw	r16,0(sp)
   2585c:	dec00204 	addi	sp,sp,8
   25860:	f800283a 	ret
   25864:	008000f4 	movhi	r2,3
   25868:	10813504 	addi	r2,r2,1236
   2586c:	f800283a 	ret
   25870:	014000f4 	movhi	r5,3
   25874:	29413504 	addi	r5,r5,1236
   25878:	8009883a 	mov	r4,r16
   2587c:	0029ee80 	call	29ee8 <strcmp>
   25880:	103ff226 	beq	r2,zero,2584c <setlocale+0x28>
   25884:	014000f4 	movhi	r5,3
   25888:	29424b04 	addi	r5,r5,2348
   2588c:	8009883a 	mov	r4,r16
   25890:	0029ee80 	call	29ee8 <strcmp>
   25894:	103fed26 	beq	r2,zero,2584c <setlocale+0x28>
   25898:	0005883a 	mov	r2,zero
   2589c:	003fed06 	br	25854 <setlocale+0x30>

000258a0 <__localeconv_l>:
   258a0:	20803c04 	addi	r2,r4,240
   258a4:	f800283a 	ret

000258a8 <_localeconv_r>:
   258a8:	008000f4 	movhi	r2,3
   258ac:	10832904 	addi	r2,r2,3236
   258b0:	f800283a 	ret

000258b4 <localeconv>:
   258b4:	008000f4 	movhi	r2,3
   258b8:	10832904 	addi	r2,r2,3236
   258bc:	f800283a 	ret

000258c0 <_close_r>:
   258c0:	defffe04 	addi	sp,sp,-8
   258c4:	dc000015 	stw	r16,0(sp)
   258c8:	008000f4 	movhi	r2,3
   258cc:	2021883a 	mov	r16,r4
   258d0:	2809883a 	mov	r4,r5
   258d4:	dfc00115 	stw	ra,4(sp)
   258d8:	100f1415 	stw	zero,15440(r2)
   258dc:	002dd680 	call	2dd68 <close>
   258e0:	10ffffd8 	cmpnei	r3,r2,-1
   258e4:	18000426 	beq	r3,zero,258f8 <_close_r+0x38>
   258e8:	dfc00117 	ldw	ra,4(sp)
   258ec:	dc000017 	ldw	r16,0(sp)
   258f0:	dec00204 	addi	sp,sp,8
   258f4:	f800283a 	ret
   258f8:	00c000f4 	movhi	r3,3
   258fc:	18cf1417 	ldw	r3,15440(r3)
   25900:	183ff926 	beq	r3,zero,258e8 <_close_r+0x28>
   25904:	80c00015 	stw	r3,0(r16)
   25908:	dfc00117 	ldw	ra,4(sp)
   2590c:	dc000017 	ldw	r16,0(sp)
   25910:	dec00204 	addi	sp,sp,8
   25914:	f800283a 	ret

00025918 <_reclaim_reent>:
   25918:	008000f4 	movhi	r2,3
   2591c:	1088cd17 	ldw	r2,9012(r2)
   25920:	11002e26 	beq	r2,r4,259dc <_reclaim_reent+0xc4>
   25924:	21401117 	ldw	r5,68(r4)
   25928:	defffc04 	addi	sp,sp,-16
   2592c:	dc400115 	stw	r17,4(sp)
   25930:	dfc00315 	stw	ra,12(sp)
   25934:	dc800215 	stw	r18,8(sp)
   25938:	dc000015 	stw	r16,0(sp)
   2593c:	2023883a 	mov	r17,r4
   25940:	28000f26 	beq	r5,zero,25980 <_reclaim_reent+0x68>
   25944:	0025883a 	mov	r18,zero
   25948:	2c85883a 	add	r2,r5,r18
   2594c:	14000017 	ldw	r16,0(r2)
   25950:	80000626 	beq	r16,zero,2596c <_reclaim_reent+0x54>
   25954:	800b883a 	mov	r5,r16
   25958:	84000017 	ldw	r16,0(r16)
   2595c:	8809883a 	mov	r4,r17
   25960:	00276600 	call	27660 <_free_r>
   25964:	803ffb1e 	bne	r16,zero,25954 <_reclaim_reent+0x3c>
   25968:	89401117 	ldw	r5,68(r17)
   2596c:	94800104 	addi	r18,r18,4
   25970:	90802018 	cmpnei	r2,r18,128
   25974:	103ff41e 	bne	r2,zero,25948 <_reclaim_reent+0x30>
   25978:	8809883a 	mov	r4,r17
   2597c:	00276600 	call	27660 <_free_r>
   25980:	89400e17 	ldw	r5,56(r17)
   25984:	28000226 	beq	r5,zero,25990 <_reclaim_reent+0x78>
   25988:	8809883a 	mov	r4,r17
   2598c:	00276600 	call	27660 <_free_r>
   25990:	89401317 	ldw	r5,76(r17)
   25994:	28000226 	beq	r5,zero,259a0 <_reclaim_reent+0x88>
   25998:	8809883a 	mov	r4,r17
   2599c:	00276600 	call	27660 <_free_r>
   259a0:	88800d17 	ldw	r2,52(r17)
   259a4:	10000726 	beq	r2,zero,259c4 <_reclaim_reent+0xac>
   259a8:	8809883a 	mov	r4,r17
   259ac:	dfc00317 	ldw	ra,12(sp)
   259b0:	dc800217 	ldw	r18,8(sp)
   259b4:	dc400117 	ldw	r17,4(sp)
   259b8:	dc000017 	ldw	r16,0(sp)
   259bc:	dec00404 	addi	sp,sp,16
   259c0:	1000683a 	jmp	r2
   259c4:	dfc00317 	ldw	ra,12(sp)
   259c8:	dc800217 	ldw	r18,8(sp)
   259cc:	dc400117 	ldw	r17,4(sp)
   259d0:	dc000017 	ldw	r16,0(sp)
   259d4:	dec00404 	addi	sp,sp,16
   259d8:	f800283a 	ret
   259dc:	f800283a 	ret

000259e0 <_lseek_r>:
   259e0:	2807883a 	mov	r3,r5
   259e4:	defffe04 	addi	sp,sp,-8
   259e8:	dc000015 	stw	r16,0(sp)
   259ec:	300b883a 	mov	r5,r6
   259f0:	008000f4 	movhi	r2,3
   259f4:	380d883a 	mov	r6,r7
   259f8:	2021883a 	mov	r16,r4
   259fc:	1809883a 	mov	r4,r3
   25a00:	dfc00115 	stw	ra,4(sp)
   25a04:	100f1415 	stw	zero,15440(r2)
   25a08:	002e59c0 	call	2e59c <lseek>
   25a0c:	10ffffd8 	cmpnei	r3,r2,-1
   25a10:	18000426 	beq	r3,zero,25a24 <_lseek_r+0x44>
   25a14:	dfc00117 	ldw	ra,4(sp)
   25a18:	dc000017 	ldw	r16,0(sp)
   25a1c:	dec00204 	addi	sp,sp,8
   25a20:	f800283a 	ret
   25a24:	00c000f4 	movhi	r3,3
   25a28:	18cf1417 	ldw	r3,15440(r3)
   25a2c:	183ff926 	beq	r3,zero,25a14 <_lseek_r+0x34>
   25a30:	80c00015 	stw	r3,0(r16)
   25a34:	dfc00117 	ldw	ra,4(sp)
   25a38:	dc000017 	ldw	r16,0(sp)
   25a3c:	dec00204 	addi	sp,sp,8
   25a40:	f800283a 	ret

00025a44 <_read_r>:
   25a44:	2807883a 	mov	r3,r5
   25a48:	defffe04 	addi	sp,sp,-8
   25a4c:	dc000015 	stw	r16,0(sp)
   25a50:	300b883a 	mov	r5,r6
   25a54:	008000f4 	movhi	r2,3
   25a58:	380d883a 	mov	r6,r7
   25a5c:	2021883a 	mov	r16,r4
   25a60:	1809883a 	mov	r4,r3
   25a64:	dfc00115 	stw	ra,4(sp)
   25a68:	100f1415 	stw	zero,15440(r2)
