
led3_test_isr_v2.elf:     file format elf32-littlenios2
led3_test_isr_v2.elf
architecture: nios2:r1, flags 0x00000112:
EXEC_P, HAS_SYMS, D_PAGED
start address 0x00020224

Program Header:
    LOAD off    0x00001000 vaddr 0x00020000 paddr 0x00020000 align 2**12
         filesz 0x00000020 memsz 0x00000020 flags r-x
    LOAD off    0x00001020 vaddr 0x00020020 paddr 0x00020020 align 2**12
         filesz 0x00010a6c memsz 0x00010a6c flags r-x
    LOAD off    0x00011a8c vaddr 0x00030a8c paddr 0x00032368 align 2**12
         filesz 0x000018dc memsz 0x000018dc flags rw-
    LOAD off    0x00000c44 vaddr 0x00033c44 paddr 0x00033c44 align 2**12
         filesz 0x00000000 memsz 0x00000434 flags rw-

Sections:
Idx Name          Size      VMA       LMA       File off  Algn
  0 .entry        00000020  00020000  00020000  00001000  2**5
                  CONTENTS, ALLOC, LOAD, READONLY, CODE
  1 .exceptions   00000204  00020020  00020020  00001020  2**2
                  CONTENTS, ALLOC, LOAD, READONLY, CODE
  2 .text         00010208  00020224  00020224  00001224  2**2
                  CONTENTS, ALLOC, LOAD, READONLY, CODE
  3 .rodata       00000660  0003042c  0003042c  0001142c  2**2
                  CONTENTS, ALLOC, LOAD, READONLY, DATA
  4 .rwdata       000018dc  00030a8c  00032368  00011a8c  2**2
                  CONTENTS, ALLOC, LOAD, DATA, SMALL_DATA
  5 .bss          00000434  00033c44  00033c44  00013c44  2**2
                  ALLOC, SMALL_DATA
  6 .RAM          00000000  00034078  00034078  00013368  2**0
                  CONTENTS
  7 .comment      0000002d  00000000  00000000  00013368  2**0
                  CONTENTS, READONLY
  8 .debug_aranges 00001090  00000000  00000000  00013398  2**3
                  CONTENTS, READONLY, DEBUGGING, OCTETS
  9 .debug_info   0002819b  00000000  00000000  00014428  2**0
                  CONTENTS, READONLY, DEBUGGING, OCTETS
 10 .debug_abbrev 0000b3fc  00000000  00000000  0003c5c3  2**0
                  CONTENTS, READONLY, DEBUGGING, OCTETS
 11 .debug_line   00010ecf  00000000  00000000  000479bf  2**0
                  CONTENTS, READONLY, DEBUGGING, OCTETS
 12 .debug_frame  0000251c  00000000  00000000  00058890  2**2
                  CONTENTS, READONLY, DEBUGGING, OCTETS
 13 .debug_str    00002835  00000000  00000000  0005adac  2**0
                  CONTENTS, READONLY, DEBUGGING, OCTETS
 14 .debug_alt_sim_info 00000010  00000000  00000000  0005d5e4  2**2
                  CONTENTS, READONLY, DEBUGGING, OCTETS
 15 .debug_ranges 00000070  00000000  00000000  0005d5f8  2**3
                  CONTENTS, READONLY, DEBUGGING, OCTETS
 16 .debug_line_str 00001d96  00000000  00000000  0005d668  2**0
                  CONTENTS, READONLY, DEBUGGING, OCTETS
 17 .debug_loclists 00014bdb  00000000  00000000  0005f3fe  2**0
                  CONTENTS, READONLY, DEBUGGING, OCTETS
 18 .debug_rnglists 00001738  00000000  00000000  00073fd9  2**0
                  CONTENTS, READONLY, DEBUGGING, OCTETS
 19 .thread_model 00000003  00000000  00000000  00078b48  2**0
                  CONTENTS, READONLY
 20 .cpu          0000000d  00000000  00000000  00078b4b  2**0
                  CONTENTS, READONLY
 21 .qsys         00000001  00000000  00000000  00078b58  2**0
                  CONTENTS, READONLY
 22 .simulation_enabled 00000001  00000000  00000000  00078b59  2**0
                  CONTENTS, READONLY
 23 .stderr_dev   00000009  00000000  00000000  00078b5a  2**0
                  CONTENTS, READONLY
 24 .stdin_dev    00000009  00000000  00000000  00078b63  2**0
                  CONTENTS, READONLY
 25 .stdout_dev   00000009  00000000  00000000  00078b6c  2**0
                  CONTENTS, READONLY
 26 .sopc_system_name 00000009  00000000  00000000  00078b75  2**0
                  CONTENTS, READONLY
 27 .sopcinfo     00051551  00000000  00000000  00078b7e  2**0
                  CONTENTS, READONLY
SYMBOL TABLE:
00020000 l    d  .entry	00000000 .entry
00020020 l    d  .exceptions	00000000 .exceptions
00020224 l    d  .text	00000000 .text
0003042c l    d  .rodata	00000000 .rodata
00030a8c l    d  .rwdata	00000000 .rwdata
00033c44 l    d  .bss	00000000 .bss
00034078 l    d  .RAM	00000000 .RAM
00000000 l    d  .comment	00000000 .comment
00000000 l    d  .debug_aranges	00000000 .debug_aranges
00000000 l    d  .debug_info	00000000 .debug_info
00000000 l    d  .debug_abbrev	00000000 .debug_abbrev
00000000 l    d  .debug_line	00000000 .debug_line
00000000 l    d  .debug_frame	00000000 .debug_frame
00000000 l    d  .debug_str	00000000 .debug_str
00000000 l    d  .debug_alt_sim_info	00000000 .debug_alt_sim_info
00000000 l    d  .debug_ranges	00000000 .debug_ranges
00000000 l    d  .debug_line_str	00000000 .debug_line_str
00000000 l    d  .debug_loclists	00000000 .debug_loclists
00000000 l    d  .debug_rnglists	00000000 .debug_rnglists
00000000 l    df *ABS*	00000000 crt0.o
0002025c l       .text	00000000 alt_after_alt_main
00000000 l    df *ABS*	00000000 alt_irq_handler.c
00000000 l    df *ABS*	00000000 alt_instruction_exception_entry.c
00000000 l    df *ABS*	00000000 gpio_drv.c
0003042c l     O .rodata	00000010 SSEG_HEX_TABLE.0
00000000 l    df *ABS*	00000000 led3_test_isr_v2.c
00033c44 l     O .bss	00000004 old.2
0002057c l     F .text	000000a4 led_flash_isr
00033c48 l     O .bss	00000004 tick.1
00032330 l     O .rwdata	00000001 led_ptn.0
00000000 l    df *ABS*	00000000 timer_drv.c
00000000 l    df *ABS*	00000000 lib2-divmod.c
00000000 l    df *ABS*	00000000 printf.c
00000000 l    df *ABS*	00000000 impure.c
00000000 l    df *ABS*	00000000 vfprintf.c
00030494 l     O .rodata	00000010 zeroes.0
00022d08 l     F .text	000000c4 __sbprintf
000304a4 l     O .rodata	00000010 blanks.1
00000000 l    df *ABS*	00000000 vfiprintf.c
00022dcc l     F .text	000000f4 __sprint_r.part.0
000304b4 l     O .rodata	00000010 zeroes.0
00024190 l     F .text	000000c4 __sbprintf
000304c4 l     O .rodata	00000010 blanks.1
00000000 l    df *ABS*	00000000 fflush.c
00000000 l    df *ABS*	00000000 findfp.c
00024544 l     F .text	00000008 __fp_lock
0002454c l     F .text	0000001c stdio_exit_handler
00024568 l     F .text	00000070 cleanup_stdio
000245d8 l     F .text	00000008 __fp_unlock
000245e0 l     F .text	00000174 global_stdio_init.part.0
00000000 l    df *ABS*	00000000 fvwrite.c
00000000 l    df *ABS*	00000000 fwalk.c
00000000 l    df *ABS*	00000000 stdio.c
00000000 l    df *ABS*	00000000 wsetup.c
00000000 l    df *ABS*	00000000 fputwc.c
00000000 l    df *ABS*	00000000 memchr.c
00000000 l    df *ABS*	00000000 memcpy.c
00000000 l    df *ABS*	00000000 memmove.c
00000000 l    df *ABS*	00000000 memset.c
00000000 l    df *ABS*	00000000 strlen.c
00000000 l    df *ABS*	00000000 locale.c
00000000 l    df *ABS*	00000000 localeconv.c
00000000 l    df *ABS*	00000000 closer.c
00000000 l    df *ABS*	00000000 reent.c
00000000 l    df *ABS*	00000000 lseekr.c
00000000 l    df *ABS*	00000000 readr.c
00000000 l    df *ABS*	00000000 writer.c
00000000 l    df *ABS*	00000000 dtoa.c
00025b0c l     F .text	00000218 quorem
00000000 l    df *ABS*	00000000 exit.c
00000000 l    df *ABS*	00000000 freer.c
00000000 l    df *ABS*	00000000 mallocr.c
00000000 l    df *ABS*	00000000 mbtowc_r.c
00000000 l    df *ABS*	00000000 mprec.c
00030578 l     O .rodata	0000000c p05.0
00000000 l    df *ABS*	00000000 reallocr.c
00000000 l    df *ABS*	00000000 wctomb_r.c
00000000 l    df *ABS*	00000000 wcrtomb.c
00000000 l    df *ABS*	00000000 ctype_.c
00000000 l    df *ABS*	00000000 fclose.c
00000000 l    df *ABS*	00000000 makebuf.c
00000000 l    df *ABS*	00000000 wbuf.c
00000000 l    df *ABS*	00000000 strcmp.c
00000000 l    df *ABS*	00000000 fstatr.c
00000000 l    df *ABS*	00000000 isattyr.c
00000000 l    df *ABS*	00000000 sbrkr.c
00000000 l    df *ABS*	00000000 __call_atexit.c
00000000 l    df *ABS*	00000000 assert.c
00000000 l    df *ABS*	00000000 callocr.c
00000000 l    df *ABS*	00000000 fiprintf.c
00000000 l    df *ABS*	00000000 vfiprintfr_1.c
00000000 l    df *ABS*	00000000 errno.c
00000000 l    df *ABS*	00000000 abort.c
00000000 l    df *ABS*	00000000 signal.c
00000000 l    df *ABS*	00000000 signalr.c
00000000 l    df *ABS*	00000000 libgcc2.c
00000000 l    df *ABS*	00000000 libgcc2.c
00000000 l    df *ABS*	00000000 lib2-mul.c
00000000 l    df *ABS*	00000000 adddf3.c
00000000 l    df *ABS*	00000000 divdf3.c
00000000 l    df *ABS*	00000000 eqdf2.c
00000000 l    df *ABS*	00000000 gedf2.c
00000000 l    df *ABS*	00000000 ledf2.c
00000000 l    df *ABS*	00000000 muldf3.c
00000000 l    df *ABS*	00000000 subdf3.c
00000000 l    df *ABS*	00000000 unorddf2.c
00000000 l    df *ABS*	00000000 fixdfsi.c
00000000 l    df *ABS*	00000000 floatsidf.c
00000000 l    df *ABS*	00000000 floatunsidf.c
00000000 l    df *ABS*	00000000 libgcc2.c
00000000 l    df *ABS*	00000000 libgcc2.c
00000000 l    df *ABS*	00000000 alt_close.c
0002dd2c l     F .text	0000003c alt_get_errno
00000000 l    df *ABS*	00000000 alt_dev.c
0002de44 l     F .text	0000002c alt_dev_null_write
00000000 l    df *ABS*	00000000 alt_errno.c
00000000 l    df *ABS*	00000000 alt_exit.c
00000000 l    df *ABS*	00000000 alt_fstat.c
0002deac l     F .text	0000003c alt_get_errno
00000000 l    df *ABS*	00000000 alt_getpid.c
00000000 l    df *ABS*	00000000 alt_iic.c
00000000 l    df *ABS*	00000000 alt_iic_isr_register.c
00000000 l    df *ABS*	00000000 alt_irq_vars.c
00000000 l    df *ABS*	00000000 alt_isatty.c
0002e25c l     F .text	0000003c alt_get_errno
00000000 l    df *ABS*	00000000 alt_kill.c
0002e348 l     F .text	0000003c alt_get_errno
00000000 l    df *ABS*	00000000 alt_load.c
0002e474 l     F .text	00000068 alt_load_section
00000000 l    df *ABS*	00000000 alt_lseek.c
0002e560 l     F .text	0000003c alt_get_errno
00000000 l    df *ABS*	00000000 alt_main.c
00000000 l    df *ABS*	00000000 alt_malloc_lock.c
00000000 l    df *ABS*	00000000 alt_read.c
0002e740 l     F .text	0000003c alt_get_errno
00000000 l    df *ABS*	00000000 alt_release_fd.c
00000000 l    df *ABS*	00000000 alt_sbrk.c
0003235c l     O .rwdata	00000004 heap_end
00000000 l    df *ABS*	00000000 alt_write.c
0002e9ac l     F .text	0000003c alt_get_errno
00000000 l    df *ABS*	00000000 alt_sys_init.c
0002eaec l     F .text	00000034 alt_dev_reg
000312d0 l     O .rwdata	00001060 jtag_uart
00000000 l    df *ABS*	00000000 altera_avalon_jtag_uart_fd.c
00000000 l    df *ABS*	00000000 altera_avalon_jtag_uart_init.c
0002ede0 l     F .text	00000214 altera_avalon_jtag_uart_irq
0002eff4 l     F .text	000000a8 altera_avalon_jtag_uart_timeout
00000000 l    df *ABS*	00000000 altera_avalon_jtag_uart_ioctl.c
00000000 l    df *ABS*	00000000 altera_avalon_jtag_uart_read.c
00000000 l    df *ABS*	00000000 altera_avalon_jtag_uart_write.c
00000000 l    df *ABS*	00000000 altera_avalon_timer_sc.c
0002f640 l     F .text	0000007c alt_avalon_timer_sc_irq
00000000 l    df *ABS*	00000000 alt_alarm_start.c
00000000 l    df *ABS*	00000000 alt_dcache_flush_all.c
00000000 l    df *ABS*	00000000 alt_dev_llist_insert.c
0002f8c0 l     F .text	0000003c alt_get_errno
00000000 l    df *ABS*	00000000 alt_do_ctors.c
00000000 l    df *ABS*	00000000 alt_do_dtors.c
00000000 l    df *ABS*	00000000 alt_icache_flush_all.c
00000000 l    df *ABS*	00000000 alt_io_redirect.c
0002fb00 l     F .text	000000d4 alt_open_fd
00000000 l    df *ABS*	00000000 alt_open.c
0002fc50 l     F .text	0000003c alt_get_errno
0002fc8c l     F .text	000000dc alt_file_locked
00000000 l    df *ABS*	00000000 alt_tick.c
00000000 l    df *ABS*	00000000 altera_nios2_gen2_irq.c
00000000 l    df *ABS*	00000000 alt_find_dev.c
00000000 l    df *ABS*	00000000 alt_find_file.c
00000000 l    df *ABS*	00000000 alt_get_fd.c
00000000 l    df *ABS*	00000000 atexit.c
00000000 l    df *ABS*	00000000 memcmp.c
00000000 l    df *ABS*	00000000 __atexit.c
00033c78 g     O .bss	00000004 alt_instruction_exception_handler
000291fc g     F .text	00000070 _mprec_log10
000292d8 g     F .text	00000060 __any_on
0002a000 g     F .text	00000058 _isatty_r
00030584 g     O .rodata	00000028 __mprec_tinytens
0002e67c g     F .text	0000007c alt_main
00033de8 g     O .bss	00000100 alt_irq
000259e0 g     F .text	00000064 _lseek_r
00032368 g       *ABS*	00000000 __flash_rwdata_start
0002c694 g     F .text	00000094 .hidden __eqdf2
00034078 g       *ABS*	00000000 __alt_heap_start
0002a8e4 g     F .text	00000060 _kill_r
00020930 g     F .text	00000038 printf
00029960 g     F .text	0000006c _wcrtomb_r
0002a484 g     F .text	0000008c _signal_r
00024ef8 g     F .text	0000005c __sseek
00024874 g     F .text	00000028 __sinit
00029d88 g     F .text	00000148 __swbuf_r
0002579c g     F .text	0000007c _setlocale_r
0002e71c g     F .text	00000024 __malloc_unlock
0002549c g     F .text	00000128 memmove
00028180 g     F .text	000000a4 _Balloc
0002c728 g     F .text	000000fc .hidden __gtdf2
00030098 g     F .text	00000024 altera_nios2_gen2_irq_init
0002a404 g     F .text	0000000c __errno
00020000 g     F .entry	0000000c __reset
000258a0 g     F .text	00000008 __localeconv_l
00033c54 g     O .bss	00000004 __stdio_exit_handler
00020020 g       *ABS*	00000000 __flash_exceptions_start
00029fa0 g     F .text	00000060 _fstat_r
00033c50 g     O .bss	00000004 errno
00024e70 g     F .text	00000008 __seofread
00033c70 g     O .bss	00000004 alt_argv
0003a330 g       *ABS*	00000000 _gp
0002dfa4 g     F .text	00000020 getpid
00031150 g     O .rwdata	00000180 alt_fd_list
000300bc g     F .text	00000090 alt_find_dev
0002539c g     F .text	00000100 memcpy
0002db94 g     F .text	000000b8 .hidden __floatsidf
0002fbd4 g     F .text	0000007c alt_io_redirect
0002c824 g     F .text	000000f8 .hidden __ltdf2
0003042c g       *ABS*	00000000 __DTOR_END__
0002fa8c g     F .text	00000074 alt_exception_cause_generated_bad_addr
00029158 g     F .text	000000a4 __ratio
00024174 g     F .text	0000001c __vfiprintf_internal
0002f1f8 g     F .text	00000220 altera_avalon_jtag_uart_read
00020900 g     F .text	00000030 _printf_r
00020840 g     F .text	00000064 .hidden __udivsi3
0002e298 g     F .text	000000b0 isatty
0002a510 g     F .text	000000b0 _raise_r
0002a1c8 g     F .text	00000064 __assert_func
000305d4 g     O .rodata	000000c8 __mprec_tens
00033c60 g     O .bss	00000004 __malloc_top_pad
0002a944 g     F .text	00000004 _getpid_r
000258a8 g     F .text	0000000c _localeconv_r
000285f8 g     F .text	000000b0 __i2b
000248d4 g     F .text	000004a0 __sfvwrite_r
0002a5c0 g     F .text	000000bc __sigtramp_r
0002a058 g     F .text	00000058 _sbrk_r
00025a44 g     F .text	00000064 _read_r
00032350 g     O .rwdata	00000004 alt_max_fd
00029a54 g     F .text	000000f0 _fclose_r
000244b8 g     F .text	0000008c fflush
00033c5c g     O .bss	00000004 __malloc_max_sbrked_mem
0002b4a4 g     F .text	00000904 .hidden __adddf3
00028f00 g     F .text	00000100 __b2d
0002af20 g     F .text	0000055c .hidden __umoddi3
0002e59c g     F .text	000000e0 lseek
00029338 g     F .text	000005ec _realloc_r
00034078 g       *ABS*	00000000 __bss_end
0002e174 g     F .text	000000e8 alt_iic_isr_register
0002ff6c g     F .text	0000012c alt_tick
0002a948 g     F .text	000005d8 .hidden __udivdi3
00025204 g     F .text	00000024 _fputwc_r
000305ac g     O .rodata	00000028 __mprec_bigtens
0002839c g     F .text	00000138 __s2b
0002a410 g     F .text	00000018 abort
0002dc4c g     F .text	00000090 .hidden __floatunsidf
00028c18 g     F .text	00000058 __mcmp
000248a4 g     F .text	00000018 __fp_lock_all
0002e128 g     F .text	0000004c alt_ic_irq_enabled
0002fec8 g     F .text	000000a4 alt_alarm_stop
00033c68 g     O .bss	00000004 alt_irq_active
000200fc g     F .exceptions	000000c8 alt_irq_handler
00031128 g     O .rwdata	00000028 alt_dev_null
00025918 g     F .text	000000c8 _reclaim_reent
0002f8a0 g     F .text	00000020 alt_dcache_flush_all
000284d4 g     F .text	00000074 __hi0bits
0002db14 g     F .text	00000080 .hidden __fixdfsi
00032368 g       *ABS*	00000000 __ram_rwdata_end
00033c88 g     O .bss	00000138 __sf
00032348 g     O .rwdata	00000008 alt_dev_list
0002e9e8 g     F .text	00000104 write
00030a8c g       *ABS*	00000000 __ram_rodata_end
0002dee8 g     F .text	000000bc fstat
0002e384 g     F .text	000000f0 kill
0002c824 g     F .text	000000f8 .hidden __ledf2
00028950 g     F .text	00000140 __pow5mult
00022ed8 g     F .text	0000129c ___vfiprintf_internal_r
000208a4 g     F .text	0000005c .hidden __umodsi3
00034078 g       *ABS*	00000000 end
0002ed20 g     F .text	000000c0 altera_avalon_jtag_uart_init
000201c4 g     F .exceptions	00000060 alt_instruction_exception_entry
0003042c g       *ABS*	00000000 __CTOR_LIST__
00038000 g       *ABS*	00000000 __alt_stack_pointer
0002f6bc g     F .text	00000084 alt_avalon_timer_sc_init
0002dcdc g     F .text	00000050 .hidden __clzsi2
0002f418 g     F .text	00000228 altera_avalon_jtag_uart_write
0002489c g     F .text	00000004 __sfp_lock_acquire
000252a0 g     F .text	000000fc memchr
00020968 g     F .text	00002384 ___vfprintf_internal_r
00027660 g     F .text	00000308 _free_r
000307a0 g     O .rodata	00000180 _ctype_b
00025818 g     F .text	0000000c __locale_mb_cur_max
0002a0b0 g     F .text	00000118 __call_exitprocs
00033ee8 g     O .bss	00000190 __atexit0
00032338 g     O .rwdata	00000004 __malloc_sbrk_base
00020224 g     F .text	0000003c _start
00033c7c g     O .bss	00000004 _alt_tick_rate
00020420 g     F .text	00000058 jtaguart_disp_msg_v2
00028a90 g     F .text	00000188 __lshift
00033c80 g     O .bss	00000008 _alt_nticks
0002a730 g     F .text	00000098 signal
0002e77c g     F .text	00000108 read
0002eb5c g     F .text	00000060 alt_sys_init
00030398 g     F .text	00000094 __register_exitproc
000286a8 g     F .text	000002a8 __multiply
0002f09c g     F .text	00000068 altera_avalon_jtag_uart_close
0002b47c g     F .text	00000028 .hidden __mulsi3
00030a8c g       *ABS*	00000000 __ram_rwdata_start
0003042c g       *ABS*	00000000 __ram_rodata_start
00033dc0 g     O .bss	00000028 __malloc_current_mallinfo
00029000 g     F .text	00000158 __d2b
0002ebbc g     F .text	00000060 altera_avalon_jtag_uart_read_fd
00030254 g     F .text	000000b8 alt_get_fd
000258c0 g     F .text	00000058 _close_r
00030320 g     F .text	00000078 memcmp
0002ec7c g     F .text	00000050 altera_avalon_jtag_uart_close_fd
00034078 g       *ABS*	00000000 __alt_stack_base
0002eccc g     F .text	00000054 altera_avalon_jtag_uart_ioctl_fd
00024f5c g     F .text	00000144 __swsetup_r
0002bda8 g     F .text	000008ec .hidden __divdf3
00024754 g     F .text	00000120 __sfp
0002926c g     F .text	0000006c __copybits
00030d20 g     O .rwdata	00000408 __malloc_av_
00033c64 g     O .bss	00000004 __atexit
0002c91c g     F .text	00000808 .hidden __muldf3
00024e1c g     F .text	00000054 __sread
0003014c g     F .text	00000108 alt_find_file
0002f8fc g     F .text	000000a8 alt_dev_llist_insert
0002e6f8 g     F .text	00000024 __malloc_lock
0002e8f4 g     F .text	000000b8 sbrk
0002445c g     F .text	0000005c _fflush_r
0002a240 g     F .text	00000168 _calloc_r
0002032c g     F .text	00000054 flashsys_init_v1
00033c44 g       *ABS*	00000000 __bss_start
000255c4 g     F .text	00000140 memset
00020620 g     F .text	000000b4 main
00020000 g       *ABS*	00000000 __alt_mem_RAM
00033c74 g     O .bss	00000004 alt_envp
00033c58 g     O .bss	00000004 __malloc_max_total_mem
0002ec1c g     F .text	00000060 altera_avalon_jtag_uart_write_fd
00029ed0 g     F .text	00000018 __swbuf
00020380 g     F .text	000000a0 sw_get_command_v1
00024f54 g     F .text	00000008 __sclose
00038000 g       *ABS*	00000000 __alt_heap_limit
00029b44 g     F .text	00000010 fclose
00025d24 g     F .text	000017e8 _dtoa_r
00027968 g     F .text	000007c8 _malloc_r
00029930 g     F .text	00000030 __ascii_wctomb
00032354 g     O .rwdata	00000004 alt_errno
0002a3a8 g     F .text	00000020 _fiprintf_r
0002a7c8 g     F .text	00000060 _init_signal
00028130 g     F .text	0000000c _mbtowc_r
0002074c g     F .text	00000080 .hidden __divsi3
0002753c g     F .text	00000124 _malloc_trim_r
0003042c g       *ABS*	00000000 __CTOR_END__
00029ee8 g     F .text	000000b8 strcmp
0003042c g       *ABS*	00000000 __flash_rodata_start
0003042c g       *ABS*	00000000 __DTOR_LIST__
0002c694 g     F .text	00000094 .hidden __nedf2
0002eb20 g     F .text	0000003c alt_irq_init
0002e884 g     F .text	00000070 alt_release_fd
00030960 g     O .rodata	00000100 .hidden __clz_tab
00033c4c g     O .bss	00000004 _PathLocale
0003030c g     F .text	00000014 atexit
00025aa8 g     F .text	00000064 _write_r
00025824 g     F .text	0000007c setlocale
00020478 g     F .text	00000104 sseg_disp_msg_v1
00032334 g     O .rwdata	00000004 _impure_ptr
00033c6c g     O .bss	00000004 alt_argc
00024254 g     F .text	00000208 __sflush_r
0002fa08 g     F .text	00000064 _do_dtors
00024d74 g     F .text	000000a8 _fwalk_sglue
00020260 g     F .text	00000050 sseg_conv_hex
00020020 g       .exceptions	00000000 alt_irq_entry
0002813c g     F .text	00000044 __ascii_mbtowc
00028ea0 g     F .text	00000060 __ulp
000248bc g     F .text	00000018 __fp_unlock_all
00032340 g     O .rwdata	00000008 alt_fs_list
00020020 g       *ABS*	00000000 __ram_exceptions_start
000258b4 g     F .text	0000000c localeconv
00029cfc g     F .text	0000008c __swhatbuf_r
000202b0 g     F .text	0000007c sseg_disp_ptn
0002dfc4 g     F .text	00000050 alt_ic_isr_register
00030ba8 g     O .rwdata	0000000c __sglue
00032368 g       *ABS*	00000000 _edata
00034078 g       *ABS*	00000000 _end
000250a0 g     F .text	00000164 __fputwc
00020224 g       *ABS*	00000000 __ram_exceptions_end
0002f104 g     F .text	000000f4 altera_avalon_jtag_uart_ioctl
0002e09c g     F .text	0000008c alt_ic_irq_disable
00024e78 g     F .text	00000080 __swrite
0003233c g     O .rwdata	00000004 __malloc_trim_threshold
0002750c g     F .text	00000030 exit
0002a3c8 g     F .text	00000038 fiprintf
0002a400 g     F .text	00000004 _vfiprintf_r
00028c70 g     F .text	00000230 __mdiff
000207cc g     F .text	00000074 .hidden __modsi3
00030a8c g     O .rwdata	0000011c _impure_data
00038000 g       *ABS*	00000000 __alt_data_end
00020020 g     F .exceptions	00000000 alt_exception
000248a0 g     F .text	00000004 __sfp_lock_release
0003069c g     O .rodata	00000101 _ctype_
000206d4 g     F .text	00000078 timer_write_prd
0002dac0 g     F .text	00000054 .hidden __unorddf2
0002de70 g     F .text	0000003c _exit
0002f740 g     F .text	00000160 alt_alarm_start
00029b54 g     F .text	000001a8 __smakebuf_r
00025704 g     F .text	00000098 strlen
0002a428 g     F .text	0000005c _init_signal_r
0002fd68 g     F .text	00000160 open
0002c728 g     F .text	000000fc .hidden __gedf2
0002a22c g     F .text	00000014 __assert
00022ec0 g     F .text	00000018 __sprint_r
0002fa6c g     F .text	00000020 alt_icache_flush_all
00032358 g     O .rwdata	00000004 alt_priority_mask
0002e014 g     F .text	00000088 alt_ic_irq_enable
00022cec g     F .text	0000001c __vfprintf_internal
00029924 g     F .text	0000000c _wctomb_r
0002d124 g     F .text	0000099c .hidden __subdf3
00028548 g     F .text	000000b0 __lo0bits
00032360 g     O .rwdata	00000008 alt_alarm_list
0002f9a4 g     F .text	00000064 _do_ctors
0002a828 g     F .text	000000bc __sigtramp
000299cc g     F .text	00000088 wcrtomb
0002dd68 g     F .text	000000dc close
00030bb4 g     O .rwdata	0000016c __global_locale
0002e4dc g     F .text	00000084 alt_load
00025228 g     F .text	00000078 fputwc
0002a67c g     F .text	000000b4 raise
00028248 g     F .text	00000154 __multadd
00028224 g     F .text	00000024 _Bfree



Disassembly of section .entry:

00020000 <__reset>:
   20000:	004000b4 	movhi	at,2
   20004:	08408914 	ori	at,at,548
   20008:	0800683a 	jmp	at
	...

Disassembly of section .exceptions:

00020020 <alt_exception>:
   20020:	deffed04 	addi	sp,sp,-76
   20024:	dfc00015 	stw	ra,0(sp)
   20028:	d8400215 	stw	at,8(sp)
   2002c:	d8800315 	stw	r2,12(sp)
   20030:	d8c00415 	stw	r3,16(sp)
   20034:	d9000515 	stw	r4,20(sp)
   20038:	d9400615 	stw	r5,24(sp)
   2003c:	d9800715 	stw	r6,28(sp)
   20040:	d9c00815 	stw	r7,32(sp)
   20044:	000b307a 	rdctl	r5,estatus
   20048:	da000915 	stw	r8,36(sp)
   2004c:	da400a15 	stw	r9,40(sp)
   20050:	da800b15 	stw	r10,44(sp)
   20054:	dac00c15 	stw	r11,48(sp)
   20058:	db000d15 	stw	r12,52(sp)
   2005c:	db400e15 	stw	r13,56(sp)
   20060:	db800f15 	stw	r14,60(sp)
   20064:	dbc01015 	stw	r15,64(sp)
   20068:	d9401115 	stw	r5,68(sp)
   2006c:	ebffff04 	addi	r15,ea,-4
   20070:	dbc01215 	stw	r15,72(sp)
   20074:	0009313a 	rdctl	r4,ipending
   20078:	2880004c 	andi	r2,r5,1
   2007c:	10000326 	beq	r2,zero,2008c <alt_exception+0x6c>
   20080:	20000226 	beq	r4,zero,2008c <alt_exception+0x6c>
   20084:	00200fc0 	call	200fc <alt_irq_handler>
   20088:	00000706 	br	200a8 <alt_exception+0x88>
   2008c:	df401215 	stw	ea,72(sp)
   20090:	e8bfff17 	ldw	r2,-4(ea)
   20094:	e93fff04 	addi	r4,ea,-4
   20098:	00201c40 	call	201c4 <alt_instruction_exception_entry>
   2009c:	1000021e 	bne	r2,zero,200a8 <alt_exception+0x88>
   200a0:	ebffff04 	addi	r15,ea,-4
   200a4:	dbc01215 	stw	r15,72(sp)
   200a8:	d9401117 	ldw	r5,68(sp)
   200ac:	df401217 	ldw	ea,72(sp)
   200b0:	dfc00017 	ldw	ra,0(sp)
   200b4:	2801707a 	wrctl	estatus,r5
   200b8:	d8400217 	ldw	at,8(sp)
   200bc:	d8800317 	ldw	r2,12(sp)
   200c0:	d8c00417 	ldw	r3,16(sp)
   200c4:	d9000517 	ldw	r4,20(sp)
   200c8:	d9400617 	ldw	r5,24(sp)
   200cc:	d9800717 	ldw	r6,28(sp)
   200d0:	d9c00817 	ldw	r7,32(sp)
   200d4:	da000917 	ldw	r8,36(sp)
   200d8:	da400a17 	ldw	r9,40(sp)
   200dc:	da800b17 	ldw	r10,44(sp)
   200e0:	dac00c17 	ldw	r11,48(sp)
   200e4:	db000d17 	ldw	r12,52(sp)
   200e8:	db400e17 	ldw	r13,56(sp)
   200ec:	db800f17 	ldw	r14,60(sp)
   200f0:	dbc01017 	ldw	r15,64(sp)
   200f4:	dec01304 	addi	sp,sp,76
   200f8:	ef80083a 	eret

000200fc <alt_irq_handler>:
   200fc:	defff904 	addi	sp,sp,-28
   20100:	dfc00615 	stw	ra,24(sp)
   20104:	df000515 	stw	fp,20(sp)
   20108:	df000504 	addi	fp,sp,20
   2010c:	0001883a 	nop
   20110:	0005313a 	rdctl	r2,ipending
   20114:	e0bffc15 	stw	r2,-16(fp)
   20118:	e0bffc17 	ldw	r2,-16(fp)
   2011c:	e0bfff15 	stw	r2,-4(fp)
   20120:	e03ffd15 	stw	zero,-12(fp)
   20124:	00800044 	movi	r2,1
   20128:	e0bffe15 	stw	r2,-8(fp)
   2012c:	e0ffff17 	ldw	r3,-4(fp)
   20130:	e0bffe17 	ldw	r2,-8(fp)
   20134:	1884703a 	and	r2,r3,r2
   20138:	10001126 	beq	r2,zero,20180 <alt_irq_handler+0x84>
   2013c:	e0bffd17 	ldw	r2,-12(fp)
   20140:	100690fa 	slli	r3,r2,3
   20144:	008000f4 	movhi	r2,3
   20148:	1885883a 	add	r2,r3,r2
   2014c:	10cf7a17 	ldw	r3,15848(r2)
   20150:	e0bffd17 	ldw	r2,-12(fp)
   20154:	100890fa 	slli	r4,r2,3
   20158:	008000f4 	movhi	r2,3
   2015c:	2085883a 	add	r2,r4,r2
   20160:	108f7b17 	ldw	r2,15852(r2)
   20164:	1009883a 	mov	r4,r2
   20168:	183ee83a 	callr	r3
   2016c:	0001883a 	nop
   20170:	0005313a 	rdctl	r2,ipending
   20174:	e0bffb15 	stw	r2,-20(fp)
   20178:	e0bffb17 	ldw	r2,-20(fp)
   2017c:	00000706 	br	2019c <alt_irq_handler+0xa0>
   20180:	e0bffe17 	ldw	r2,-8(fp)
   20184:	1085883a 	add	r2,r2,r2
   20188:	e0bffe15 	stw	r2,-8(fp)
   2018c:	e0bffd17 	ldw	r2,-12(fp)
   20190:	10800044 	addi	r2,r2,1
   20194:	e0bffd15 	stw	r2,-12(fp)
   20198:	003fe406 	br	2012c <alt_irq_handler+0x30>
   2019c:	e0bfff15 	stw	r2,-4(fp)
   201a0:	e0bfff17 	ldw	r2,-4(fp)
   201a4:	103fde1e 	bne	r2,zero,20120 <alt_irq_handler+0x24>
   201a8:	0001883a 	nop
   201ac:	0001883a 	nop
   201b0:	e037883a 	mov	sp,fp
   201b4:	dfc00117 	ldw	ra,4(sp)
   201b8:	df000017 	ldw	fp,0(sp)
   201bc:	dec00204 	addi	sp,sp,8
   201c0:	f800283a 	ret

000201c4 <alt_instruction_exception_entry>:
   201c4:	defffb04 	addi	sp,sp,-20
   201c8:	dfc00415 	stw	ra,16(sp)
   201cc:	df000315 	stw	fp,12(sp)
   201d0:	df000304 	addi	fp,sp,12
   201d4:	e13ffd15 	stw	r4,-12(fp)
   201d8:	00bfffc4 	movi	r2,-1
   201dc:	e0bfff15 	stw	r2,-4(fp)
   201e0:	e03ffe15 	stw	zero,-8(fp)
   201e4:	d0a65217 	ldw	r2,-26296(gp)
   201e8:	10000726 	beq	r2,zero,20208 <alt_instruction_exception_entry+0x44>
   201ec:	d0a65217 	ldw	r2,-26296(gp)
   201f0:	e0ffff17 	ldw	r3,-4(fp)
   201f4:	e1bffe17 	ldw	r6,-8(fp)
   201f8:	e17ffd17 	ldw	r5,-12(fp)
   201fc:	1809883a 	mov	r4,r3
   20200:	103ee83a 	callr	r2
   20204:	00000206 	br	20210 <alt_instruction_exception_entry+0x4c>
   20208:	003da03a 	break	0
   2020c:	0005883a 	mov	r2,zero
   20210:	e037883a 	mov	sp,fp
   20214:	dfc00117 	ldw	ra,4(sp)
   20218:	df000017 	ldw	fp,0(sp)
   2021c:	dec00204 	addi	sp,sp,8
   20220:	f800283a 	ret

Disassembly of section .text:

00020224 <_start>:
   20224:	06c000f4 	movhi	sp,3
   20228:	dee00014 	ori	sp,sp,32768
   2022c:	068000f4 	movhi	gp,3
   20230:	d6a8cc14 	ori	gp,gp,41776
   20234:	008000f4 	movhi	r2,3
   20238:	108f1114 	ori	r2,r2,15428
   2023c:	00c000f4 	movhi	r3,3
   20240:	18d01e14 	ori	r3,r3,16504
   20244:	10c00326 	beq	r2,r3,20254 <_start+0x30>
   20248:	10000015 	stw	zero,0(r2)
   2024c:	10800104 	addi	r2,r2,4
   20250:	10fffd36 	bltu	r2,r3,20248 <_start+0x24>
   20254:	002e4dc0 	call	2e4dc <alt_load>
   20258:	002e67c0 	call	2e67c <alt_main>

0002025c <alt_after_alt_main>:
   2025c:	003fff06 	br	2025c <alt_after_alt_main>

00020260 <sseg_conv_hex>:
   20260:	defffd04 	addi	sp,sp,-12
   20264:	df000215 	stw	fp,8(sp)
   20268:	df000204 	addi	fp,sp,8
   2026c:	e13ffe15 	stw	r4,-8(fp)
   20270:	e0bffe17 	ldw	r2,-8(fp)
   20274:	108003c8 	cmpgei	r2,r2,15
   20278:	1000061e 	bne	r2,zero,20294 <sseg_conv_hex+0x34>
   2027c:	e0fffe17 	ldw	r3,-8(fp)
   20280:	008000f4 	movhi	r2,3
   20284:	1885883a 	add	r2,r3,r2
   20288:	10810b03 	ldbu	r2,1068(r2)
   2028c:	e0bfffc5 	stb	r2,-1(fp)
   20290:	00000206 	br	2029c <sseg_conv_hex+0x3c>
   20294:	00bfffc4 	movi	r2,-1
   20298:	e0bfffc5 	stb	r2,-1(fp)
   2029c:	e0bfffc3 	ldbu	r2,-1(fp)
   202a0:	e037883a 	mov	sp,fp
   202a4:	df000017 	ldw	fp,0(sp)
   202a8:	dec00104 	addi	sp,sp,4
   202ac:	f800283a 	ret

000202b0 <sseg_disp_ptn>:
   202b0:	defffb04 	addi	sp,sp,-20
   202b4:	df000415 	stw	fp,16(sp)
   202b8:	df000404 	addi	fp,sp,16
   202bc:	e13ffd15 	stw	r4,-12(fp)
   202c0:	e17ffc15 	stw	r5,-16(fp)
   202c4:	e03ffe15 	stw	zero,-8(fp)
   202c8:	00000d06 	br	20300 <sseg_disp_ptn+0x50>
   202cc:	e0bfff17 	ldw	r2,-4(fp)
   202d0:	1006923a 	slli	r3,r2,8
   202d4:	e0bffc17 	ldw	r2,-16(fp)
   202d8:	10800003 	ldbu	r2,0(r2)
   202dc:	10803fcc 	andi	r2,r2,255
   202e0:	1884b03a 	or	r2,r3,r2
   202e4:	e0bfff15 	stw	r2,-4(fp)
   202e8:	e0bffc17 	ldw	r2,-16(fp)
   202ec:	10800044 	addi	r2,r2,1
   202f0:	e0bffc15 	stw	r2,-16(fp)
   202f4:	e0bffe17 	ldw	r2,-8(fp)
   202f8:	10800044 	addi	r2,r2,1
   202fc:	e0bffe15 	stw	r2,-8(fp)
   20300:	e0bffe17 	ldw	r2,-8(fp)
   20304:	10800110 	cmplti	r2,r2,4
   20308:	103ff01e 	bne	r2,zero,202cc <sseg_disp_ptn+0x1c>
   2030c:	e0bffd17 	ldw	r2,-12(fp)
   20310:	e0ffff17 	ldw	r3,-4(fp)
   20314:	10c00035 	stwio	r3,0(r2)
   20318:	0001883a 	nop
   2031c:	e037883a 	mov	sp,fp
   20320:	df000017 	ldw	fp,0(sp)
   20324:	dec00104 	addi	sp,sp,4
   20328:	f800283a 	ret

0002032c <flashsys_init_v1>:
   2032c:	defffc04 	addi	sp,sp,-16
   20330:	dfc00315 	stw	ra,12(sp)
   20334:	df000215 	stw	fp,8(sp)
   20338:	df000204 	addi	fp,sp,8
   2033c:	e13fff15 	stw	r4,-4(fp)
   20340:	e17ffe15 	stw	r5,-8(fp)
   20344:	e0bfff17 	ldw	r2,-4(fp)
   20348:	10800304 	addi	r2,r2,12
   2034c:	1007883a 	mov	r3,r2
   20350:	008003c4 	movi	r2,15
   20354:	18800035 	stwio	r2,0(r3)
   20358:	e0bffe17 	ldw	r2,-8(fp)
   2035c:	0170d414 	movui	r5,50000
   20360:	1009883a 	mov	r4,r2
   20364:	00206d40 	call	206d4 <timer_write_prd>
   20368:	0001883a 	nop
   2036c:	e037883a 	mov	sp,fp
   20370:	dfc00117 	ldw	ra,4(sp)
   20374:	df000017 	ldw	fp,0(sp)
   20378:	dec00204 	addi	sp,sp,8
   2037c:	f800283a 	ret

00020380 <sw_get_command_v1>:
   20380:	defffb04 	addi	sp,sp,-20
   20384:	df000415 	stw	fp,16(sp)
   20388:	df000404 	addi	fp,sp,16
   2038c:	e13ffe15 	stw	r4,-8(fp)
   20390:	e17ffd15 	stw	r5,-12(fp)
   20394:	e1bffc15 	stw	r6,-16(fp)
   20398:	e0bffe17 	ldw	r2,-8(fp)
   2039c:	10800304 	addi	r2,r2,12
   203a0:	10800037 	ldwio	r2,0(r2)
   203a4:	108000cc 	andi	r2,r2,3
   203a8:	e0bfffc5 	stb	r2,-1(fp)
   203ac:	e0bfffc3 	ldbu	r2,-1(fp)
   203b0:	10001626 	beq	r2,zero,2040c <sw_get_command_v1+0x8c>
   203b4:	e0bfffc3 	ldbu	r2,-1(fp)
   203b8:	10800058 	cmpnei	r2,r2,1
   203bc:	1000061e 	bne	r2,zero,203d8 <sw_get_command_v1+0x58>
   203c0:	e0bffc17 	ldw	r2,-16(fp)
   203c4:	10800017 	ldw	r2,0(r2)
   203c8:	10c0005c 	xori	r3,r2,1
   203cc:	e0bffc17 	ldw	r2,-16(fp)
   203d0:	10c00015 	stw	r3,0(r2)
   203d4:	00000806 	br	203f8 <sw_get_command_v1+0x78>
   203d8:	e0bfffc3 	ldbu	r2,-1(fp)
   203dc:	10800098 	cmpnei	r2,r2,2
   203e0:	1000051e 	bne	r2,zero,203f8 <sw_get_command_v1+0x78>
   203e4:	e0bffd17 	ldw	r2,-12(fp)
   203e8:	10800037 	ldwio	r2,0(r2)
   203ec:	10c0ffcc 	andi	r3,r2,1023
   203f0:	e0bffc17 	ldw	r2,-16(fp)
   203f4:	10c00115 	stw	r3,4(r2)
   203f8:	e0bffe17 	ldw	r2,-8(fp)
   203fc:	10800304 	addi	r2,r2,12
   20400:	1007883a 	mov	r3,r2
   20404:	008003c4 	movi	r2,15
   20408:	18800035 	stwio	r2,0(r3)
   2040c:	0001883a 	nop
   20410:	e037883a 	mov	sp,fp
   20414:	df000017 	ldw	fp,0(sp)
   20418:	dec00104 	addi	sp,sp,4
   2041c:	f800283a 	ret

00020420 <jtaguart_disp_msg_v2>:
   20420:	defffc04 	addi	sp,sp,-16
   20424:	dfc00315 	stw	ra,12(sp)
   20428:	df000215 	stw	fp,8(sp)
   2042c:	df000204 	addi	fp,sp,8
   20430:	e13ffe15 	stw	r4,-8(fp)
   20434:	e17fff15 	stw	r5,-4(fp)
   20438:	e0ffff17 	ldw	r3,-4(fp)
   2043c:	d0a64517 	ldw	r2,-26348(gp)
   20440:	18800726 	beq	r3,r2,20460 <jtaguart_disp_msg_v2+0x40>
   20444:	e0bfff17 	ldw	r2,-4(fp)
   20448:	100b883a 	mov	r5,r2
   2044c:	010000f4 	movhi	r4,3
   20450:	21010f04 	addi	r4,r4,1084
   20454:	00209300 	call	20930 <printf>
   20458:	e0bfff17 	ldw	r2,-4(fp)
   2045c:	d0a64515 	stw	r2,-26348(gp)
   20460:	0001883a 	nop
   20464:	e037883a 	mov	sp,fp
   20468:	dfc00117 	ldw	ra,4(sp)
   2046c:	df000017 	ldw	fp,0(sp)
   20470:	dec00204 	addi	sp,sp,8
   20474:	f800283a 	ret

00020478 <sseg_disp_msg_v1>:
   20478:	defff804 	addi	sp,sp,-32
   2047c:	dfc00715 	stw	ra,28(sp)
   20480:	df000615 	stw	fp,24(sp)
   20484:	df000604 	addi	fp,sp,24
   20488:	e13ffc15 	stw	r4,-16(fp)
   2048c:	e17ffa15 	stw	r5,-24(fp)
   20490:	e1bffb15 	stw	r6,-20(fp)
   20494:	e0bffb17 	ldw	r2,-20(fp)
   20498:	1080fa10 	cmplti	r2,r2,1000
   2049c:	1000031e 	bne	r2,zero,204ac <sseg_disp_msg_v1+0x34>
   204a0:	0080f9c4 	movi	r2,999
   204a4:	e0bfff15 	stw	r2,-4(fp)
   204a8:	00000206 	br	204b4 <sseg_disp_msg_v1+0x3c>
   204ac:	e0bffb17 	ldw	r2,-20(fp)
   204b0:	e0bfff15 	stw	r2,-4(fp)
   204b4:	e0bfff17 	ldw	r2,-4(fp)
   204b8:	01400284 	movi	r5,10
   204bc:	1009883a 	mov	r4,r2
   204c0:	00207cc0 	call	207cc <__modsi3>
   204c4:	e0bffec5 	stb	r2,-5(fp)
   204c8:	e0bffec3 	ldbu	r2,-5(fp)
   204cc:	1009883a 	mov	r4,r2
   204d0:	00202600 	call	20260 <sseg_conv_hex>
   204d4:	e0bffe85 	stb	r2,-6(fp)
   204d8:	e0bfff17 	ldw	r2,-4(fp)
   204dc:	01400284 	movi	r5,10
   204e0:	1009883a 	mov	r4,r2
   204e4:	002074c0 	call	2074c <__divsi3>
   204e8:	01400284 	movi	r5,10
   204ec:	1009883a 	mov	r4,r2
   204f0:	00207cc0 	call	207cc <__modsi3>
   204f4:	e0bffec5 	stb	r2,-5(fp)
   204f8:	e0bffec3 	ldbu	r2,-5(fp)
   204fc:	1009883a 	mov	r4,r2
   20500:	00202600 	call	20260 <sseg_conv_hex>
   20504:	e0bffe45 	stb	r2,-7(fp)
   20508:	e0bfff17 	ldw	r2,-4(fp)
   2050c:	01401904 	movi	r5,100
   20510:	1009883a 	mov	r4,r2
   20514:	002074c0 	call	2074c <__divsi3>
   20518:	01400284 	movi	r5,10
   2051c:	1009883a 	mov	r4,r2
   20520:	00207cc0 	call	207cc <__modsi3>
   20524:	e0bffec5 	stb	r2,-5(fp)
   20528:	e0bffec3 	ldbu	r2,-5(fp)
   2052c:	1009883a 	mov	r4,r2
   20530:	00202600 	call	20260 <sseg_conv_hex>
   20534:	e0bffe05 	stb	r2,-8(fp)
   20538:	e0bffa17 	ldw	r2,-24(fp)
   2053c:	10000326 	beq	r2,zero,2054c <sseg_disp_msg_v1+0xd4>
   20540:	00800304 	movi	r2,12
   20544:	e0bffdc5 	stb	r2,-9(fp)
   20548:	00000206 	br	20554 <sseg_disp_msg_v1+0xdc>
   2054c:	00bfffc4 	movi	r2,-1
   20550:	e0bffdc5 	stb	r2,-9(fp)
   20554:	e0bffdc4 	addi	r2,fp,-9
   20558:	100b883a 	mov	r5,r2
   2055c:	e13ffc17 	ldw	r4,-16(fp)
   20560:	00202b00 	call	202b0 <sseg_disp_ptn>
   20564:	0001883a 	nop
   20568:	e037883a 	mov	sp,fp
   2056c:	dfc00117 	ldw	ra,4(sp)
   20570:	df000017 	ldw	fp,0(sp)
   20574:	dec00204 	addi	sp,sp,8
   20578:	f800283a 	ret

0002057c <led_flash_isr>:
   2057c:	defffb04 	addi	sp,sp,-20
   20580:	df000415 	stw	fp,16(sp)
   20584:	df000404 	addi	fp,sp,16
   20588:	e13ffd15 	stw	r4,-12(fp)
   2058c:	e17ffc15 	stw	r5,-16(fp)
   20590:	e0bffd17 	ldw	r2,-12(fp)
   20594:	e0bfff15 	stw	r2,-4(fp)
   20598:	e0bfff17 	ldw	r2,-4(fp)
   2059c:	10800017 	ldw	r2,0(r2)
   205a0:	e0bffe15 	stw	r2,-8(fp)
   205a4:	e0bffe17 	ldw	r2,-8(fp)
   205a8:	10800017 	ldw	r2,0(r2)
   205ac:	1000171e 	bne	r2,zero,2060c <led_flash_isr+0x90>
   205b0:	e0bfff17 	ldw	r2,-4(fp)
   205b4:	10800217 	ldw	r2,8(r2)
   205b8:	0007883a 	mov	r3,zero
   205bc:	10c00035 	stwio	r3,0(r2)
   205c0:	e0bffe17 	ldw	r2,-8(fp)
   205c4:	10800117 	ldw	r2,4(r2)
   205c8:	d0e64617 	ldw	r3,-26344(gp)
   205cc:	1880040e 	bge	r3,r2,205e0 <led_flash_isr+0x64>
   205d0:	d0a64617 	ldw	r2,-26344(gp)
   205d4:	10800044 	addi	r2,r2,1
   205d8:	d0a64615 	stw	r2,-26344(gp)
   205dc:	00000c06 	br	20610 <led_flash_isr+0x94>
   205e0:	d0264615 	stw	zero,-26344(gp)
   205e4:	d0a00003 	ldbu	r2,-32768(gp)
   205e8:	108000dc 	xori	r2,r2,3
   205ec:	d0a00005 	stb	r2,-32768(gp)
   205f0:	e0bfff17 	ldw	r2,-4(fp)
   205f4:	10800117 	ldw	r2,4(r2)
   205f8:	1007883a 	mov	r3,r2
   205fc:	d0a00003 	ldbu	r2,-32768(gp)
   20600:	10803fcc 	andi	r2,r2,255
   20604:	18800035 	stwio	r2,0(r3)
   20608:	00000106 	br	20610 <led_flash_isr+0x94>
   2060c:	0001883a 	nop
   20610:	e037883a 	mov	sp,fp
   20614:	df000017 	ldw	fp,0(sp)
   20618:	dec00104 	addi	sp,sp,4
   2061c:	f800283a 	ret

00020620 <main>:
   20620:	defff804 	addi	sp,sp,-32
   20624:	dfc00715 	stw	ra,28(sp)
   20628:	df000615 	stw	fp,24(sp)
   2062c:	df000604 	addi	fp,sp,24
   20630:	e03ffe15 	stw	zero,-8(fp)
   20634:	00801904 	movi	r2,100
   20638:	e0bfff15 	stw	r2,-4(fp)
   2063c:	e0bffe04 	addi	r2,fp,-8
   20640:	e0bffb15 	stw	r2,-20(fp)
   20644:	00800134 	movhi	r2,4
   20648:	10841404 	addi	r2,r2,4176
   2064c:	e0bffc15 	stw	r2,-16(fp)
   20650:	00800134 	movhi	r2,4
   20654:	10840004 	addi	r2,r2,4096
   20658:	e0bffd15 	stw	r2,-12(fp)
   2065c:	01400134 	movhi	r5,4
   20660:	29440004 	addi	r5,r5,4096
   20664:	01000134 	movhi	r4,4
   20668:	21041804 	addi	r4,r4,4192
   2066c:	002032c0 	call	2032c <flashsys_init_v1>
   20670:	e0bffb04 	addi	r2,fp,-20
   20674:	d8000015 	stw	zero,0(sp)
   20678:	100f883a 	mov	r7,r2
   2067c:	018000b4 	movhi	r6,2
   20680:	31815f04 	addi	r6,r6,1404
   20684:	01400084 	movi	r5,2
   20688:	0009883a 	mov	r4,zero
   2068c:	002dfc40 	call	2dfc4 <alt_ic_isr_register>
   20690:	e0bffe04 	addi	r2,fp,-8
   20694:	100d883a 	mov	r6,r2
   20698:	01400134 	movhi	r5,4
   2069c:	29441c04 	addi	r5,r5,4208
   206a0:	01000134 	movhi	r4,4
   206a4:	21041804 	addi	r4,r4,4192
   206a8:	00203800 	call	20380 <sw_get_command_v1>
   206ac:	e13ffe17 	ldw	r4,-8(fp)
   206b0:	e17fff17 	ldw	r5,-4(fp)
   206b4:	00204200 	call	20420 <jtaguart_disp_msg_v2>
   206b8:	e17ffe17 	ldw	r5,-8(fp)
   206bc:	e1bfff17 	ldw	r6,-4(fp)
   206c0:	01000134 	movhi	r4,4
   206c4:	21041004 	addi	r4,r4,4160
   206c8:	00204780 	call	20478 <sseg_disp_msg_v1>
   206cc:	0001883a 	nop
   206d0:	003fef06 	br	20690 <main+0x70>

000206d4 <timer_write_prd>:
   206d4:	defffc04 	addi	sp,sp,-16
   206d8:	df000315 	stw	fp,12(sp)
   206dc:	df000304 	addi	fp,sp,12
   206e0:	e13ffe15 	stw	r4,-8(fp)
   206e4:	e17ffd15 	stw	r5,-12(fp)
   206e8:	e0bffd17 	ldw	r2,-12(fp)
   206ec:	1004d43a 	srli	r2,r2,16
   206f0:	e0bfff8d 	sth	r2,-2(fp)
   206f4:	e0bffd17 	ldw	r2,-12(fp)
   206f8:	e0bfff0d 	sth	r2,-4(fp)
   206fc:	e0bffe17 	ldw	r2,-8(fp)
   20700:	10800304 	addi	r2,r2,12
   20704:	1007883a 	mov	r3,r2
   20708:	e0bfff8b 	ldhu	r2,-2(fp)
   2070c:	18800035 	stwio	r2,0(r3)
   20710:	e0bffe17 	ldw	r2,-8(fp)
   20714:	10800204 	addi	r2,r2,8
   20718:	1007883a 	mov	r3,r2
   2071c:	e0bfff0b 	ldhu	r2,-4(fp)
   20720:	18800035 	stwio	r2,0(r3)
   20724:	e0bffe17 	ldw	r2,-8(fp)
   20728:	10800104 	addi	r2,r2,4
   2072c:	1007883a 	mov	r3,r2
   20730:	008001c4 	movi	r2,7
   20734:	18800035 	stwio	r2,0(r3)
   20738:	0001883a 	nop
   2073c:	e037883a 	mov	sp,fp
   20740:	df000017 	ldw	fp,0(sp)
   20744:	dec00104 	addi	sp,sp,4
   20748:	f800283a 	ret

0002074c <__divsi3>:
   2074c:	20001a16 	blt	r4,zero,207b8 <__divsi3+0x6c>
   20750:	000f883a 	mov	r7,zero
   20754:	2800020e 	bge	r5,zero,20760 <__divsi3+0x14>
   20758:	014bc83a 	sub	r5,zero,r5
   2075c:	39c0005c 	xori	r7,r7,1
   20760:	200d883a 	mov	r6,r4
   20764:	00c00044 	movi	r3,1
   20768:	2900092e 	bgeu	r5,r4,20790 <__divsi3+0x44>
   2076c:	00800804 	movi	r2,32
   20770:	00c00044 	movi	r3,1
   20774:	00000106 	br	2077c <__divsi3+0x30>
   20778:	10001226 	beq	r2,zero,207c4 <__divsi3+0x78>
   2077c:	294b883a 	add	r5,r5,r5
   20780:	10bfffc4 	addi	r2,r2,-1
   20784:	18c7883a 	add	r3,r3,r3
   20788:	293ffb36 	bltu	r5,r4,20778 <__divsi3+0x2c>
   2078c:	18000d26 	beq	r3,zero,207c4 <__divsi3+0x78>
   20790:	0005883a 	mov	r2,zero
   20794:	31400236 	bltu	r6,r5,207a0 <__divsi3+0x54>
   20798:	314dc83a 	sub	r6,r6,r5
   2079c:	10c4b03a 	or	r2,r2,r3
   207a0:	1806d07a 	srli	r3,r3,1
   207a4:	280ad07a 	srli	r5,r5,1
   207a8:	183ffa1e 	bne	r3,zero,20794 <__divsi3+0x48>
   207ac:	38000126 	beq	r7,zero,207b4 <__divsi3+0x68>
   207b0:	0085c83a 	sub	r2,zero,r2
   207b4:	f800283a 	ret
   207b8:	0109c83a 	sub	r4,zero,r4
   207bc:	01c00044 	movi	r7,1
   207c0:	003fe406 	br	20754 <__divsi3+0x8>
   207c4:	0005883a 	mov	r2,zero
   207c8:	003ff806 	br	207ac <__divsi3+0x60>

000207cc <__modsi3>:
   207cc:	20001716 	blt	r4,zero,2082c <__modsi3+0x60>
   207d0:	000f883a 	mov	r7,zero
   207d4:	2005883a 	mov	r2,r4
   207d8:	2800010e 	bge	r5,zero,207e0 <__modsi3+0x14>
   207dc:	014bc83a 	sub	r5,zero,r5
   207e0:	00c00044 	movi	r3,1
   207e4:	2900092e 	bgeu	r5,r4,2080c <__modsi3+0x40>
   207e8:	01800804 	movi	r6,32
   207ec:	00c00044 	movi	r3,1
   207f0:	00000106 	br	207f8 <__modsi3+0x2c>
   207f4:	30001026 	beq	r6,zero,20838 <__modsi3+0x6c>
   207f8:	294b883a 	add	r5,r5,r5
   207fc:	31bfffc4 	addi	r6,r6,-1
   20800:	18c7883a 	add	r3,r3,r3
   20804:	293ffb36 	bltu	r5,r4,207f4 <__modsi3+0x28>
   20808:	18000b26 	beq	r3,zero,20838 <__modsi3+0x6c>
   2080c:	1806d07a 	srli	r3,r3,1
   20810:	11400136 	bltu	r2,r5,20818 <__modsi3+0x4c>
   20814:	1145c83a 	sub	r2,r2,r5
   20818:	280ad07a 	srli	r5,r5,1
   2081c:	183ffb1e 	bne	r3,zero,2080c <__modsi3+0x40>
   20820:	38000126 	beq	r7,zero,20828 <__modsi3+0x5c>
   20824:	0085c83a 	sub	r2,zero,r2
   20828:	f800283a 	ret
   2082c:	0109c83a 	sub	r4,zero,r4
   20830:	01c00044 	movi	r7,1
   20834:	003fe706 	br	207d4 <__modsi3+0x8>
   20838:	2005883a 	mov	r2,r4
   2083c:	003ff806 	br	20820 <__modsi3+0x54>

00020840 <__udivsi3>:
   20840:	200d883a 	mov	r6,r4
   20844:	2900152e 	bgeu	r5,r4,2089c <__udivsi3+0x5c>
   20848:	28001416 	blt	r5,zero,2089c <__udivsi3+0x5c>
   2084c:	00800804 	movi	r2,32
   20850:	00c00044 	movi	r3,1
   20854:	00000206 	br	20860 <__udivsi3+0x20>
   20858:	10000e26 	beq	r2,zero,20894 <__udivsi3+0x54>
   2085c:	28000416 	blt	r5,zero,20870 <__udivsi3+0x30>
   20860:	294b883a 	add	r5,r5,r5
   20864:	10bfffc4 	addi	r2,r2,-1
   20868:	18c7883a 	add	r3,r3,r3
   2086c:	293ffa36 	bltu	r5,r4,20858 <__udivsi3+0x18>
   20870:	18000826 	beq	r3,zero,20894 <__udivsi3+0x54>
   20874:	0005883a 	mov	r2,zero
   20878:	31400236 	bltu	r6,r5,20884 <__udivsi3+0x44>
   2087c:	314dc83a 	sub	r6,r6,r5
   20880:	10c4b03a 	or	r2,r2,r3
   20884:	1806d07a 	srli	r3,r3,1
   20888:	280ad07a 	srli	r5,r5,1
   2088c:	183ffa1e 	bne	r3,zero,20878 <__udivsi3+0x38>
   20890:	f800283a 	ret
   20894:	0005883a 	mov	r2,zero
   20898:	f800283a 	ret
   2089c:	00c00044 	movi	r3,1
   208a0:	003ff406 	br	20874 <__udivsi3+0x34>

000208a4 <__umodsi3>:
   208a4:	2005883a 	mov	r2,r4
   208a8:	2900132e 	bgeu	r5,r4,208f8 <__umodsi3+0x54>
   208ac:	28001216 	blt	r5,zero,208f8 <__umodsi3+0x54>
   208b0:	01800804 	movi	r6,32
   208b4:	00c00044 	movi	r3,1
   208b8:	00000206 	br	208c4 <__umodsi3+0x20>
   208bc:	30000c26 	beq	r6,zero,208f0 <__umodsi3+0x4c>
   208c0:	28000416 	blt	r5,zero,208d4 <__umodsi3+0x30>
   208c4:	294b883a 	add	r5,r5,r5
   208c8:	31bfffc4 	addi	r6,r6,-1
   208cc:	18c7883a 	add	r3,r3,r3
   208d0:	293ffa36 	bltu	r5,r4,208bc <__umodsi3+0x18>
   208d4:	18000626 	beq	r3,zero,208f0 <__umodsi3+0x4c>
   208d8:	1806d07a 	srli	r3,r3,1
   208dc:	11400136 	bltu	r2,r5,208e4 <__umodsi3+0x40>
   208e0:	1145c83a 	sub	r2,r2,r5
   208e4:	280ad07a 	srli	r5,r5,1
   208e8:	183ffb1e 	bne	r3,zero,208d8 <__umodsi3+0x34>
   208ec:	f800283a 	ret
   208f0:	2005883a 	mov	r2,r4
   208f4:	f800283a 	ret
   208f8:	00c00044 	movi	r3,1
   208fc:	003ff606 	br	208d8 <__umodsi3+0x34>

00020900 <_printf_r>:
   20900:	defffd04 	addi	sp,sp,-12
   20904:	2805883a 	mov	r2,r5
   20908:	dfc00015 	stw	ra,0(sp)
   2090c:	d9800115 	stw	r6,4(sp)
   20910:	d9c00215 	stw	r7,8(sp)
   20914:	21400217 	ldw	r5,8(r4)
   20918:	d9c00104 	addi	r7,sp,4
   2091c:	100d883a 	mov	r6,r2
   20920:	00209680 	call	20968 <___vfprintf_internal_r>
   20924:	dfc00017 	ldw	ra,0(sp)
   20928:	dec00304 	addi	sp,sp,12
   2092c:	f800283a 	ret

00020930 <printf>:
   20930:	defffc04 	addi	sp,sp,-16
   20934:	dfc00015 	stw	ra,0(sp)
   20938:	d9400115 	stw	r5,4(sp)
   2093c:	d9800215 	stw	r6,8(sp)
   20940:	d9c00315 	stw	r7,12(sp)
   20944:	008000f4 	movhi	r2,3
   20948:	1088cd17 	ldw	r2,9012(r2)
   2094c:	200b883a 	mov	r5,r4
   20950:	d9800104 	addi	r6,sp,4
   20954:	11000217 	ldw	r4,8(r2)
   20958:	0022cec0 	call	22cec <__vfprintf_internal>
   2095c:	dfc00017 	ldw	ra,0(sp)
   20960:	dec00404 	addi	sp,sp,16
   20964:	f800283a 	ret

00020968 <___vfprintf_internal_r>:
   20968:	deffbd04 	addi	sp,sp,-268
   2096c:	dfc04215 	stw	ra,264(sp)
   20970:	dcc03c15 	stw	r19,240(sp)
   20974:	dc003915 	stw	r16,228(sp)
   20978:	d9000515 	stw	r4,20(sp)
   2097c:	2021883a 	mov	r16,r4
   20980:	d9400415 	stw	r5,16(sp)
   20984:	3027883a 	mov	r19,r6
   20988:	d9c00715 	stw	r7,28(sp)
   2098c:	df004115 	stw	fp,260(sp)
   20990:	ddc04015 	stw	r23,256(sp)
   20994:	dd803f15 	stw	r22,252(sp)
   20998:	dd403e15 	stw	r21,248(sp)
   2099c:	dd003d15 	stw	r20,244(sp)
   209a0:	dc803b15 	stw	r18,236(sp)
   209a4:	dc403a15 	stw	r17,232(sp)
   209a8:	00258a80 	call	258a8 <_localeconv_r>
   209ac:	10800017 	ldw	r2,0(r2)
   209b0:	1009883a 	mov	r4,r2
   209b4:	d8800d15 	stw	r2,52(sp)
   209b8:	00257040 	call	25704 <strlen>
   209bc:	d8800c15 	stw	r2,48(sp)
   209c0:	80000226 	beq	r16,zero,209cc <___vfprintf_internal_r+0x64>
   209c4:	80800d17 	ldw	r2,52(r16)
   209c8:	1006a226 	beq	r2,zero,22454 <___vfprintf_internal_r+0x1aec>
   209cc:	d9400417 	ldw	r5,16(sp)
   209d0:	2880030b 	ldhu	r2,12(r5)
   209d4:	10c8000c 	andi	r3,r2,8192
   209d8:	1800071e 	bne	r3,zero,209f8 <___vfprintf_internal_r+0x90>
   209dc:	28c01917 	ldw	r3,100(r5)
   209e0:	11080014 	ori	r4,r2,8192
   209e4:	00b7ffc4 	movi	r2,-8193
   209e8:	1886703a 	and	r3,r3,r2
   209ec:	2900030d 	sth	r4,12(r5)
   209f0:	2005883a 	mov	r2,r4
   209f4:	28c01915 	stw	r3,100(r5)
   209f8:	10c0020c 	andi	r3,r2,8
   209fc:	1800f626 	beq	r3,zero,20dd8 <___vfprintf_internal_r+0x470>
   20a00:	d8c00417 	ldw	r3,16(sp)
   20a04:	18c00417 	ldw	r3,16(r3)
   20a08:	1800f326 	beq	r3,zero,20dd8 <___vfprintf_internal_r+0x470>
   20a0c:	1080068c 	andi	r2,r2,26
   20a10:	10800298 	cmpnei	r2,r2,10
   20a14:	1000f926 	beq	r2,zero,20dfc <___vfprintf_internal_r+0x494>
   20a18:	dc802904 	addi	r18,sp,164
   20a1c:	050000f4 	movhi	r20,3
   20a20:	dc801c15 	stw	r18,112(sp)
   20a24:	d8001e15 	stw	zero,120(sp)
   20a28:	d8001d15 	stw	zero,116(sp)
   20a2c:	d8000915 	stw	zero,36(sp)
   20a30:	d8000a15 	stw	zero,40(sp)
   20a34:	d8000b15 	stw	zero,44(sp)
   20a38:	9021883a 	mov	r16,r18
   20a3c:	d8000e15 	stw	zero,56(sp)
   20a40:	d8001115 	stw	zero,68(sp)
   20a44:	d8000615 	stw	zero,24(sp)
   20a48:	a5012504 	addi	r20,r20,1172
   20a4c:	98800007 	ldb	r2,0(r19)
   20a50:	1000ce26 	beq	r2,zero,20d8c <___vfprintf_internal_r+0x424>
   20a54:	9823883a 	mov	r17,r19
   20a58:	00000306 	br	20a68 <___vfprintf_internal_r+0x100>
   20a5c:	88800047 	ldb	r2,1(r17)
   20a60:	8c400044 	addi	r17,r17,1
   20a64:	10015226 	beq	r2,zero,20fb0 <___vfprintf_internal_r+0x648>
   20a68:	10800958 	cmpnei	r2,r2,37
   20a6c:	103ffb1e 	bne	r2,zero,20a5c <___vfprintf_internal_r+0xf4>
   20a70:	8cebc83a 	sub	r21,r17,r19
   20a74:	8cc1501e 	bne	r17,r19,20fb8 <___vfprintf_internal_r+0x650>
   20a78:	88800003 	ldbu	r2,0(r17)
   20a7c:	10803fcc 	andi	r2,r2,255
   20a80:	1080201c 	xori	r2,r2,128
   20a84:	10bfe004 	addi	r2,r2,-128
   20a88:	1000c026 	beq	r2,zero,20d8c <___vfprintf_internal_r+0x424>
   20a8c:	8a400047 	ldb	r9,1(r17)
   20a90:	8cc00044 	addi	r19,r17,1
   20a94:	d8001545 	stb	zero,85(sp)
   20a98:	057fffc4 	movi	r21,-1
   20a9c:	0011883a 	mov	r8,zero
   20aa0:	0019883a 	mov	r12,zero
   20aa4:	9cc00044 	addi	r19,r19,1
   20aa8:	48bff804 	addi	r2,r9,-32
   20aac:	10c01668 	cmpgeui	r3,r2,89
   20ab0:	18006c1e 	bne	r3,zero,20c64 <___vfprintf_internal_r+0x2fc>
   20ab4:	100490ba 	slli	r2,r2,2
   20ab8:	00c000b4 	movhi	r3,2
   20abc:	10c7883a 	add	r3,r2,r3
   20ac0:	1882b217 	ldw	r2,2760(r3)
   20ac4:	1000683a 	jmp	r2
   20ac8:	0002137c 	xorhi	zero,zero,2125
   20acc:	00020c64 	muli	zero,zero,2097
   20ad0:	00020c64 	muli	zero,zero,2097
   20ad4:	00021370 	cmpltui	zero,zero,2125
   20ad8:	00020c64 	muli	zero,zero,2097
   20adc:	00020c64 	muli	zero,zero,2097
   20ae0:	00020c64 	muli	zero,zero,2097
   20ae4:	00020c64 	muli	zero,zero,2097
   20ae8:	00020c64 	muli	zero,zero,2097
   20aec:	00020c64 	muli	zero,zero,2097
   20af0:	000212e4 	muli	zero,zero,2123
   20af4:	00021360 	cmpeqi	zero,zero,2125
   20af8:	00020c64 	muli	zero,zero,2097
   20afc:	000212fc 	xorhi	zero,zero,2123
   20b00:	00021308 	cmpgei	zero,zero,2124
   20b04:	00020c64 	muli	zero,zero,2097
   20b08:	00021354 	movui	zero,2125
   20b0c:	00020c2c 	andhi	zero,zero,2096
   20b10:	00020c2c 	andhi	zero,zero,2096
   20b14:	00020c2c 	andhi	zero,zero,2096
   20b18:	00020c2c 	andhi	zero,zero,2096
   20b1c:	00020c2c 	andhi	zero,zero,2096
   20b20:	00020c2c 	andhi	zero,zero,2096
   20b24:	00020c2c 	andhi	zero,zero,2096
   20b28:	00020c2c 	andhi	zero,zero,2096
   20b2c:	00020c2c 	andhi	zero,zero,2096
   20b30:	00020c64 	muli	zero,zero,2097
   20b34:	00020c64 	muli	zero,zero,2097
   20b38:	00020c64 	muli	zero,zero,2097
   20b3c:	00020c64 	muli	zero,zero,2097
   20b40:	00020c64 	muli	zero,zero,2097
   20b44:	00020c64 	muli	zero,zero,2097
   20b48:	00020c64 	muli	zero,zero,2097
   20b4c:	00020c64 	muli	zero,zero,2097
   20b50:	00020c64 	muli	zero,zero,2097
   20b54:	00020c64 	muli	zero,zero,2097
   20b58:	00020e48 	cmpgei	zero,zero,2105
   20b5c:	00021104 	movi	zero,2116
   20b60:	00020c64 	muli	zero,zero,2097
   20b64:	00021104 	movi	zero,2116
   20b68:	00020c64 	muli	zero,zero,2097
   20b6c:	00020c64 	muli	zero,zero,2097
   20b70:	00020c64 	muli	zero,zero,2097
   20b74:	00020c64 	muli	zero,zero,2097
   20b78:	000213c8 	cmpgei	zero,zero,2127
   20b7c:	00020c64 	muli	zero,zero,2097
   20b80:	00020c64 	muli	zero,zero,2097
   20b84:	00020eb0 	cmpltui	zero,zero,2106
   20b88:	00020c64 	muli	zero,zero,2097
   20b8c:	00020c64 	muli	zero,zero,2097
   20b90:	00020c64 	muli	zero,zero,2097
   20b94:	00020c64 	muli	zero,zero,2097
   20b98:	00020c64 	muli	zero,zero,2097
   20b9c:	00020ed8 	cmpnei	zero,zero,2107
   20ba0:	00020c64 	muli	zero,zero,2097
   20ba4:	00020c64 	muli	zero,zero,2097
   20ba8:	00021ee4 	muli	zero,zero,2171
   20bac:	00020c64 	muli	zero,zero,2097
   20bb0:	00020c64 	muli	zero,zero,2097
   20bb4:	00020c64 	muli	zero,zero,2097
   20bb8:	00020c64 	muli	zero,zero,2097
   20bbc:	00020c64 	muli	zero,zero,2097
   20bc0:	00020c64 	muli	zero,zero,2097
   20bc4:	00020c64 	muli	zero,zero,2097
   20bc8:	00020c64 	muli	zero,zero,2097
   20bcc:	00020c64 	muli	zero,zero,2097
   20bd0:	00020c64 	muli	zero,zero,2097
   20bd4:	000213e0 	cmpeqi	zero,zero,2127
   20bd8:	00020e4c 	andi	zero,zero,2105
   20bdc:	00021104 	movi	zero,2116
   20be0:	00021104 	movi	zero,2116
   20be4:	00021104 	movi	zero,2116
   20be8:	000213d4 	movui	zero,2127
   20bec:	00020e4c 	andi	zero,zero,2105
   20bf0:	00020c64 	muli	zero,zero,2097
   20bf4:	00020c64 	muli	zero,zero,2097
   20bf8:	000213a0 	cmpeqi	zero,zero,2126
   20bfc:	00020c64 	muli	zero,zero,2097
   20c00:	000214b8 	rdprs	zero,zero,2130
   20c04:	00020eb4 	movhi	zero,2106
   20c08:	00021480 	call	2148 <__reset-0x1deb8>
   20c0c:	00021474 	movhi	zero,2129
   20c10:	00020c64 	muli	zero,zero,2097
   20c14:	00021408 	cmpgei	zero,zero,2128
   20c18:	00020c64 	muli	zero,zero,2097
   20c1c:	00020edc 	xori	zero,zero,2107
   20c20:	00020c64 	muli	zero,zero,2097
   20c24:	00020c64 	muli	zero,zero,2097
   20c28:	00021f34 	movhi	zero,2172
   20c2c:	0011883a 	mov	r8,zero
   20c30:	48fff404 	addi	r3,r9,-48
   20c34:	400490ba 	slli	r2,r8,2
   20c38:	9a400007 	ldb	r9,0(r19)
   20c3c:	9cc00044 	addi	r19,r19,1
   20c40:	1211883a 	add	r8,r2,r8
   20c44:	4211883a 	add	r8,r8,r8
   20c48:	1a11883a 	add	r8,r3,r8
   20c4c:	48fff404 	addi	r3,r9,-48
   20c50:	188002b0 	cmpltui	r2,r3,10
   20c54:	103ff71e 	bne	r2,zero,20c34 <___vfprintf_internal_r+0x2cc>
   20c58:	48bff804 	addi	r2,r9,-32
   20c5c:	10c01668 	cmpgeui	r3,r2,89
   20c60:	183f9426 	beq	r3,zero,20ab4 <___vfprintf_internal_r+0x14c>
   20c64:	48004926 	beq	r9,zero,20d8c <___vfprintf_internal_r+0x424>
   20c68:	da401f05 	stb	r9,124(sp)
   20c6c:	d8001545 	stb	zero,85(sp)
   20c70:	02c00044 	movi	r11,1
   20c74:	07000044 	movi	fp,1
   20c78:	dd801f04 	addi	r22,sp,124
   20c7c:	602f883a 	mov	r23,r12
   20c80:	002b883a 	mov	r21,zero
   20c84:	d8000815 	stw	zero,32(sp)
   20c88:	bb80008c 	andi	r14,r23,2
   20c8c:	70000126 	beq	r14,zero,20c94 <___vfprintf_internal_r+0x32c>
   20c90:	5ac00084 	addi	r11,r11,2
   20c94:	bb40210c 	andi	r13,r23,132
   20c98:	dc401e17 	ldw	r17,120(sp)
   20c9c:	6800021e 	bne	r13,zero,20ca8 <___vfprintf_internal_r+0x340>
   20ca0:	42c7c83a 	sub	r3,r8,r11
   20ca4:	00c32a16 	blt	zero,r3,21950 <___vfprintf_internal_r+0xfe8>
   20ca8:	d8801547 	ldb	r2,85(sp)
   20cac:	10000c26 	beq	r2,zero,20ce0 <___vfprintf_internal_r+0x378>
   20cb0:	d8801d17 	ldw	r2,116(sp)
   20cb4:	d8c01544 	addi	r3,sp,85
   20cb8:	8c400044 	addi	r17,r17,1
   20cbc:	10800044 	addi	r2,r2,1
   20cc0:	80c00015 	stw	r3,0(r16)
   20cc4:	00c00044 	movi	r3,1
   20cc8:	d8801d15 	stw	r2,116(sp)
   20ccc:	80c00115 	stw	r3,4(r16)
   20cd0:	dc401e15 	stw	r17,120(sp)
   20cd4:	10800208 	cmpgei	r2,r2,8
   20cd8:	1003741e 	bne	r2,zero,21aac <___vfprintf_internal_r+0x1144>
   20cdc:	84000204 	addi	r16,r16,8
   20ce0:	70000c26 	beq	r14,zero,20d14 <___vfprintf_internal_r+0x3ac>
   20ce4:	d8801d17 	ldw	r2,116(sp)
   20ce8:	d8c01584 	addi	r3,sp,86
   20cec:	8c400084 	addi	r17,r17,2
   20cf0:	10800044 	addi	r2,r2,1
   20cf4:	80c00015 	stw	r3,0(r16)
   20cf8:	00c00084 	movi	r3,2
   20cfc:	d8801d15 	stw	r2,116(sp)
   20d00:	80c00115 	stw	r3,4(r16)
   20d04:	dc401e15 	stw	r17,120(sp)
   20d08:	10800208 	cmpgei	r2,r2,8
   20d0c:	1003791e 	bne	r2,zero,21af4 <___vfprintf_internal_r+0x118c>
   20d10:	84000204 	addi	r16,r16,8
   20d14:	6b402018 	cmpnei	r13,r13,128
   20d18:	68024226 	beq	r13,zero,21624 <___vfprintf_internal_r+0xcbc>
   20d1c:	af2bc83a 	sub	r21,r21,fp
   20d20:	05427a16 	blt	zero,r21,2170c <___vfprintf_internal_r+0xda4>
   20d24:	b880400c 	andi	r2,r23,256
   20d28:	1001ef1e 	bne	r2,zero,214e8 <___vfprintf_internal_r+0xb80>
   20d2c:	d8801d17 	ldw	r2,116(sp)
   20d30:	8f23883a 	add	r17,r17,fp
   20d34:	85800015 	stw	r22,0(r16)
   20d38:	10800044 	addi	r2,r2,1
   20d3c:	d8801d15 	stw	r2,116(sp)
   20d40:	87000115 	stw	fp,4(r16)
   20d44:	dc401e15 	stw	r17,120(sp)
   20d48:	10800208 	cmpgei	r2,r2,8
   20d4c:	10034b1e 	bne	r2,zero,21a7c <___vfprintf_internal_r+0x1114>
   20d50:	84000204 	addi	r16,r16,8
   20d54:	ba80010c 	andi	r10,r23,4
   20d58:	50000226 	beq	r10,zero,20d64 <___vfprintf_internal_r+0x3fc>
   20d5c:	42ebc83a 	sub	r21,r8,r11
   20d60:	0540ac16 	blt	zero,r21,21014 <___vfprintf_internal_r+0x6ac>
   20d64:	42c0010e 	bge	r8,r11,20d6c <___vfprintf_internal_r+0x404>
   20d68:	5811883a 	mov	r8,r11
   20d6c:	d8800617 	ldw	r2,24(sp)
   20d70:	1205883a 	add	r2,r2,r8
   20d74:	d8800615 	stw	r2,24(sp)
   20d78:	8802b41e 	bne	r17,zero,2184c <___vfprintf_internal_r+0xee4>
   20d7c:	98800007 	ldb	r2,0(r19)
   20d80:	d8001d15 	stw	zero,116(sp)
   20d84:	9021883a 	mov	r16,r18
   20d88:	103f321e 	bne	r2,zero,20a54 <___vfprintf_internal_r+0xec>
   20d8c:	d8801e17 	ldw	r2,120(sp)
   20d90:	10062a1e 	bne	r2,zero,2263c <___vfprintf_internal_r+0x1cd4>
   20d94:	d8800417 	ldw	r2,16(sp)
   20d98:	1080030b 	ldhu	r2,12(r2)
   20d9c:	1080100c 	andi	r2,r2,64
   20da0:	10074f1e 	bne	r2,zero,22ae0 <___vfprintf_internal_r+0x2178>
   20da4:	d8800617 	ldw	r2,24(sp)
   20da8:	dfc04217 	ldw	ra,264(sp)
   20dac:	df004117 	ldw	fp,260(sp)
   20db0:	ddc04017 	ldw	r23,256(sp)
   20db4:	dd803f17 	ldw	r22,252(sp)
   20db8:	dd403e17 	ldw	r21,248(sp)
   20dbc:	dd003d17 	ldw	r20,244(sp)
   20dc0:	dcc03c17 	ldw	r19,240(sp)
   20dc4:	dc803b17 	ldw	r18,236(sp)
   20dc8:	dc403a17 	ldw	r17,232(sp)
   20dcc:	dc003917 	ldw	r16,228(sp)
   20dd0:	dec04304 	addi	sp,sp,268
   20dd4:	f800283a 	ret
   20dd8:	d9400417 	ldw	r5,16(sp)
   20ddc:	d9000517 	ldw	r4,20(sp)
   20de0:	0024f5c0 	call	24f5c <__swsetup_r>
   20de4:	10073e1e 	bne	r2,zero,22ae0 <___vfprintf_internal_r+0x2178>
   20de8:	d8800417 	ldw	r2,16(sp)
   20dec:	1080030b 	ldhu	r2,12(r2)
   20df0:	1080068c 	andi	r2,r2,26
   20df4:	10800298 	cmpnei	r2,r2,10
   20df8:	103f071e 	bne	r2,zero,20a18 <___vfprintf_internal_r+0xb0>
   20dfc:	d8800417 	ldw	r2,16(sp)
   20e00:	1080038f 	ldh	r2,14(r2)
   20e04:	103f0416 	blt	r2,zero,20a18 <___vfprintf_internal_r+0xb0>
   20e08:	d9c00717 	ldw	r7,28(sp)
   20e0c:	d9400417 	ldw	r5,16(sp)
   20e10:	d9000517 	ldw	r4,20(sp)
   20e14:	980d883a 	mov	r6,r19
   20e18:	dfc04217 	ldw	ra,264(sp)
   20e1c:	df004117 	ldw	fp,260(sp)
   20e20:	ddc04017 	ldw	r23,256(sp)
   20e24:	dd803f17 	ldw	r22,252(sp)
   20e28:	dd403e17 	ldw	r21,248(sp)
   20e2c:	dd003d17 	ldw	r20,244(sp)
   20e30:	dcc03c17 	ldw	r19,240(sp)
   20e34:	dc803b17 	ldw	r18,236(sp)
   20e38:	dc403a17 	ldw	r17,232(sp)
   20e3c:	dc003917 	ldw	r16,228(sp)
   20e40:	dec04304 	addi	sp,sp,268
   20e44:	0022d081 	jmpi	22d08 <__sbprintf>
   20e48:	63000414 	ori	r12,r12,16
   20e4c:	6080080c 	andi	r2,r12,32
   20e50:	1000e926 	beq	r2,zero,211f8 <___vfprintf_internal_r+0x890>
   20e54:	d8c00717 	ldw	r3,28(sp)
   20e58:	18800117 	ldw	r2,4(r3)
   20e5c:	1c400017 	ldw	r17,0(r3)
   20e60:	18c00204 	addi	r3,r3,8
   20e64:	d8c00715 	stw	r3,28(sp)
   20e68:	1039883a 	mov	fp,r2
   20e6c:	1000f016 	blt	r2,zero,21230 <___vfprintf_internal_r+0x8c8>
   20e70:	a8bfffd8 	cmpnei	r2,r21,-1
   20e74:	d9001543 	ldbu	r4,85(sp)
   20e78:	10011126 	beq	r2,zero,212c0 <___vfprintf_internal_r+0x958>
   20e7c:	02bfdfc4 	movi	r10,-129
   20e80:	8f04b03a 	or	r2,r17,fp
   20e84:	62ae703a 	and	r23,r12,r10
   20e88:	10010c1e 	bne	r2,zero,212bc <___vfprintf_internal_r+0x954>
   20e8c:	00800044 	movi	r2,1
   20e90:	a802571e 	bne	r21,zero,217f0 <___vfprintf_internal_r+0xe88>
   20e94:	1003871e 	bne	r2,zero,21cb4 <___vfprintf_internal_r+0x134c>
   20e98:	6700004c 	andi	fp,r12,1
   20e9c:	e003e726 	beq	fp,zero,21e3c <___vfprintf_internal_r+0x14d4>
   20ea0:	00800c04 	movi	r2,48
   20ea4:	d88028c5 	stb	r2,163(sp)
   20ea8:	dd8028c4 	addi	r22,sp,163
   20eac:	00003606 	br	20f88 <___vfprintf_internal_r+0x620>
   20eb0:	63000414 	ori	r12,r12,16
   20eb4:	6080080c 	andi	r2,r12,32
   20eb8:	1000f026 	beq	r2,zero,2127c <___vfprintf_internal_r+0x914>
   20ebc:	d8c00717 	ldw	r3,28(sp)
   20ec0:	0005883a 	mov	r2,zero
   20ec4:	1c400017 	ldw	r17,0(r3)
   20ec8:	1f000117 	ldw	fp,4(r3)
   20ecc:	18c00204 	addi	r3,r3,8
   20ed0:	d8c00715 	stw	r3,28(sp)
   20ed4:	00000906 	br	20efc <___vfprintf_internal_r+0x594>
   20ed8:	63000414 	ori	r12,r12,16
   20edc:	6080080c 	andi	r2,r12,32
   20ee0:	1000da26 	beq	r2,zero,2124c <___vfprintf_internal_r+0x8e4>
   20ee4:	d8c00717 	ldw	r3,28(sp)
   20ee8:	00800044 	movi	r2,1
   20eec:	1c400017 	ldw	r17,0(r3)
   20ef0:	1f000117 	ldw	fp,4(r3)
   20ef4:	18c00204 	addi	r3,r3,8
   20ef8:	d8c00715 	stw	r3,28(sp)
   20efc:	0009883a 	mov	r4,zero
   20f00:	d9001545 	stb	r4,85(sp)
   20f04:	a8ffffe0 	cmpeqi	r3,r21,-1
   20f08:	1800051e 	bne	r3,zero,20f20 <___vfprintf_internal_r+0x5b8>
   20f0c:	02bfdfc4 	movi	r10,-129
   20f10:	8f06b03a 	or	r3,r17,fp
   20f14:	62ae703a 	and	r23,r12,r10
   20f18:	183fdd26 	beq	r3,zero,20e90 <___vfprintf_internal_r+0x528>
   20f1c:	b819883a 	mov	r12,r23
   20f20:	10c00060 	cmpeqi	r3,r2,1
   20f24:	1800e61e 	bne	r3,zero,212c0 <___vfprintf_internal_r+0x958>
   20f28:	108000a0 	cmpeqi	r2,r2,2
   20f2c:	1002371e 	bne	r2,zero,2180c <___vfprintf_internal_r+0xea4>
   20f30:	902d883a 	mov	r22,r18
   20f34:	8806d0fa 	srli	r3,r17,3
   20f38:	e00c977a 	slli	r6,fp,29
   20f3c:	e038d0fa 	srli	fp,fp,3
   20f40:	8c4001cc 	andi	r17,r17,7
   20f44:	88800c04 	addi	r2,r17,48
   20f48:	30e2b03a 	or	r17,r6,r3
   20f4c:	b0bfffc5 	stb	r2,-1(r22)
   20f50:	8f06b03a 	or	r3,r17,fp
   20f54:	b00b883a 	mov	r5,r22
   20f58:	b5bfffc4 	addi	r22,r22,-1
   20f5c:	183ff51e 	bne	r3,zero,20f34 <___vfprintf_internal_r+0x5cc>
   20f60:	60c0004c 	andi	r3,r12,1
   20f64:	18023626 	beq	r3,zero,21840 <___vfprintf_internal_r+0xed8>
   20f68:	10800c18 	cmpnei	r2,r2,48
   20f6c:	10023426 	beq	r2,zero,21840 <___vfprintf_internal_r+0xed8>
   20f70:	297fff84 	addi	r5,r5,-2
   20f74:	00800c04 	movi	r2,48
   20f78:	b0bfffc5 	stb	r2,-1(r22)
   20f7c:	9179c83a 	sub	fp,r18,r5
   20f80:	602f883a 	mov	r23,r12
   20f84:	282d883a 	mov	r22,r5
   20f88:	e017883a 	mov	r11,fp
   20f8c:	e540010e 	bge	fp,r21,20f94 <___vfprintf_internal_r+0x62c>
   20f90:	a817883a 	mov	r11,r21
   20f94:	d8000815 	stw	zero,32(sp)
   20f98:	21003fcc 	andi	r4,r4,255
   20f9c:	2100201c 	xori	r4,r4,128
   20fa0:	213fe004 	addi	r4,r4,-128
   20fa4:	203f3826 	beq	r4,zero,20c88 <___vfprintf_internal_r+0x320>
   20fa8:	5ac00044 	addi	r11,r11,1
   20fac:	003f3606 	br	20c88 <___vfprintf_internal_r+0x320>
   20fb0:	8cebc83a 	sub	r21,r17,r19
   20fb4:	8cff7526 	beq	r17,r19,20d8c <___vfprintf_internal_r+0x424>
   20fb8:	d8c01e17 	ldw	r3,120(sp)
   20fbc:	d8801d17 	ldw	r2,116(sp)
   20fc0:	84c00015 	stw	r19,0(r16)
   20fc4:	1d47883a 	add	r3,r3,r21
   20fc8:	10800044 	addi	r2,r2,1
   20fcc:	d8801d15 	stw	r2,116(sp)
   20fd0:	85400115 	stw	r21,4(r16)
   20fd4:	d8c01e15 	stw	r3,120(sp)
   20fd8:	10800208 	cmpgei	r2,r2,8
   20fdc:	1000061e 	bne	r2,zero,20ff8 <___vfprintf_internal_r+0x690>
   20fe0:	84000204 	addi	r16,r16,8
   20fe4:	d8c00617 	ldw	r3,24(sp)
   20fe8:	88800003 	ldbu	r2,0(r17)
   20fec:	1d47883a 	add	r3,r3,r21
   20ff0:	d8c00615 	stw	r3,24(sp)
   20ff4:	003ea106 	br	20a7c <___vfprintf_internal_r+0x114>
   20ff8:	d9400417 	ldw	r5,16(sp)
   20ffc:	d9000517 	ldw	r4,20(sp)
   21000:	d9801c04 	addi	r6,sp,112
   21004:	0022ec00 	call	22ec0 <__sprint_r>
   21008:	103f621e 	bne	r2,zero,20d94 <___vfprintf_internal_r+0x42c>
   2100c:	9021883a 	mov	r16,r18
   21010:	003ff406 	br	20fe4 <___vfprintf_internal_r+0x67c>
   21014:	030000f4 	movhi	r12,3
   21018:	a8c00450 	cmplti	r3,r21,17
   2101c:	d8801d17 	ldw	r2,116(sp)
   21020:	63012904 	addi	r12,r12,1188
   21024:	1800241e 	bne	r3,zero,210b8 <___vfprintf_internal_r+0x750>
   21028:	8007883a 	mov	r3,r16
   2102c:	8809883a 	mov	r4,r17
   21030:	ddc00517 	ldw	r23,20(sp)
   21034:	05800404 	movi	r22,16
   21038:	4021883a 	mov	r16,r8
   2103c:	5823883a 	mov	r17,r11
   21040:	6039883a 	mov	fp,r12
   21044:	00000406 	br	21058 <___vfprintf_internal_r+0x6f0>
   21048:	ad7ffc04 	addi	r21,r21,-16
   2104c:	a9400448 	cmpgei	r5,r21,17
   21050:	18c00204 	addi	r3,r3,8
   21054:	28001326 	beq	r5,zero,210a4 <___vfprintf_internal_r+0x73c>
   21058:	10800044 	addi	r2,r2,1
   2105c:	21000404 	addi	r4,r4,16
   21060:	1f000015 	stw	fp,0(r3)
   21064:	1d800115 	stw	r22,4(r3)
   21068:	d9001e15 	stw	r4,120(sp)
   2106c:	d8801d15 	stw	r2,116(sp)
   21070:	11400208 	cmpgei	r5,r2,8
   21074:	283ff426 	beq	r5,zero,21048 <___vfprintf_internal_r+0x6e0>
   21078:	d9400417 	ldw	r5,16(sp)
   2107c:	d9801c04 	addi	r6,sp,112
   21080:	b809883a 	mov	r4,r23
   21084:	0022ec00 	call	22ec0 <__sprint_r>
   21088:	103f421e 	bne	r2,zero,20d94 <___vfprintf_internal_r+0x42c>
   2108c:	ad7ffc04 	addi	r21,r21,-16
   21090:	a9400448 	cmpgei	r5,r21,17
   21094:	d9001e17 	ldw	r4,120(sp)
   21098:	d8801d17 	ldw	r2,116(sp)
   2109c:	9007883a 	mov	r3,r18
   210a0:	283fed1e 	bne	r5,zero,21058 <___vfprintf_internal_r+0x6f0>
   210a4:	8011883a 	mov	r8,r16
   210a8:	8817883a 	mov	r11,r17
   210ac:	1821883a 	mov	r16,r3
   210b0:	2023883a 	mov	r17,r4
   210b4:	e019883a 	mov	r12,fp
   210b8:	10800044 	addi	r2,r2,1
   210bc:	8d63883a 	add	r17,r17,r21
   210c0:	d8801d15 	stw	r2,116(sp)
   210c4:	83000015 	stw	r12,0(r16)
   210c8:	85400115 	stw	r21,4(r16)
   210cc:	dc401e15 	stw	r17,120(sp)
   210d0:	10800210 	cmplti	r2,r2,8
   210d4:	103f231e 	bne	r2,zero,20d64 <___vfprintf_internal_r+0x3fc>
   210d8:	d9400417 	ldw	r5,16(sp)
   210dc:	d9000517 	ldw	r4,20(sp)
   210e0:	d9801c04 	addi	r6,sp,112
   210e4:	dac00f15 	stw	r11,60(sp)
   210e8:	da000815 	stw	r8,32(sp)
   210ec:	0022ec00 	call	22ec0 <__sprint_r>
   210f0:	103f281e 	bne	r2,zero,20d94 <___vfprintf_internal_r+0x42c>
   210f4:	dc401e17 	ldw	r17,120(sp)
   210f8:	dac00f17 	ldw	r11,60(sp)
   210fc:	da000817 	ldw	r8,32(sp)
   21100:	003f1806 	br	20d64 <___vfprintf_internal_r+0x3fc>
   21104:	d8c00717 	ldw	r3,28(sp)
   21108:	6080020c 	andi	r2,r12,8
   2110c:	19000204 	addi	r4,r3,8
   21110:	d9001015 	stw	r4,64(sp)
   21114:	10034b1e 	bne	r2,zero,21e44 <___vfprintf_internal_r+0x14dc>
   21118:	d8800717 	ldw	r2,28(sp)
   2111c:	10c00017 	ldw	r3,0(r2)
   21120:	10800117 	ldw	r2,4(r2)
   21124:	d8c00a15 	stw	r3,40(sp)
   21128:	d8800b15 	stw	r2,44(sp)
   2112c:	ddc00b17 	ldw	r23,44(sp)
   21130:	dd800a17 	ldw	r22,40(sp)
   21134:	00a00034 	movhi	r2,32768
   21138:	10bfffc4 	addi	r2,r2,-1
   2113c:	b8a2703a 	and	r17,r23,r2
   21140:	01dffc34 	movhi	r7,32752
   21144:	01bfffc4 	movi	r6,-1
   21148:	39ffffc4 	addi	r7,r7,-1
   2114c:	b009883a 	mov	r4,r22
   21150:	880b883a 	mov	r5,r17
   21154:	da000f15 	stw	r8,60(sp)
   21158:	db000815 	stw	r12,32(sp)
   2115c:	da400715 	stw	r9,28(sp)
   21160:	002dac00 	call	2dac0 <__unorddf2>
   21164:	da400717 	ldw	r9,28(sp)
   21168:	db000817 	ldw	r12,32(sp)
   2116c:	da000f17 	ldw	r8,60(sp)
   21170:	10043c1e 	bne	r2,zero,22264 <___vfprintf_internal_r+0x18fc>
   21174:	01dffc34 	movhi	r7,32752
   21178:	01bfffc4 	movi	r6,-1
   2117c:	39ffffc4 	addi	r7,r7,-1
   21180:	b009883a 	mov	r4,r22
   21184:	880b883a 	mov	r5,r17
   21188:	002c8240 	call	2c824 <__ledf2>
   2118c:	da400717 	ldw	r9,28(sp)
   21190:	db000817 	ldw	r12,32(sp)
   21194:	da000f17 	ldw	r8,60(sp)
   21198:	0084320e 	bge	zero,r2,22264 <___vfprintf_internal_r+0x18fc>
   2119c:	000d883a 	mov	r6,zero
   211a0:	000f883a 	mov	r7,zero
   211a4:	b009883a 	mov	r4,r22
   211a8:	b80b883a 	mov	r5,r23
   211ac:	002c8240 	call	2c824 <__ledf2>
   211b0:	da400717 	ldw	r9,28(sp)
   211b4:	db000817 	ldw	r12,32(sp)
   211b8:	da000f17 	ldw	r8,60(sp)
   211bc:	10050816 	blt	r2,zero,225e0 <___vfprintf_internal_r+0x1c78>
   211c0:	d9001543 	ldbu	r4,85(sp)
   211c4:	48801210 	cmplti	r2,r9,72
   211c8:	1004ed1e 	bne	r2,zero,22580 <___vfprintf_internal_r+0x1c18>
   211cc:	058000f4 	movhi	r22,3
   211d0:	b5811504 	addi	r22,r22,1108
   211d4:	d8801017 	ldw	r2,64(sp)
   211d8:	02bfdfc4 	movi	r10,-129
   211dc:	62ae703a 	and	r23,r12,r10
   211e0:	d8800715 	stw	r2,28(sp)
   211e4:	02c000c4 	movi	r11,3
   211e8:	070000c4 	movi	fp,3
   211ec:	002b883a 	mov	r21,zero
   211f0:	d8000815 	stw	zero,32(sp)
   211f4:	003f6806 	br	20f98 <___vfprintf_internal_r+0x630>
   211f8:	d8c00717 	ldw	r3,28(sp)
   211fc:	6080040c 	andi	r2,r12,16
   21200:	1c400017 	ldw	r17,0(r3)
   21204:	1dc00104 	addi	r23,r3,4
   21208:	1000281e 	bne	r2,zero,212ac <___vfprintf_internal_r+0x944>
   2120c:	6080100c 	andi	r2,r12,64
   21210:	10002626 	beq	r2,zero,212ac <___vfprintf_internal_r+0x944>
   21214:	8c7fffcc 	andi	r17,r17,65535
   21218:	8c60001c 	xori	r17,r17,32768
   2121c:	8c600004 	addi	r17,r17,-32768
   21220:	8839d7fa 	srai	fp,r17,31
   21224:	ddc00715 	stw	r23,28(sp)
   21228:	e005883a 	mov	r2,fp
   2122c:	103f100e 	bge	r2,zero,20e70 <___vfprintf_internal_r+0x508>
   21230:	8804c03a 	cmpne	r2,r17,zero
   21234:	0739c83a 	sub	fp,zero,fp
   21238:	e0b9c83a 	sub	fp,fp,r2
   2123c:	0463c83a 	sub	r17,zero,r17
   21240:	01000b44 	movi	r4,45
   21244:	00800044 	movi	r2,1
   21248:	003f2d06 	br	20f00 <___vfprintf_internal_r+0x598>
   2124c:	d8c00717 	ldw	r3,28(sp)
   21250:	6080040c 	andi	r2,r12,16
   21254:	1c400017 	ldw	r17,0(r3)
   21258:	1dc00104 	addi	r23,r3,4
   2125c:	1000031e 	bne	r2,zero,2126c <___vfprintf_internal_r+0x904>
   21260:	6080100c 	andi	r2,r12,64
   21264:	10000126 	beq	r2,zero,2126c <___vfprintf_internal_r+0x904>
   21268:	8c7fffcc 	andi	r17,r17,65535
   2126c:	0039883a 	mov	fp,zero
   21270:	ddc00715 	stw	r23,28(sp)
   21274:	00800044 	movi	r2,1
   21278:	003f2006 	br	20efc <___vfprintf_internal_r+0x594>
   2127c:	d8c00717 	ldw	r3,28(sp)
   21280:	6080040c 	andi	r2,r12,16
   21284:	1c400017 	ldw	r17,0(r3)
   21288:	1dc00104 	addi	r23,r3,4
   2128c:	1000031e 	bne	r2,zero,2129c <___vfprintf_internal_r+0x934>
   21290:	6080100c 	andi	r2,r12,64
   21294:	10000126 	beq	r2,zero,2129c <___vfprintf_internal_r+0x934>
   21298:	8c7fffcc 	andi	r17,r17,65535
   2129c:	0039883a 	mov	fp,zero
   212a0:	ddc00715 	stw	r23,28(sp)
   212a4:	0005883a 	mov	r2,zero
   212a8:	003f1406 	br	20efc <___vfprintf_internal_r+0x594>
   212ac:	8839d7fa 	srai	fp,r17,31
   212b0:	ddc00715 	stw	r23,28(sp)
   212b4:	e005883a 	mov	r2,fp
   212b8:	003eec06 	br	20e6c <___vfprintf_internal_r+0x504>
   212bc:	b819883a 	mov	r12,r23
   212c0:	e0034c1e 	bne	fp,zero,21ff4 <___vfprintf_internal_r+0x168c>
   212c4:	888002a8 	cmpgeui	r2,r17,10
   212c8:	10034a1e 	bne	r2,zero,21ff4 <___vfprintf_internal_r+0x168c>
   212cc:	8c400c04 	addi	r17,r17,48
   212d0:	dc4028c5 	stb	r17,163(sp)
   212d4:	602f883a 	mov	r23,r12
   212d8:	07000044 	movi	fp,1
   212dc:	dd8028c4 	addi	r22,sp,163
   212e0:	003f2906 	br	20f88 <___vfprintf_internal_r+0x620>
   212e4:	d8800717 	ldw	r2,28(sp)
   212e8:	12000017 	ldw	r8,0(r2)
   212ec:	10800104 	addi	r2,r2,4
   212f0:	4002cf0e 	bge	r8,zero,21e30 <___vfprintf_internal_r+0x14c8>
   212f4:	0211c83a 	sub	r8,zero,r8
   212f8:	d8800715 	stw	r2,28(sp)
   212fc:	9a400007 	ldb	r9,0(r19)
   21300:	63000114 	ori	r12,r12,4
   21304:	003de706 	br	20aa4 <___vfprintf_internal_r+0x13c>
   21308:	9a400007 	ldb	r9,0(r19)
   2130c:	98800044 	addi	r2,r19,1
   21310:	48c00aa0 	cmpeqi	r3,r9,42
   21314:	1806581e 	bne	r3,zero,22c78 <___vfprintf_internal_r+0x2310>
   21318:	48fff404 	addi	r3,r9,-48
   2131c:	190002b0 	cmpltui	r4,r3,10
   21320:	1027883a 	mov	r19,r2
   21324:	002b883a 	mov	r21,zero
   21328:	203ddf26 	beq	r4,zero,20aa8 <___vfprintf_internal_r+0x140>
   2132c:	a80490ba 	slli	r2,r21,2
   21330:	9a400007 	ldb	r9,0(r19)
   21334:	9cc00044 	addi	r19,r19,1
   21338:	156b883a 	add	r21,r2,r21
   2133c:	ad6b883a 	add	r21,r21,r21
   21340:	a8eb883a 	add	r21,r21,r3
   21344:	48fff404 	addi	r3,r9,-48
   21348:	188002b0 	cmpltui	r2,r3,10
   2134c:	103ff71e 	bne	r2,zero,2132c <___vfprintf_internal_r+0x9c4>
   21350:	003dd506 	br	20aa8 <___vfprintf_internal_r+0x140>
   21354:	9a400007 	ldb	r9,0(r19)
   21358:	63002014 	ori	r12,r12,128
   2135c:	003dd106 	br	20aa4 <___vfprintf_internal_r+0x13c>
   21360:	00800ac4 	movi	r2,43
   21364:	9a400007 	ldb	r9,0(r19)
   21368:	d8801545 	stb	r2,85(sp)
   2136c:	003dcd06 	br	20aa4 <___vfprintf_internal_r+0x13c>
   21370:	9a400007 	ldb	r9,0(r19)
   21374:	63000054 	ori	r12,r12,1
   21378:	003dca06 	br	20aa4 <___vfprintf_internal_r+0x13c>
   2137c:	d8801547 	ldb	r2,85(sp)
   21380:	9a400003 	ldbu	r9,0(r19)
   21384:	10000c1e 	bne	r2,zero,213b8 <___vfprintf_internal_r+0xa50>
   21388:	4a403fcc 	andi	r9,r9,255
   2138c:	00800804 	movi	r2,32
   21390:	4a40201c 	xori	r9,r9,128
   21394:	d8801545 	stb	r2,85(sp)
   21398:	4a7fe004 	addi	r9,r9,-128
   2139c:	003dc106 	br	20aa4 <___vfprintf_internal_r+0x13c>
   213a0:	9a400007 	ldb	r9,0(r19)
   213a4:	48801b18 	cmpnei	r2,r9,108
   213a8:	10029f1e 	bne	r2,zero,21e28 <___vfprintf_internal_r+0x14c0>
   213ac:	9a400043 	ldbu	r9,1(r19)
   213b0:	63000814 	ori	r12,r12,32
   213b4:	9cc00044 	addi	r19,r19,1
   213b8:	4a403fcc 	andi	r9,r9,255
   213bc:	4a40201c 	xori	r9,r9,128
   213c0:	4a7fe004 	addi	r9,r9,-128
   213c4:	003db706 	br	20aa4 <___vfprintf_internal_r+0x13c>
   213c8:	9a400007 	ldb	r9,0(r19)
   213cc:	63000214 	ori	r12,r12,8
   213d0:	003db406 	br	20aa4 <___vfprintf_internal_r+0x13c>
   213d4:	9a400007 	ldb	r9,0(r19)
   213d8:	63001014 	ori	r12,r12,64
   213dc:	003db106 	br	20aa4 <___vfprintf_internal_r+0x13c>
   213e0:	d8c00717 	ldw	r3,28(sp)
   213e4:	d8001545 	stb	zero,85(sp)
   213e8:	02c00044 	movi	r11,1
   213ec:	18800017 	ldw	r2,0(r3)
   213f0:	18c00104 	addi	r3,r3,4
   213f4:	d8c00715 	stw	r3,28(sp)
   213f8:	d8801f05 	stb	r2,124(sp)
   213fc:	07000044 	movi	fp,1
   21400:	dd801f04 	addi	r22,sp,124
   21404:	003e1d06 	br	20c7c <___vfprintf_internal_r+0x314>
   21408:	d8800717 	ldw	r2,28(sp)
   2140c:	d8001545 	stb	zero,85(sp)
   21410:	15800017 	ldw	r22,0(r2)
   21414:	15c00104 	addi	r23,r2,4
   21418:	b002ca26 	beq	r22,zero,21f44 <___vfprintf_internal_r+0x15dc>
   2141c:	da000f15 	stw	r8,60(sp)
   21420:	db000815 	stw	r12,32(sp)
   21424:	da400715 	stw	r9,28(sp)
   21428:	a8bfffe0 	cmpeqi	r2,r21,-1
   2142c:	10031e1e 	bne	r2,zero,220a8 <___vfprintf_internal_r+0x1740>
   21430:	a80d883a 	mov	r6,r21
   21434:	000b883a 	mov	r5,zero
   21438:	b009883a 	mov	r4,r22
   2143c:	00252a00 	call	252a0 <memchr>
   21440:	da400717 	ldw	r9,28(sp)
   21444:	db000817 	ldw	r12,32(sp)
   21448:	da000f17 	ldw	r8,60(sp)
   2144c:	10058226 	beq	r2,zero,22a58 <___vfprintf_internal_r+0x20f0>
   21450:	15b9c83a 	sub	fp,r2,r22
   21454:	d9001543 	ldbu	r4,85(sp)
   21458:	e017883a 	mov	r11,fp
   2145c:	e0031b16 	blt	fp,zero,220cc <___vfprintf_internal_r+0x1764>
   21460:	ddc00715 	stw	r23,28(sp)
   21464:	002b883a 	mov	r21,zero
   21468:	602f883a 	mov	r23,r12
   2146c:	d8000815 	stw	zero,32(sp)
   21470:	003ec906 	br	20f98 <___vfprintf_internal_r+0x630>
   21474:	9a400007 	ldb	r9,0(r19)
   21478:	63000814 	ori	r12,r12,32
   2147c:	003d8906 	br	20aa4 <___vfprintf_internal_r+0x13c>
   21480:	d8c00717 	ldw	r3,28(sp)
   21484:	009e0c04 	movi	r2,30768
   21488:	010000f4 	movhi	r4,3
   2148c:	d880158d 	sth	r2,86(sp)
   21490:	18800104 	addi	r2,r3,4
   21494:	d8800715 	stw	r2,28(sp)
   21498:	20811d04 	addi	r2,r4,1140
   2149c:	d8800e15 	stw	r2,56(sp)
   214a0:	1c400017 	ldw	r17,0(r3)
   214a4:	0039883a 	mov	fp,zero
   214a8:	63000094 	ori	r12,r12,2
   214ac:	00800084 	movi	r2,2
   214b0:	02401e04 	movi	r9,120
   214b4:	003e9106 	br	20efc <___vfprintf_internal_r+0x594>
   214b8:	6080080c 	andi	r2,r12,32
   214bc:	10026626 	beq	r2,zero,21e58 <___vfprintf_internal_r+0x14f0>
   214c0:	d9000617 	ldw	r4,24(sp)
   214c4:	d8800717 	ldw	r2,28(sp)
   214c8:	2007d7fa 	srai	r3,r4,31
   214cc:	10800017 	ldw	r2,0(r2)
   214d0:	11000015 	stw	r4,0(r2)
   214d4:	10c00115 	stw	r3,4(r2)
   214d8:	d8800717 	ldw	r2,28(sp)
   214dc:	10800104 	addi	r2,r2,4
   214e0:	d8800715 	stw	r2,28(sp)
   214e4:	003d5906 	br	20a4c <___vfprintf_internal_r+0xe4>
   214e8:	4a401990 	cmplti	r9,r9,102
   214ec:	4800dd1e 	bne	r9,zero,21864 <___vfprintf_internal_r+0xefc>
   214f0:	d9000a17 	ldw	r4,40(sp)
   214f4:	d9400b17 	ldw	r5,44(sp)
   214f8:	000d883a 	mov	r6,zero
   214fc:	000f883a 	mov	r7,zero
   21500:	dac01015 	stw	r11,64(sp)
   21504:	da000f15 	stw	r8,60(sp)
   21508:	002c6940 	call	2c694 <__eqdf2>
   2150c:	da000f17 	ldw	r8,60(sp)
   21510:	dac01017 	ldw	r11,64(sp)
   21514:	1001871e 	bne	r2,zero,21b34 <___vfprintf_internal_r+0x11cc>
   21518:	d8801d17 	ldw	r2,116(sp)
   2151c:	00c000f4 	movhi	r3,3
   21520:	18c12404 	addi	r3,r3,1168
   21524:	10800044 	addi	r2,r2,1
   21528:	8c400044 	addi	r17,r17,1
   2152c:	80c00015 	stw	r3,0(r16)
   21530:	00c00044 	movi	r3,1
   21534:	d8801d15 	stw	r2,116(sp)
   21538:	80c00115 	stw	r3,4(r16)
   2153c:	dc401e15 	stw	r17,120(sp)
   21540:	10800208 	cmpgei	r2,r2,8
   21544:	1003aa1e 	bne	r2,zero,223f0 <___vfprintf_internal_r+0x1a88>
   21548:	84000204 	addi	r16,r16,8
   2154c:	d8801617 	ldw	r2,88(sp)
   21550:	d8c00917 	ldw	r3,36(sp)
   21554:	10c2310e 	bge	r2,r3,21e1c <___vfprintf_internal_r+0x14b4>
   21558:	d8800d17 	ldw	r2,52(sp)
   2155c:	d8c00c17 	ldw	r3,48(sp)
   21560:	80800015 	stw	r2,0(r16)
   21564:	d8801d17 	ldw	r2,116(sp)
   21568:	88e3883a 	add	r17,r17,r3
   2156c:	80c00115 	stw	r3,4(r16)
   21570:	10800044 	addi	r2,r2,1
   21574:	d8801d15 	stw	r2,116(sp)
   21578:	dc401e15 	stw	r17,120(sp)
   2157c:	10800208 	cmpgei	r2,r2,8
   21580:	10024c1e 	bne	r2,zero,21eb4 <___vfprintf_internal_r+0x154c>
   21584:	84000204 	addi	r16,r16,8
   21588:	d8800917 	ldw	r2,36(sp)
   2158c:	157fffc4 	addi	r21,r2,-1
   21590:	057df00e 	bge	zero,r21,20d54 <___vfprintf_internal_r+0x3ec>
   21594:	030000f4 	movhi	r12,3
   21598:	a8c00450 	cmplti	r3,r21,17
   2159c:	d8801d17 	ldw	r2,116(sp)
   215a0:	63012504 	addi	r12,r12,1172
   215a4:	18012d1e 	bne	r3,zero,21a5c <___vfprintf_internal_r+0x10f4>
   215a8:	8007883a 	mov	r3,r16
   215ac:	8809883a 	mov	r4,r17
   215b0:	a821883a 	mov	r16,r21
   215b4:	05800404 	movi	r22,16
   215b8:	a02b883a 	mov	r21,r20
   215bc:	4023883a 	mov	r17,r8
   215c0:	9829883a 	mov	r20,r19
   215c4:	6039883a 	mov	fp,r12
   215c8:	5827883a 	mov	r19,r11
   215cc:	00000406 	br	215e0 <___vfprintf_internal_r+0xc78>
   215d0:	18c00204 	addi	r3,r3,8
   215d4:	843ffc04 	addi	r16,r16,-16
   215d8:	81400448 	cmpgei	r5,r16,17
   215dc:	28011726 	beq	r5,zero,21a3c <___vfprintf_internal_r+0x10d4>
   215e0:	10800044 	addi	r2,r2,1
   215e4:	21000404 	addi	r4,r4,16
   215e8:	1f000015 	stw	fp,0(r3)
   215ec:	1d800115 	stw	r22,4(r3)
   215f0:	d9001e15 	stw	r4,120(sp)
   215f4:	d8801d15 	stw	r2,116(sp)
   215f8:	11400208 	cmpgei	r5,r2,8
   215fc:	283ff426 	beq	r5,zero,215d0 <___vfprintf_internal_r+0xc68>
   21600:	d9400417 	ldw	r5,16(sp)
   21604:	d9000517 	ldw	r4,20(sp)
   21608:	d9801c04 	addi	r6,sp,112
   2160c:	0022ec00 	call	22ec0 <__sprint_r>
   21610:	103de01e 	bne	r2,zero,20d94 <___vfprintf_internal_r+0x42c>
   21614:	d9001e17 	ldw	r4,120(sp)
   21618:	d8801d17 	ldw	r2,116(sp)
   2161c:	9007883a 	mov	r3,r18
   21620:	003fec06 	br	215d4 <___vfprintf_internal_r+0xc6c>
   21624:	42c7c83a 	sub	r3,r8,r11
   21628:	00fdbc0e 	bge	zero,r3,20d1c <___vfprintf_internal_r+0x3b4>
   2162c:	030000f4 	movhi	r12,3
   21630:	19000450 	cmplti	r4,r3,17
   21634:	d8801d17 	ldw	r2,116(sp)
   21638:	63012504 	addi	r12,r12,1172
   2163c:	2000281e 	bne	r4,zero,216e0 <___vfprintf_internal_r+0xd78>
   21640:	8009883a 	mov	r4,r16
   21644:	880b883a 	mov	r5,r17
   21648:	03400404 	movi	r13,16
   2164c:	da400f15 	stw	r9,60(sp)
   21650:	da001015 	stw	r8,64(sp)
   21654:	1821883a 	mov	r16,r3
   21658:	dac01215 	stw	r11,72(sp)
   2165c:	6023883a 	mov	r17,r12
   21660:	00000406 	br	21674 <___vfprintf_internal_r+0xd0c>
   21664:	843ffc04 	addi	r16,r16,-16
   21668:	81800448 	cmpgei	r6,r16,17
   2166c:	21000204 	addi	r4,r4,8
   21670:	30001426 	beq	r6,zero,216c4 <___vfprintf_internal_r+0xd5c>
   21674:	10800044 	addi	r2,r2,1
   21678:	29400404 	addi	r5,r5,16
   2167c:	24400015 	stw	r17,0(r4)
   21680:	23400115 	stw	r13,4(r4)
   21684:	d9401e15 	stw	r5,120(sp)
   21688:	d8801d15 	stw	r2,116(sp)
   2168c:	11800208 	cmpgei	r6,r2,8
   21690:	303ff426 	beq	r6,zero,21664 <___vfprintf_internal_r+0xcfc>
   21694:	d9400417 	ldw	r5,16(sp)
   21698:	d9000517 	ldw	r4,20(sp)
   2169c:	d9801c04 	addi	r6,sp,112
   216a0:	0022ec00 	call	22ec0 <__sprint_r>
   216a4:	103dbb1e 	bne	r2,zero,20d94 <___vfprintf_internal_r+0x42c>
   216a8:	843ffc04 	addi	r16,r16,-16
   216ac:	81800448 	cmpgei	r6,r16,17
   216b0:	d9401e17 	ldw	r5,120(sp)
   216b4:	d8801d17 	ldw	r2,116(sp)
   216b8:	9009883a 	mov	r4,r18
   216bc:	03400404 	movi	r13,16
   216c0:	303fec1e 	bne	r6,zero,21674 <___vfprintf_internal_r+0xd0c>
   216c4:	da400f17 	ldw	r9,60(sp)
   216c8:	da001017 	ldw	r8,64(sp)
   216cc:	dac01217 	ldw	r11,72(sp)
   216d0:	8007883a 	mov	r3,r16
   216d4:	8819883a 	mov	r12,r17
   216d8:	2021883a 	mov	r16,r4
   216dc:	2823883a 	mov	r17,r5
   216e0:	10800044 	addi	r2,r2,1
   216e4:	88e3883a 	add	r17,r17,r3
   216e8:	d8801d15 	stw	r2,116(sp)
   216ec:	83000015 	stw	r12,0(r16)
   216f0:	80c00115 	stw	r3,4(r16)
   216f4:	dc401e15 	stw	r17,120(sp)
   216f8:	10800208 	cmpgei	r2,r2,8
   216fc:	1003581e 	bne	r2,zero,22460 <___vfprintf_internal_r+0x1af8>
   21700:	af2bc83a 	sub	r21,r21,fp
   21704:	84000204 	addi	r16,r16,8
   21708:	057d860e 	bge	zero,r21,20d24 <___vfprintf_internal_r+0x3bc>
   2170c:	a8c00450 	cmplti	r3,r21,17
   21710:	d8801d17 	ldw	r2,116(sp)
   21714:	18039d1e 	bne	r3,zero,2258c <___vfprintf_internal_r+0x1c24>
   21718:	8009883a 	mov	r4,r16
   2171c:	880b883a 	mov	r5,r17
   21720:	a821883a 	mov	r16,r21
   21724:	a023883a 	mov	r17,r20
   21728:	a02b883a 	mov	r21,r20
   2172c:	00c00404 	movi	r3,16
   21730:	9829883a 	mov	r20,r19
   21734:	da400f15 	stw	r9,60(sp)
   21738:	da001015 	stw	r8,64(sp)
   2173c:	5827883a 	mov	r19,r11
   21740:	00000406 	br	21754 <___vfprintf_internal_r+0xdec>
   21744:	843ffc04 	addi	r16,r16,-16
   21748:	81800448 	cmpgei	r6,r16,17
   2174c:	21000204 	addi	r4,r4,8
   21750:	30001426 	beq	r6,zero,217a4 <___vfprintf_internal_r+0xe3c>
   21754:	10800044 	addi	r2,r2,1
   21758:	29400404 	addi	r5,r5,16
   2175c:	24400015 	stw	r17,0(r4)
   21760:	20c00115 	stw	r3,4(r4)
   21764:	d9401e15 	stw	r5,120(sp)
   21768:	d8801d15 	stw	r2,116(sp)
   2176c:	11800208 	cmpgei	r6,r2,8
   21770:	303ff426 	beq	r6,zero,21744 <___vfprintf_internal_r+0xddc>
   21774:	d9400417 	ldw	r5,16(sp)
   21778:	d9000517 	ldw	r4,20(sp)
   2177c:	d9801c04 	addi	r6,sp,112
   21780:	0022ec00 	call	22ec0 <__sprint_r>
   21784:	103d831e 	bne	r2,zero,20d94 <___vfprintf_internal_r+0x42c>
   21788:	843ffc04 	addi	r16,r16,-16
   2178c:	81800448 	cmpgei	r6,r16,17
   21790:	d9401e17 	ldw	r5,120(sp)
   21794:	d8801d17 	ldw	r2,116(sp)
   21798:	9009883a 	mov	r4,r18
   2179c:	00c00404 	movi	r3,16
   217a0:	303fec1e 	bne	r6,zero,21754 <___vfprintf_internal_r+0xdec>
   217a4:	da400f17 	ldw	r9,60(sp)
   217a8:	da001017 	ldw	r8,64(sp)
   217ac:	9817883a 	mov	r11,r19
   217b0:	a819883a 	mov	r12,r21
   217b4:	a027883a 	mov	r19,r20
   217b8:	802b883a 	mov	r21,r16
   217bc:	8829883a 	mov	r20,r17
   217c0:	2021883a 	mov	r16,r4
   217c4:	2823883a 	mov	r17,r5
   217c8:	10800044 	addi	r2,r2,1
   217cc:	8d63883a 	add	r17,r17,r21
   217d0:	d8801d15 	stw	r2,116(sp)
   217d4:	83000015 	stw	r12,0(r16)
   217d8:	85400115 	stw	r21,4(r16)
   217dc:	dc401e15 	stw	r17,120(sp)
   217e0:	10800208 	cmpgei	r2,r2,8
   217e4:	1001731e 	bne	r2,zero,21db4 <___vfprintf_internal_r+0x144c>
   217e8:	84000204 	addi	r16,r16,8
   217ec:	003d4d06 	br	20d24 <___vfprintf_internal_r+0x3bc>
   217f0:	10c00060 	cmpeqi	r3,r2,1
   217f4:	b819883a 	mov	r12,r23
   217f8:	0023883a 	mov	r17,zero
   217fc:	183eb31e 	bne	r3,zero,212cc <___vfprintf_internal_r+0x964>
   21800:	108000a0 	cmpeqi	r2,r2,2
   21804:	0039883a 	mov	fp,zero
   21808:	103dc926 	beq	r2,zero,20f30 <___vfprintf_internal_r+0x5c8>
   2180c:	d9400e17 	ldw	r5,56(sp)
   21810:	902d883a 	mov	r22,r18
   21814:	888003cc 	andi	r2,r17,15
   21818:	e006973a 	slli	r3,fp,28
   2181c:	8822d13a 	srli	r17,r17,4
   21820:	2885883a 	add	r2,r5,r2
   21824:	10800003 	ldbu	r2,0(r2)
   21828:	e038d13a 	srli	fp,fp,4
   2182c:	1c62b03a 	or	r17,r3,r17
   21830:	b0bfffc5 	stb	r2,-1(r22)
   21834:	8f04b03a 	or	r2,r17,fp
   21838:	b5bfffc4 	addi	r22,r22,-1
   2183c:	103ff51e 	bne	r2,zero,21814 <___vfprintf_internal_r+0xeac>
   21840:	95b9c83a 	sub	fp,r18,r22
   21844:	602f883a 	mov	r23,r12
   21848:	003dcf06 	br	20f88 <___vfprintf_internal_r+0x620>
   2184c:	d9400417 	ldw	r5,16(sp)
   21850:	d9000517 	ldw	r4,20(sp)
   21854:	d9801c04 	addi	r6,sp,112
   21858:	0022ec00 	call	22ec0 <__sprint_r>
   2185c:	103d4726 	beq	r2,zero,20d7c <___vfprintf_internal_r+0x414>
   21860:	003d4c06 	br	20d94 <___vfprintf_internal_r+0x42c>
   21864:	d8800917 	ldw	r2,36(sp)
   21868:	dd401d17 	ldw	r21,116(sp)
   2186c:	8c400044 	addi	r17,r17,1
   21870:	10800088 	cmpgei	r2,r2,2
   21874:	ad400044 	addi	r21,r21,1
   21878:	87000204 	addi	fp,r16,8
   2187c:	10011026 	beq	r2,zero,21cc0 <___vfprintf_internal_r+0x1358>
   21880:	00800044 	movi	r2,1
   21884:	80800115 	stw	r2,4(r16)
   21888:	85800015 	stw	r22,0(r16)
   2188c:	dc401e15 	stw	r17,120(sp)
   21890:	dd401d15 	stw	r21,116(sp)
   21894:	a8800210 	cmplti	r2,r21,8
   21898:	10021e26 	beq	r2,zero,22114 <___vfprintf_internal_r+0x17ac>
   2189c:	d8800c17 	ldw	r2,48(sp)
   218a0:	d8c00d17 	ldw	r3,52(sp)
   218a4:	ad400044 	addi	r21,r21,1
   218a8:	88a3883a 	add	r17,r17,r2
   218ac:	e0800115 	stw	r2,4(fp)
   218b0:	e0c00015 	stw	r3,0(fp)
   218b4:	dc401e15 	stw	r17,120(sp)
   218b8:	dd401d15 	stw	r21,116(sp)
   218bc:	a8800208 	cmpgei	r2,r21,8
   218c0:	1002211e 	bne	r2,zero,22148 <___vfprintf_internal_r+0x17e0>
   218c4:	e7000204 	addi	fp,fp,8
   218c8:	d9000a17 	ldw	r4,40(sp)
   218cc:	d9400b17 	ldw	r5,44(sp)
   218d0:	000d883a 	mov	r6,zero
   218d4:	000f883a 	mov	r7,zero
   218d8:	dac00f15 	stw	r11,60(sp)
   218dc:	da000815 	stw	r8,32(sp)
   218e0:	002c6940 	call	2c694 <__eqdf2>
   218e4:	d8c00917 	ldw	r3,36(sp)
   218e8:	da000817 	ldw	r8,32(sp)
   218ec:	dac00f17 	ldw	r11,60(sp)
   218f0:	1c3fffc4 	addi	r16,r3,-1
   218f4:	10010826 	beq	r2,zero,21d18 <___vfprintf_internal_r+0x13b0>
   218f8:	b5800044 	addi	r22,r22,1
   218fc:	ad400044 	addi	r21,r21,1
   21900:	8c23883a 	add	r17,r17,r16
   21904:	e5800015 	stw	r22,0(fp)
   21908:	e4000115 	stw	r16,4(fp)
   2190c:	dc401e15 	stw	r17,120(sp)
   21910:	dd401d15 	stw	r21,116(sp)
   21914:	a8800208 	cmpgei	r2,r21,8
   21918:	1002c11e 	bne	r2,zero,22420 <___vfprintf_internal_r+0x1ab8>
   2191c:	e7000204 	addi	fp,fp,8
   21920:	d8c01117 	ldw	r3,68(sp)
   21924:	ad400044 	addi	r21,r21,1
   21928:	d8801804 	addi	r2,sp,96
   2192c:	1c63883a 	add	r17,r3,r17
   21930:	dd401d15 	stw	r21,116(sp)
   21934:	e0800015 	stw	r2,0(fp)
   21938:	e0c00115 	stw	r3,4(fp)
   2193c:	dc401e15 	stw	r17,120(sp)
   21940:	ad400208 	cmpgei	r21,r21,8
   21944:	a801291e 	bne	r21,zero,21dec <___vfprintf_internal_r+0x1484>
   21948:	e4000204 	addi	r16,fp,8
   2194c:	003d0106 	br	20d54 <___vfprintf_internal_r+0x3ec>
   21950:	030000f4 	movhi	r12,3
   21954:	19000450 	cmplti	r4,r3,17
   21958:	d8801d17 	ldw	r2,116(sp)
   2195c:	63012904 	addi	r12,r12,1188
   21960:	20002c1e 	bne	r4,zero,21a14 <___vfprintf_internal_r+0x10ac>
   21964:	8009883a 	mov	r4,r16
   21968:	880b883a 	mov	r5,r17
   2196c:	03c00404 	movi	r15,16
   21970:	db800f15 	stw	r14,60(sp)
   21974:	db401015 	stw	r13,64(sp)
   21978:	da401215 	stw	r9,72(sp)
   2197c:	da001315 	stw	r8,76(sp)
   21980:	1821883a 	mov	r16,r3
   21984:	dac01415 	stw	r11,80(sp)
   21988:	6023883a 	mov	r17,r12
   2198c:	00000406 	br	219a0 <___vfprintf_internal_r+0x1038>
   21990:	843ffc04 	addi	r16,r16,-16
   21994:	81800448 	cmpgei	r6,r16,17
   21998:	21000204 	addi	r4,r4,8
   2199c:	30001426 	beq	r6,zero,219f0 <___vfprintf_internal_r+0x1088>
   219a0:	10800044 	addi	r2,r2,1
   219a4:	29400404 	addi	r5,r5,16
   219a8:	24400015 	stw	r17,0(r4)
   219ac:	23c00115 	stw	r15,4(r4)
   219b0:	d9401e15 	stw	r5,120(sp)
   219b4:	d8801d15 	stw	r2,116(sp)
   219b8:	11800208 	cmpgei	r6,r2,8
   219bc:	303ff426 	beq	r6,zero,21990 <___vfprintf_internal_r+0x1028>
   219c0:	d9400417 	ldw	r5,16(sp)
   219c4:	d9000517 	ldw	r4,20(sp)
   219c8:	d9801c04 	addi	r6,sp,112
   219cc:	0022ec00 	call	22ec0 <__sprint_r>
   219d0:	103cf01e 	bne	r2,zero,20d94 <___vfprintf_internal_r+0x42c>
   219d4:	843ffc04 	addi	r16,r16,-16
   219d8:	81800448 	cmpgei	r6,r16,17
   219dc:	d9401e17 	ldw	r5,120(sp)
   219e0:	d8801d17 	ldw	r2,116(sp)
   219e4:	9009883a 	mov	r4,r18
   219e8:	03c00404 	movi	r15,16
   219ec:	303fec1e 	bne	r6,zero,219a0 <___vfprintf_internal_r+0x1038>
   219f0:	db800f17 	ldw	r14,60(sp)
   219f4:	db401017 	ldw	r13,64(sp)
   219f8:	da401217 	ldw	r9,72(sp)
   219fc:	da001317 	ldw	r8,76(sp)
   21a00:	dac01417 	ldw	r11,80(sp)
   21a04:	8007883a 	mov	r3,r16
   21a08:	8819883a 	mov	r12,r17
   21a0c:	2021883a 	mov	r16,r4
   21a10:	2823883a 	mov	r17,r5
   21a14:	10800044 	addi	r2,r2,1
   21a18:	88e3883a 	add	r17,r17,r3
   21a1c:	d8801d15 	stw	r2,116(sp)
   21a20:	83000015 	stw	r12,0(r16)
   21a24:	80c00115 	stw	r3,4(r16)
   21a28:	dc401e15 	stw	r17,120(sp)
   21a2c:	10800208 	cmpgei	r2,r2,8
   21a30:	1001fa1e 	bne	r2,zero,2221c <___vfprintf_internal_r+0x18b4>
   21a34:	84000204 	addi	r16,r16,8
   21a38:	003c9b06 	br	20ca8 <___vfprintf_internal_r+0x340>
   21a3c:	8811883a 	mov	r8,r17
   21a40:	9817883a 	mov	r11,r19
   21a44:	2023883a 	mov	r17,r4
   21a48:	a027883a 	mov	r19,r20
   21a4c:	e019883a 	mov	r12,fp
   21a50:	a829883a 	mov	r20,r21
   21a54:	802b883a 	mov	r21,r16
   21a58:	1821883a 	mov	r16,r3
   21a5c:	10800044 	addi	r2,r2,1
   21a60:	83000015 	stw	r12,0(r16)
   21a64:	85400115 	stw	r21,4(r16)
   21a68:	8d63883a 	add	r17,r17,r21
   21a6c:	d8801d15 	stw	r2,116(sp)
   21a70:	dc401e15 	stw	r17,120(sp)
   21a74:	10800208 	cmpgei	r2,r2,8
   21a78:	103cb526 	beq	r2,zero,20d50 <___vfprintf_internal_r+0x3e8>
   21a7c:	d9400417 	ldw	r5,16(sp)
   21a80:	d9000517 	ldw	r4,20(sp)
   21a84:	d9801c04 	addi	r6,sp,112
   21a88:	dac00f15 	stw	r11,60(sp)
   21a8c:	da000815 	stw	r8,32(sp)
   21a90:	0022ec00 	call	22ec0 <__sprint_r>
   21a94:	103cbf1e 	bne	r2,zero,20d94 <___vfprintf_internal_r+0x42c>
   21a98:	dc401e17 	ldw	r17,120(sp)
   21a9c:	da000817 	ldw	r8,32(sp)
   21aa0:	dac00f17 	ldw	r11,60(sp)
   21aa4:	9021883a 	mov	r16,r18
   21aa8:	003caa06 	br	20d54 <___vfprintf_internal_r+0x3ec>
   21aac:	d9400417 	ldw	r5,16(sp)
   21ab0:	d9000517 	ldw	r4,20(sp)
   21ab4:	d9801c04 	addi	r6,sp,112
   21ab8:	dac01415 	stw	r11,80(sp)
   21abc:	da001315 	stw	r8,76(sp)
   21ac0:	da401215 	stw	r9,72(sp)
   21ac4:	db401015 	stw	r13,64(sp)
   21ac8:	db800f15 	stw	r14,60(sp)
   21acc:	0022ec00 	call	22ec0 <__sprint_r>
   21ad0:	103cb01e 	bne	r2,zero,20d94 <___vfprintf_internal_r+0x42c>
   21ad4:	dc401e17 	ldw	r17,120(sp)
   21ad8:	dac01417 	ldw	r11,80(sp)
   21adc:	da001317 	ldw	r8,76(sp)
   21ae0:	da401217 	ldw	r9,72(sp)
   21ae4:	db401017 	ldw	r13,64(sp)
   21ae8:	db800f17 	ldw	r14,60(sp)
   21aec:	9021883a 	mov	r16,r18
   21af0:	003c7b06 	br	20ce0 <___vfprintf_internal_r+0x378>
   21af4:	d9400417 	ldw	r5,16(sp)
   21af8:	d9000517 	ldw	r4,20(sp)
   21afc:	d9801c04 	addi	r6,sp,112
   21b00:	dac01315 	stw	r11,76(sp)
   21b04:	da001215 	stw	r8,72(sp)
   21b08:	da401015 	stw	r9,64(sp)
   21b0c:	db400f15 	stw	r13,60(sp)
   21b10:	0022ec00 	call	22ec0 <__sprint_r>
   21b14:	103c9f1e 	bne	r2,zero,20d94 <___vfprintf_internal_r+0x42c>
   21b18:	dc401e17 	ldw	r17,120(sp)
   21b1c:	dac01317 	ldw	r11,76(sp)
   21b20:	da001217 	ldw	r8,72(sp)
   21b24:	da401017 	ldw	r9,64(sp)
   21b28:	db400f17 	ldw	r13,60(sp)
   21b2c:	9021883a 	mov	r16,r18
   21b30:	003c7806 	br	20d14 <___vfprintf_internal_r+0x3ac>
   21b34:	dd401617 	ldw	r21,88(sp)
   21b38:	0541900e 	bge	zero,r21,2217c <___vfprintf_internal_r+0x1814>
   21b3c:	d8800917 	ldw	r2,36(sp)
   21b40:	d8c00817 	ldw	r3,32(sp)
   21b44:	102b883a 	mov	r21,r2
   21b48:	1880cc16 	blt	r3,r2,21e7c <___vfprintf_internal_r+0x1514>
   21b4c:	05400a0e 	bge	zero,r21,21b78 <___vfprintf_internal_r+0x1210>
   21b50:	d8801d17 	ldw	r2,116(sp)
   21b54:	8d63883a 	add	r17,r17,r21
   21b58:	85800015 	stw	r22,0(r16)
   21b5c:	10800044 	addi	r2,r2,1
   21b60:	d8801d15 	stw	r2,116(sp)
   21b64:	85400115 	stw	r21,4(r16)
   21b68:	dc401e15 	stw	r17,120(sp)
   21b6c:	10800208 	cmpgei	r2,r2,8
   21b70:	10038a1e 	bne	r2,zero,2299c <___vfprintf_internal_r+0x2034>
   21b74:	84000204 	addi	r16,r16,8
   21b78:	a800cc16 	blt	r21,zero,21eac <___vfprintf_internal_r+0x1544>
   21b7c:	d8800817 	ldw	r2,32(sp)
   21b80:	156bc83a 	sub	r21,r2,r21
   21b84:	0540f716 	blt	zero,r21,21f64 <___vfprintf_internal_r+0x15fc>
   21b88:	d8801617 	ldw	r2,88(sp)
   21b8c:	d8c00917 	ldw	r3,36(sp)
   21b90:	10c0bd0e 	bge	r2,r3,21e88 <___vfprintf_internal_r+0x1520>
   21b94:	d8c00d17 	ldw	r3,52(sp)
   21b98:	d9000c17 	ldw	r4,48(sp)
   21b9c:	80c00015 	stw	r3,0(r16)
   21ba0:	d8c01d17 	ldw	r3,116(sp)
   21ba4:	8923883a 	add	r17,r17,r4
   21ba8:	81000115 	stw	r4,4(r16)
   21bac:	18c00044 	addi	r3,r3,1
   21bb0:	d8c01d15 	stw	r3,116(sp)
   21bb4:	dc401e15 	stw	r17,120(sp)
   21bb8:	18c00208 	cmpgei	r3,r3,8
   21bbc:	18035e1e 	bne	r3,zero,22938 <___vfprintf_internal_r+0x1fd0>
   21bc0:	84000204 	addi	r16,r16,8
   21bc4:	d8c00917 	ldw	r3,36(sp)
   21bc8:	d9000817 	ldw	r4,32(sp)
   21bcc:	1885c83a 	sub	r2,r3,r2
   21bd0:	192bc83a 	sub	r21,r3,r4
   21bd4:	1540010e 	bge	r2,r21,21bdc <___vfprintf_internal_r+0x1274>
   21bd8:	102b883a 	mov	r21,r2
   21bdc:	05400c0e 	bge	zero,r21,21c10 <___vfprintf_internal_r+0x12a8>
   21be0:	d8c00817 	ldw	r3,32(sp)
   21be4:	8d63883a 	add	r17,r17,r21
   21be8:	85400115 	stw	r21,4(r16)
   21bec:	b0ed883a 	add	r22,r22,r3
   21bf0:	d8c01d17 	ldw	r3,116(sp)
   21bf4:	85800015 	stw	r22,0(r16)
   21bf8:	dc401e15 	stw	r17,120(sp)
   21bfc:	18c00044 	addi	r3,r3,1
   21c00:	d8c01d15 	stw	r3,116(sp)
   21c04:	18c00208 	cmpgei	r3,r3,8
   21c08:	1803731e 	bne	r3,zero,229d8 <___vfprintf_internal_r+0x2070>
   21c0c:	84000204 	addi	r16,r16,8
   21c10:	a800010e 	bge	r21,zero,21c18 <___vfprintf_internal_r+0x12b0>
   21c14:	002b883a 	mov	r21,zero
   21c18:	156bc83a 	sub	r21,r2,r21
   21c1c:	057c4d0e 	bge	zero,r21,20d54 <___vfprintf_internal_r+0x3ec>
   21c20:	030000f4 	movhi	r12,3
   21c24:	a8c00450 	cmplti	r3,r21,17
   21c28:	d8801d17 	ldw	r2,116(sp)
   21c2c:	63012504 	addi	r12,r12,1172
   21c30:	183f8a1e 	bne	r3,zero,21a5c <___vfprintf_internal_r+0x10f4>
   21c34:	8007883a 	mov	r3,r16
   21c38:	8809883a 	mov	r4,r17
   21c3c:	a821883a 	mov	r16,r21
   21c40:	df000517 	ldw	fp,20(sp)
   21c44:	a02b883a 	mov	r21,r20
   21c48:	05800404 	movi	r22,16
   21c4c:	9829883a 	mov	r20,r19
   21c50:	da000815 	stw	r8,32(sp)
   21c54:	6023883a 	mov	r17,r12
   21c58:	5827883a 	mov	r19,r11
   21c5c:	00000406 	br	21c70 <___vfprintf_internal_r+0x1308>
   21c60:	18c00204 	addi	r3,r3,8
   21c64:	843ffc04 	addi	r16,r16,-16
   21c68:	81400448 	cmpgei	r5,r16,17
   21c6c:	28033f26 	beq	r5,zero,2296c <___vfprintf_internal_r+0x2004>
   21c70:	10800044 	addi	r2,r2,1
   21c74:	21000404 	addi	r4,r4,16
   21c78:	1c400015 	stw	r17,0(r3)
   21c7c:	1d800115 	stw	r22,4(r3)
   21c80:	d9001e15 	stw	r4,120(sp)
   21c84:	d8801d15 	stw	r2,116(sp)
   21c88:	11400208 	cmpgei	r5,r2,8
   21c8c:	283ff426 	beq	r5,zero,21c60 <___vfprintf_internal_r+0x12f8>
   21c90:	d9400417 	ldw	r5,16(sp)
   21c94:	d9801c04 	addi	r6,sp,112
   21c98:	e009883a 	mov	r4,fp
   21c9c:	0022ec00 	call	22ec0 <__sprint_r>
   21ca0:	103c3c1e 	bne	r2,zero,20d94 <___vfprintf_internal_r+0x42c>
   21ca4:	d9001e17 	ldw	r4,120(sp)
   21ca8:	d8801d17 	ldw	r2,116(sp)
   21cac:	9007883a 	mov	r3,r18
   21cb0:	003fec06 	br	21c64 <___vfprintf_internal_r+0x12fc>
   21cb4:	0039883a 	mov	fp,zero
   21cb8:	902d883a 	mov	r22,r18
   21cbc:	003cb206 	br	20f88 <___vfprintf_internal_r+0x620>
   21cc0:	b880004c 	andi	r2,r23,1
   21cc4:	103eee1e 	bne	r2,zero,21880 <___vfprintf_internal_r+0xf18>
   21cc8:	00800044 	movi	r2,1
   21ccc:	80800115 	stw	r2,4(r16)
   21cd0:	85800015 	stw	r22,0(r16)
   21cd4:	dc401e15 	stw	r17,120(sp)
   21cd8:	dd401d15 	stw	r21,116(sp)
   21cdc:	a8800210 	cmplti	r2,r21,8
   21ce0:	103f0f1e 	bne	r2,zero,21920 <___vfprintf_internal_r+0xfb8>
   21ce4:	d9400417 	ldw	r5,16(sp)
   21ce8:	d9000517 	ldw	r4,20(sp)
   21cec:	d9801c04 	addi	r6,sp,112
   21cf0:	dac00f15 	stw	r11,60(sp)
   21cf4:	da000815 	stw	r8,32(sp)
   21cf8:	0022ec00 	call	22ec0 <__sprint_r>
   21cfc:	103c251e 	bne	r2,zero,20d94 <___vfprintf_internal_r+0x42c>
   21d00:	dc401e17 	ldw	r17,120(sp)
   21d04:	dd401d17 	ldw	r21,116(sp)
   21d08:	dac00f17 	ldw	r11,60(sp)
   21d0c:	da000817 	ldw	r8,32(sp)
   21d10:	9039883a 	mov	fp,r18
   21d14:	003f0206 	br	21920 <___vfprintf_internal_r+0xfb8>
   21d18:	d8800917 	ldw	r2,36(sp)
   21d1c:	10800090 	cmplti	r2,r2,2
   21d20:	103eff1e 	bne	r2,zero,21920 <___vfprintf_internal_r+0xfb8>
   21d24:	d8800917 	ldw	r2,36(sp)
   21d28:	030000f4 	movhi	r12,3
   21d2c:	63012504 	addi	r12,r12,1172
   21d30:	10800490 	cmplti	r2,r2,18
   21d34:	10020e1e 	bne	r2,zero,22570 <___vfprintf_internal_r+0x1c08>
   21d38:	8809883a 	mov	r4,r17
   21d3c:	a805883a 	mov	r2,r21
   21d40:	e007883a 	mov	r3,fp
   21d44:	982b883a 	mov	r21,r19
   21d48:	a039883a 	mov	fp,r20
   21d4c:	05800404 	movi	r22,16
   21d50:	4027883a 	mov	r19,r8
   21d54:	6023883a 	mov	r17,r12
   21d58:	5829883a 	mov	r20,r11
   21d5c:	00000406 	br	21d70 <___vfprintf_internal_r+0x1408>
   21d60:	18c00204 	addi	r3,r3,8
   21d64:	843ffc04 	addi	r16,r16,-16
   21d68:	81400448 	cmpgei	r5,r16,17
   21d6c:	2801f826 	beq	r5,zero,22550 <___vfprintf_internal_r+0x1be8>
   21d70:	10800044 	addi	r2,r2,1
   21d74:	21000404 	addi	r4,r4,16
   21d78:	1c400015 	stw	r17,0(r3)
   21d7c:	1d800115 	stw	r22,4(r3)
   21d80:	d9001e15 	stw	r4,120(sp)
   21d84:	d8801d15 	stw	r2,116(sp)
   21d88:	11400208 	cmpgei	r5,r2,8
   21d8c:	283ff426 	beq	r5,zero,21d60 <___vfprintf_internal_r+0x13f8>
   21d90:	d9400417 	ldw	r5,16(sp)
   21d94:	d9000517 	ldw	r4,20(sp)
   21d98:	d9801c04 	addi	r6,sp,112
   21d9c:	0022ec00 	call	22ec0 <__sprint_r>
   21da0:	103bfc1e 	bne	r2,zero,20d94 <___vfprintf_internal_r+0x42c>
   21da4:	d9001e17 	ldw	r4,120(sp)
   21da8:	d8801d17 	ldw	r2,116(sp)
   21dac:	9007883a 	mov	r3,r18
   21db0:	003fec06 	br	21d64 <___vfprintf_internal_r+0x13fc>
   21db4:	d9400417 	ldw	r5,16(sp)
   21db8:	d9000517 	ldw	r4,20(sp)
   21dbc:	d9801c04 	addi	r6,sp,112
   21dc0:	dac01215 	stw	r11,72(sp)
   21dc4:	da001015 	stw	r8,64(sp)
   21dc8:	da400f15 	stw	r9,60(sp)
   21dcc:	0022ec00 	call	22ec0 <__sprint_r>
   21dd0:	103bf01e 	bne	r2,zero,20d94 <___vfprintf_internal_r+0x42c>
   21dd4:	dc401e17 	ldw	r17,120(sp)
   21dd8:	dac01217 	ldw	r11,72(sp)
   21ddc:	da001017 	ldw	r8,64(sp)
   21de0:	da400f17 	ldw	r9,60(sp)
   21de4:	9021883a 	mov	r16,r18
   21de8:	003bce06 	br	20d24 <___vfprintf_internal_r+0x3bc>
   21dec:	d9400417 	ldw	r5,16(sp)
   21df0:	d9000517 	ldw	r4,20(sp)
   21df4:	d9801c04 	addi	r6,sp,112
   21df8:	dac00f15 	stw	r11,60(sp)
   21dfc:	da000815 	stw	r8,32(sp)
   21e00:	0022ec00 	call	22ec0 <__sprint_r>
   21e04:	103be31e 	bne	r2,zero,20d94 <___vfprintf_internal_r+0x42c>
   21e08:	dc401e17 	ldw	r17,120(sp)
   21e0c:	dac00f17 	ldw	r11,60(sp)
   21e10:	da000817 	ldw	r8,32(sp)
   21e14:	9021883a 	mov	r16,r18
   21e18:	003bce06 	br	20d54 <___vfprintf_internal_r+0x3ec>
   21e1c:	b880004c 	andi	r2,r23,1
   21e20:	103bcc26 	beq	r2,zero,20d54 <___vfprintf_internal_r+0x3ec>
   21e24:	003dcc06 	br	21558 <___vfprintf_internal_r+0xbf0>
   21e28:	63000414 	ori	r12,r12,16
   21e2c:	003b1d06 	br	20aa4 <___vfprintf_internal_r+0x13c>
   21e30:	9a400007 	ldb	r9,0(r19)
   21e34:	d8800715 	stw	r2,28(sp)
   21e38:	003b1a06 	br	20aa4 <___vfprintf_internal_r+0x13c>
   21e3c:	902d883a 	mov	r22,r18
   21e40:	003c5106 	br	20f88 <___vfprintf_internal_r+0x620>
   21e44:	18800017 	ldw	r2,0(r3)
   21e48:	d8800a15 	stw	r2,40(sp)
   21e4c:	18800117 	ldw	r2,4(r3)
   21e50:	d8800b15 	stw	r2,44(sp)
   21e54:	003cb506 	br	2112c <___vfprintf_internal_r+0x7c4>
   21e58:	6080040c 	andi	r2,r12,16
   21e5c:	10008d1e 	bne	r2,zero,22094 <___vfprintf_internal_r+0x172c>
   21e60:	6300100c 	andi	r12,r12,64
   21e64:	60008b26 	beq	r12,zero,22094 <___vfprintf_internal_r+0x172c>
   21e68:	d8800717 	ldw	r2,28(sp)
   21e6c:	d8c00617 	ldw	r3,24(sp)
   21e70:	10800017 	ldw	r2,0(r2)
   21e74:	10c0000d 	sth	r3,0(r2)
   21e78:	003d9706 	br	214d8 <___vfprintf_internal_r+0xb70>
   21e7c:	182b883a 	mov	r21,r3
   21e80:	057f3316 	blt	zero,r21,21b50 <___vfprintf_internal_r+0x11e8>
   21e84:	003f3c06 	br	21b78 <___vfprintf_internal_r+0x1210>
   21e88:	b8c0004c 	andi	r3,r23,1
   21e8c:	183f411e 	bne	r3,zero,21b94 <___vfprintf_internal_r+0x122c>
   21e90:	d8c00917 	ldw	r3,36(sp)
   21e94:	d9000817 	ldw	r4,32(sp)
   21e98:	1885c83a 	sub	r2,r3,r2
   21e9c:	192bc83a 	sub	r21,r3,r4
   21ea0:	157f5b0e 	bge	r2,r21,21c10 <___vfprintf_internal_r+0x12a8>
   21ea4:	102b883a 	mov	r21,r2
   21ea8:	003f5906 	br	21c10 <___vfprintf_internal_r+0x12a8>
   21eac:	002b883a 	mov	r21,zero
   21eb0:	003f3206 	br	21b7c <___vfprintf_internal_r+0x1214>
   21eb4:	d9400417 	ldw	r5,16(sp)
   21eb8:	d9000517 	ldw	r4,20(sp)
   21ebc:	d9801c04 	addi	r6,sp,112
   21ec0:	dac00f15 	stw	r11,60(sp)
   21ec4:	da000815 	stw	r8,32(sp)
   21ec8:	0022ec00 	call	22ec0 <__sprint_r>
   21ecc:	103bb11e 	bne	r2,zero,20d94 <___vfprintf_internal_r+0x42c>
   21ed0:	dc401e17 	ldw	r17,120(sp)
   21ed4:	dac00f17 	ldw	r11,60(sp)
   21ed8:	da000817 	ldw	r8,32(sp)
   21edc:	9021883a 	mov	r16,r18
   21ee0:	003da906 	br	21588 <___vfprintf_internal_r+0xc20>
   21ee4:	008000f4 	movhi	r2,3
   21ee8:	10811804 	addi	r2,r2,1120
   21eec:	d8800e15 	stw	r2,56(sp)
   21ef0:	6080080c 	andi	r2,r12,32
   21ef4:	10007926 	beq	r2,zero,220dc <___vfprintf_internal_r+0x1774>
   21ef8:	d8800717 	ldw	r2,28(sp)
   21efc:	14400017 	ldw	r17,0(r2)
   21f00:	17000117 	ldw	fp,4(r2)
   21f04:	10800204 	addi	r2,r2,8
   21f08:	d8800715 	stw	r2,28(sp)
   21f0c:	6080004c 	andi	r2,r12,1
   21f10:	10007026 	beq	r2,zero,220d4 <___vfprintf_internal_r+0x176c>
   21f14:	8f04b03a 	or	r2,r17,fp
   21f18:	10006e26 	beq	r2,zero,220d4 <___vfprintf_internal_r+0x176c>
   21f1c:	00800c04 	movi	r2,48
   21f20:	d8801585 	stb	r2,86(sp)
   21f24:	da4015c5 	stb	r9,87(sp)
   21f28:	63000094 	ori	r12,r12,2
   21f2c:	00800084 	movi	r2,2
   21f30:	003bf206 	br	20efc <___vfprintf_internal_r+0x594>
   21f34:	008000f4 	movhi	r2,3
   21f38:	10811d04 	addi	r2,r2,1140
   21f3c:	d8800e15 	stw	r2,56(sp)
   21f40:	003feb06 	br	21ef0 <___vfprintf_internal_r+0x1588>
   21f44:	a88001f0 	cmpltui	r2,r21,7
   21f48:	a839883a 	mov	fp,r21
   21f4c:	1001b926 	beq	r2,zero,22634 <___vfprintf_internal_r+0x1ccc>
   21f50:	058000f4 	movhi	r22,3
   21f54:	e017883a 	mov	r11,fp
   21f58:	ddc00715 	stw	r23,28(sp)
   21f5c:	b5812204 	addi	r22,r22,1160
   21f60:	003b4606 	br	20c7c <___vfprintf_internal_r+0x314>
   21f64:	030000f4 	movhi	r12,3
   21f68:	a8c00450 	cmplti	r3,r21,17
   21f6c:	d8801d17 	ldw	r2,116(sp)
   21f70:	63012504 	addi	r12,r12,1172
   21f74:	1801901e 	bne	r3,zero,225b8 <___vfprintf_internal_r+0x1c50>
   21f78:	8007883a 	mov	r3,r16
   21f7c:	8809883a 	mov	r4,r17
   21f80:	a821883a 	mov	r16,r21
   21f84:	07000404 	movi	fp,16
   21f88:	a02b883a 	mov	r21,r20
   21f8c:	da000f15 	stw	r8,60(sp)
   21f90:	9829883a 	mov	r20,r19
   21f94:	6023883a 	mov	r17,r12
   21f98:	5827883a 	mov	r19,r11
   21f9c:	00000406 	br	21fb0 <___vfprintf_internal_r+0x1648>
   21fa0:	18c00204 	addi	r3,r3,8
   21fa4:	843ffc04 	addi	r16,r16,-16
   21fa8:	81400448 	cmpgei	r5,r16,17
   21fac:	28017a26 	beq	r5,zero,22598 <___vfprintf_internal_r+0x1c30>
   21fb0:	10800044 	addi	r2,r2,1
   21fb4:	21000404 	addi	r4,r4,16
   21fb8:	1c400015 	stw	r17,0(r3)
   21fbc:	1f000115 	stw	fp,4(r3)
   21fc0:	d9001e15 	stw	r4,120(sp)
   21fc4:	d8801d15 	stw	r2,116(sp)
   21fc8:	11400208 	cmpgei	r5,r2,8
   21fcc:	283ff426 	beq	r5,zero,21fa0 <___vfprintf_internal_r+0x1638>
   21fd0:	d9400417 	ldw	r5,16(sp)
   21fd4:	d9000517 	ldw	r4,20(sp)
   21fd8:	d9801c04 	addi	r6,sp,112
   21fdc:	0022ec00 	call	22ec0 <__sprint_r>
   21fe0:	103b6c1e 	bne	r2,zero,20d94 <___vfprintf_internal_r+0x42c>
   21fe4:	d9001e17 	ldw	r4,120(sp)
   21fe8:	d8801d17 	ldw	r2,116(sp)
   21fec:	9007883a 	mov	r3,r18
   21ff0:	003fec06 	br	21fa4 <___vfprintf_internal_r+0x163c>
   21ff4:	dc001015 	stw	r16,64(sp)
   21ff8:	982d883a 	mov	r22,r19
   21ffc:	482f883a 	mov	r23,r9
   22000:	e027883a 	mov	r19,fp
   22004:	db000815 	stw	r12,32(sp)
   22008:	a039883a 	mov	fp,r20
   2200c:	da000f15 	stw	r8,60(sp)
   22010:	9021883a 	mov	r16,r18
   22014:	2029883a 	mov	r20,r4
   22018:	8809883a 	mov	r4,r17
   2201c:	980b883a 	mov	r5,r19
   22020:	01800284 	movi	r6,10
   22024:	000f883a 	mov	r7,zero
   22028:	002af200 	call	2af20 <__umoddi3>
   2202c:	10800c04 	addi	r2,r2,48
   22030:	8809883a 	mov	r4,r17
   22034:	980b883a 	mov	r5,r19
   22038:	01800284 	movi	r6,10
   2203c:	000f883a 	mov	r7,zero
   22040:	80bfffc5 	stb	r2,-1(r16)
   22044:	002a9480 	call	2a948 <__udivdi3>
   22048:	980d883a 	mov	r6,r19
   2204c:	880f883a 	mov	r7,r17
   22050:	843fffc4 	addi	r16,r16,-1
   22054:	1023883a 	mov	r17,r2
   22058:	1827883a 	mov	r19,r3
   2205c:	303fee1e 	bne	r6,zero,22018 <___vfprintf_internal_r+0x16b0>
   22060:	39c002a8 	cmpgeui	r7,r7,10
   22064:	383fec1e 	bne	r7,zero,22018 <___vfprintf_internal_r+0x16b0>
   22068:	db000817 	ldw	r12,32(sp)
   2206c:	b027883a 	mov	r19,r22
   22070:	802d883a 	mov	r22,r16
   22074:	b813883a 	mov	r9,r23
   22078:	a009883a 	mov	r4,r20
   2207c:	da000f17 	ldw	r8,60(sp)
   22080:	e029883a 	mov	r20,fp
   22084:	dc001017 	ldw	r16,64(sp)
   22088:	95b9c83a 	sub	fp,r18,r22
   2208c:	602f883a 	mov	r23,r12
   22090:	003bbd06 	br	20f88 <___vfprintf_internal_r+0x620>
   22094:	d8800717 	ldw	r2,28(sp)
   22098:	d8c00617 	ldw	r3,24(sp)
   2209c:	10800017 	ldw	r2,0(r2)
   220a0:	10c00015 	stw	r3,0(r2)
   220a4:	003d0c06 	br	214d8 <___vfprintf_internal_r+0xb70>
   220a8:	b009883a 	mov	r4,r22
   220ac:	00257040 	call	25704 <strlen>
   220b0:	d9001543 	ldbu	r4,85(sp)
   220b4:	da400717 	ldw	r9,28(sp)
   220b8:	db000817 	ldw	r12,32(sp)
   220bc:	da000f17 	ldw	r8,60(sp)
   220c0:	1039883a 	mov	fp,r2
   220c4:	1017883a 	mov	r11,r2
   220c8:	103ce50e 	bge	r2,zero,21460 <___vfprintf_internal_r+0xaf8>
   220cc:	0017883a 	mov	r11,zero
   220d0:	003ce306 	br	21460 <___vfprintf_internal_r+0xaf8>
   220d4:	00800084 	movi	r2,2
   220d8:	003b8806 	br	20efc <___vfprintf_internal_r+0x594>
   220dc:	d8c00717 	ldw	r3,28(sp)
   220e0:	6080040c 	andi	r2,r12,16
   220e4:	1c400017 	ldw	r17,0(r3)
   220e8:	1dc00104 	addi	r23,r3,4
   220ec:	1000061e 	bne	r2,zero,22108 <___vfprintf_internal_r+0x17a0>
   220f0:	6080100c 	andi	r2,r12,64
   220f4:	10000426 	beq	r2,zero,22108 <___vfprintf_internal_r+0x17a0>
   220f8:	8c7fffcc 	andi	r17,r17,65535
   220fc:	0039883a 	mov	fp,zero
   22100:	ddc00715 	stw	r23,28(sp)
   22104:	003f8106 	br	21f0c <___vfprintf_internal_r+0x15a4>
   22108:	0039883a 	mov	fp,zero
   2210c:	ddc00715 	stw	r23,28(sp)
   22110:	003f7e06 	br	21f0c <___vfprintf_internal_r+0x15a4>
   22114:	d9400417 	ldw	r5,16(sp)
   22118:	d9000517 	ldw	r4,20(sp)
   2211c:	d9801c04 	addi	r6,sp,112
   22120:	dac00f15 	stw	r11,60(sp)
   22124:	da000815 	stw	r8,32(sp)
   22128:	0022ec00 	call	22ec0 <__sprint_r>
   2212c:	103b191e 	bne	r2,zero,20d94 <___vfprintf_internal_r+0x42c>
   22130:	dc401e17 	ldw	r17,120(sp)
   22134:	dd401d17 	ldw	r21,116(sp)
   22138:	dac00f17 	ldw	r11,60(sp)
   2213c:	da000817 	ldw	r8,32(sp)
   22140:	9039883a 	mov	fp,r18
   22144:	003dd506 	br	2189c <___vfprintf_internal_r+0xf34>
   22148:	d9400417 	ldw	r5,16(sp)
   2214c:	d9000517 	ldw	r4,20(sp)
   22150:	d9801c04 	addi	r6,sp,112
   22154:	dac00f15 	stw	r11,60(sp)
   22158:	da000815 	stw	r8,32(sp)
   2215c:	0022ec00 	call	22ec0 <__sprint_r>
   22160:	103b0c1e 	bne	r2,zero,20d94 <___vfprintf_internal_r+0x42c>
   22164:	dc401e17 	ldw	r17,120(sp)
   22168:	dd401d17 	ldw	r21,116(sp)
   2216c:	dac00f17 	ldw	r11,60(sp)
   22170:	da000817 	ldw	r8,32(sp)
   22174:	9039883a 	mov	fp,r18
   22178:	003dd306 	br	218c8 <___vfprintf_internal_r+0xf60>
   2217c:	d8801d17 	ldw	r2,116(sp)
   22180:	00c000f4 	movhi	r3,3
   22184:	18c12404 	addi	r3,r3,1168
   22188:	10800044 	addi	r2,r2,1
   2218c:	8c400044 	addi	r17,r17,1
   22190:	80c00015 	stw	r3,0(r16)
   22194:	00c00044 	movi	r3,1
   22198:	d8801d15 	stw	r2,116(sp)
   2219c:	80c00115 	stw	r3,4(r16)
   221a0:	dc401e15 	stw	r17,120(sp)
   221a4:	10800208 	cmpgei	r2,r2,8
   221a8:	1001151e 	bne	r2,zero,22600 <___vfprintf_internal_r+0x1c98>
   221ac:	84000204 	addi	r16,r16,8
   221b0:	a800b91e 	bne	r21,zero,22498 <___vfprintf_internal_r+0x1b30>
   221b4:	d8c00917 	ldw	r3,36(sp)
   221b8:	b880004c 	andi	r2,r23,1
   221bc:	10c4b03a 	or	r2,r2,r3
   221c0:	103ae426 	beq	r2,zero,20d54 <___vfprintf_internal_r+0x3ec>
   221c4:	d8800d17 	ldw	r2,52(sp)
   221c8:	d8c00c17 	ldw	r3,48(sp)
   221cc:	80800015 	stw	r2,0(r16)
   221d0:	d8801d17 	ldw	r2,116(sp)
   221d4:	1c63883a 	add	r17,r3,r17
   221d8:	80c00115 	stw	r3,4(r16)
   221dc:	10800044 	addi	r2,r2,1
   221e0:	dc401e15 	stw	r17,120(sp)
   221e4:	d8801d15 	stw	r2,116(sp)
   221e8:	10c00208 	cmpgei	r3,r2,8
   221ec:	1801181e 	bne	r3,zero,22650 <___vfprintf_internal_r+0x1ce8>
   221f0:	84000204 	addi	r16,r16,8
   221f4:	d8c00917 	ldw	r3,36(sp)
   221f8:	10800044 	addi	r2,r2,1
   221fc:	d8801d15 	stw	r2,116(sp)
   22200:	1c63883a 	add	r17,r3,r17
   22204:	85800015 	stw	r22,0(r16)
   22208:	80c00115 	stw	r3,4(r16)
   2220c:	dc401e15 	stw	r17,120(sp)
   22210:	10800208 	cmpgei	r2,r2,8
   22214:	103ace26 	beq	r2,zero,20d50 <___vfprintf_internal_r+0x3e8>
   22218:	003e1806 	br	21a7c <___vfprintf_internal_r+0x1114>
   2221c:	d9400417 	ldw	r5,16(sp)
   22220:	d9000517 	ldw	r4,20(sp)
   22224:	d9801c04 	addi	r6,sp,112
   22228:	dac01415 	stw	r11,80(sp)
   2222c:	da001315 	stw	r8,76(sp)
   22230:	da401215 	stw	r9,72(sp)
   22234:	db401015 	stw	r13,64(sp)
   22238:	db800f15 	stw	r14,60(sp)
   2223c:	0022ec00 	call	22ec0 <__sprint_r>
   22240:	103ad41e 	bne	r2,zero,20d94 <___vfprintf_internal_r+0x42c>
   22244:	dc401e17 	ldw	r17,120(sp)
   22248:	dac01417 	ldw	r11,80(sp)
   2224c:	da001317 	ldw	r8,76(sp)
   22250:	da401217 	ldw	r9,72(sp)
   22254:	db401017 	ldw	r13,64(sp)
   22258:	db800f17 	ldw	r14,60(sp)
   2225c:	9021883a 	mov	r16,r18
   22260:	003a9106 	br	20ca8 <___vfprintf_internal_r+0x340>
   22264:	d9000a17 	ldw	r4,40(sp)
   22268:	d9400b17 	ldw	r5,44(sp)
   2226c:	da000f15 	stw	r8,60(sp)
   22270:	200d883a 	mov	r6,r4
   22274:	280f883a 	mov	r7,r5
   22278:	db000815 	stw	r12,32(sp)
   2227c:	da400715 	stw	r9,28(sp)
   22280:	002dac00 	call	2dac0 <__unorddf2>
   22284:	da400717 	ldw	r9,28(sp)
   22288:	db000817 	ldw	r12,32(sp)
   2228c:	da000f17 	ldw	r8,60(sp)
   22290:	1002421e 	bne	r2,zero,22b9c <___vfprintf_internal_r+0x2234>
   22294:	00fff7c4 	movi	r3,-33
   22298:	48c6703a 	and	r3,r9,r3
   2229c:	a8bfffe0 	cmpeqi	r2,r21,-1
   222a0:	d8c00815 	stw	r3,32(sp)
   222a4:	1001ca1e 	bne	r2,zero,229d0 <___vfprintf_internal_r+0x2068>
   222a8:	188011d8 	cmpnei	r2,r3,71
   222ac:	1001b826 	beq	r2,zero,22990 <___vfprintf_internal_r+0x2028>
   222b0:	d8800b17 	ldw	r2,44(sp)
   222b4:	65c04014 	ori	r23,r12,256
   222b8:	1000cd16 	blt	r2,zero,225f0 <___vfprintf_internal_r+0x1c88>
   222bc:	dc400b17 	ldw	r17,44(sp)
   222c0:	d8000705 	stb	zero,28(sp)
   222c4:	488019a0 	cmpeqi	r2,r9,102
   222c8:	d8800f15 	stw	r2,60(sp)
   222cc:	1001721e 	bne	r2,zero,22898 <___vfprintf_internal_r+0x1f30>
   222d0:	d8800817 	ldw	r2,32(sp)
   222d4:	10801158 	cmpnei	r2,r2,69
   222d8:	1000ec26 	beq	r2,zero,2268c <___vfprintf_internal_r+0x1d24>
   222dc:	d8801a04 	addi	r2,sp,104
   222e0:	d8800315 	stw	r2,12(sp)
   222e4:	d9400a17 	ldw	r5,40(sp)
   222e8:	d8801704 	addi	r2,sp,92
   222ec:	d9000517 	ldw	r4,20(sp)
   222f0:	d8800215 	stw	r2,8(sp)
   222f4:	d8801604 	addi	r2,sp,88
   222f8:	d8800115 	stw	r2,4(sp)
   222fc:	dd400015 	stw	r21,0(sp)
   22300:	01c00084 	movi	r7,2
   22304:	880d883a 	mov	r6,r17
   22308:	da001315 	stw	r8,76(sp)
   2230c:	db001215 	stw	r12,72(sp)
   22310:	da400915 	stw	r9,36(sp)
   22314:	0025d240 	call	25d24 <_dtoa_r>
   22318:	da400917 	ldw	r9,36(sp)
   2231c:	db001217 	ldw	r12,72(sp)
   22320:	da001317 	ldw	r8,76(sp)
   22324:	48c019e0 	cmpeqi	r3,r9,103
   22328:	102d883a 	mov	r22,r2
   2232c:	1800ff26 	beq	r3,zero,2272c <___vfprintf_internal_r+0x1dc4>
   22330:	6080004c 	andi	r2,r12,1
   22334:	1000ff26 	beq	r2,zero,22734 <___vfprintf_internal_r+0x1dcc>
   22338:	b579883a 	add	fp,r22,r21
   2233c:	d9000a17 	ldw	r4,40(sp)
   22340:	000d883a 	mov	r6,zero
   22344:	000f883a 	mov	r7,zero
   22348:	880b883a 	mov	r5,r17
   2234c:	da001315 	stw	r8,76(sp)
   22350:	db001215 	stw	r12,72(sp)
   22354:	da400915 	stw	r9,36(sp)
   22358:	002c6940 	call	2c694 <__eqdf2>
   2235c:	da400917 	ldw	r9,36(sp)
   22360:	db001217 	ldw	r12,72(sp)
   22364:	da001317 	ldw	r8,76(sp)
   22368:	10023126 	beq	r2,zero,22c30 <___vfprintf_internal_r+0x22c8>
   2236c:	d8801a17 	ldw	r2,104(sp)
   22370:	1700062e 	bgeu	r2,fp,2238c <___vfprintf_internal_r+0x1a24>
   22374:	01000c04 	movi	r4,48
   22378:	10c00044 	addi	r3,r2,1
   2237c:	d8c01a15 	stw	r3,104(sp)
   22380:	11000005 	stb	r4,0(r2)
   22384:	d8801a17 	ldw	r2,104(sp)
   22388:	173ffb36 	bltu	r2,fp,22378 <___vfprintf_internal_r+0x1a10>
   2238c:	d8c00817 	ldw	r3,32(sp)
   22390:	d9c01617 	ldw	r7,88(sp)
   22394:	1585c83a 	sub	r2,r2,r22
   22398:	18c011d8 	cmpnei	r3,r3,71
   2239c:	d8800915 	stw	r2,36(sp)
   223a0:	d9c00815 	stw	r7,32(sp)
   223a4:	1800e726 	beq	r3,zero,22744 <___vfprintf_internal_r+0x1ddc>
   223a8:	d8800f17 	ldw	r2,60(sp)
   223ac:	10021a26 	beq	r2,zero,22c18 <___vfprintf_internal_r+0x22b0>
   223b0:	d8c00817 	ldw	r3,32(sp)
   223b4:	6080004c 	andi	r2,r12,1
   223b8:	1544b03a 	or	r2,r2,r21
   223bc:	00c23a0e 	bge	zero,r3,22ca8 <___vfprintf_internal_r+0x2340>
   223c0:	10021f1e 	bne	r2,zero,22c40 <___vfprintf_internal_r+0x22d8>
   223c4:	df000817 	ldw	fp,32(sp)
   223c8:	e017883a 	mov	r11,fp
   223cc:	02401984 	movi	r9,102
   223d0:	d8800707 	ldb	r2,28(sp)
   223d4:	10012b26 	beq	r2,zero,22884 <___vfprintf_internal_r+0x1f1c>
   223d8:	00800b44 	movi	r2,45
   223dc:	d8801545 	stb	r2,85(sp)
   223e0:	d8801017 	ldw	r2,64(sp)
   223e4:	002b883a 	mov	r21,zero
   223e8:	d8800715 	stw	r2,28(sp)
   223ec:	003aee06 	br	20fa8 <___vfprintf_internal_r+0x640>
   223f0:	d9400417 	ldw	r5,16(sp)
   223f4:	d9000517 	ldw	r4,20(sp)
   223f8:	d9801c04 	addi	r6,sp,112
   223fc:	dac00f15 	stw	r11,60(sp)
   22400:	da000815 	stw	r8,32(sp)
   22404:	0022ec00 	call	22ec0 <__sprint_r>
   22408:	103a621e 	bne	r2,zero,20d94 <___vfprintf_internal_r+0x42c>
   2240c:	dc401e17 	ldw	r17,120(sp)
   22410:	dac00f17 	ldw	r11,60(sp)
   22414:	da000817 	ldw	r8,32(sp)
   22418:	9021883a 	mov	r16,r18
   2241c:	003c4b06 	br	2154c <___vfprintf_internal_r+0xbe4>
   22420:	d9400417 	ldw	r5,16(sp)
   22424:	d9000517 	ldw	r4,20(sp)
   22428:	d9801c04 	addi	r6,sp,112
   2242c:	dac00f15 	stw	r11,60(sp)
   22430:	da000815 	stw	r8,32(sp)
   22434:	0022ec00 	call	22ec0 <__sprint_r>
   22438:	103a561e 	bne	r2,zero,20d94 <___vfprintf_internal_r+0x42c>
   2243c:	dc401e17 	ldw	r17,120(sp)
   22440:	dd401d17 	ldw	r21,116(sp)
   22444:	da000817 	ldw	r8,32(sp)
   22448:	dac00f17 	ldw	r11,60(sp)
   2244c:	9039883a 	mov	fp,r18
   22450:	003d3306 	br	21920 <___vfprintf_internal_r+0xfb8>
   22454:	d9000517 	ldw	r4,20(sp)
   22458:	00248740 	call	24874 <__sinit>
   2245c:	00395b06 	br	209cc <___vfprintf_internal_r+0x64>
   22460:	d9400417 	ldw	r5,16(sp)
   22464:	d9000517 	ldw	r4,20(sp)
   22468:	d9801c04 	addi	r6,sp,112
   2246c:	dac01215 	stw	r11,72(sp)
   22470:	da001015 	stw	r8,64(sp)
   22474:	da400f15 	stw	r9,60(sp)
   22478:	0022ec00 	call	22ec0 <__sprint_r>
   2247c:	103a451e 	bne	r2,zero,20d94 <___vfprintf_internal_r+0x42c>
   22480:	dc401e17 	ldw	r17,120(sp)
   22484:	dac01217 	ldw	r11,72(sp)
   22488:	da001017 	ldw	r8,64(sp)
   2248c:	da400f17 	ldw	r9,60(sp)
   22490:	9021883a 	mov	r16,r18
   22494:	003a2106 	br	20d1c <___vfprintf_internal_r+0x3b4>
   22498:	d8800d17 	ldw	r2,52(sp)
   2249c:	d8c00c17 	ldw	r3,48(sp)
   224a0:	80800015 	stw	r2,0(r16)
   224a4:	d8801d17 	ldw	r2,116(sp)
   224a8:	1c63883a 	add	r17,r3,r17
   224ac:	80c00115 	stw	r3,4(r16)
   224b0:	10800044 	addi	r2,r2,1
   224b4:	dc401e15 	stw	r17,120(sp)
   224b8:	d8801d15 	stw	r2,116(sp)
   224bc:	10c00208 	cmpgei	r3,r2,8
   224c0:	1800631e 	bne	r3,zero,22650 <___vfprintf_internal_r+0x1ce8>
   224c4:	84000204 	addi	r16,r16,8
   224c8:	a83f4a0e 	bge	r21,zero,221f4 <___vfprintf_internal_r+0x188c>
   224cc:	030000f4 	movhi	r12,3
   224d0:	a8fffc08 	cmpgei	r3,r21,-16
   224d4:	63012504 	addi	r12,r12,1172
   224d8:	056bc83a 	sub	r21,zero,r21
   224dc:	1801881e 	bne	r3,zero,22b00 <___vfprintf_internal_r+0x2198>
   224e0:	8007883a 	mov	r3,r16
   224e4:	8809883a 	mov	r4,r17
   224e8:	07000404 	movi	fp,16
   224ec:	da000815 	stw	r8,32(sp)
   224f0:	5823883a 	mov	r17,r11
   224f4:	6021883a 	mov	r16,r12
   224f8:	00000406 	br	2250c <___vfprintf_internal_r+0x1ba4>
   224fc:	18c00204 	addi	r3,r3,8
   22500:	ad7ffc04 	addi	r21,r21,-16
   22504:	a9400448 	cmpgei	r5,r21,17
   22508:	28017826 	beq	r5,zero,22aec <___vfprintf_internal_r+0x2184>
   2250c:	10800044 	addi	r2,r2,1
   22510:	21000404 	addi	r4,r4,16
   22514:	1c000015 	stw	r16,0(r3)
   22518:	1f000115 	stw	fp,4(r3)
   2251c:	d9001e15 	stw	r4,120(sp)
   22520:	d8801d15 	stw	r2,116(sp)
   22524:	11400208 	cmpgei	r5,r2,8
   22528:	283ff426 	beq	r5,zero,224fc <___vfprintf_internal_r+0x1b94>
   2252c:	d9400417 	ldw	r5,16(sp)
   22530:	d9000517 	ldw	r4,20(sp)
   22534:	d9801c04 	addi	r6,sp,112
   22538:	0022ec00 	call	22ec0 <__sprint_r>
   2253c:	103a151e 	bne	r2,zero,20d94 <___vfprintf_internal_r+0x42c>
   22540:	d9001e17 	ldw	r4,120(sp)
   22544:	d8801d17 	ldw	r2,116(sp)
   22548:	9007883a 	mov	r3,r18
   2254c:	003fec06 	br	22500 <___vfprintf_internal_r+0x1b98>
   22550:	9811883a 	mov	r8,r19
   22554:	a017883a 	mov	r11,r20
   22558:	a827883a 	mov	r19,r21
   2255c:	8819883a 	mov	r12,r17
   22560:	e029883a 	mov	r20,fp
   22564:	102b883a 	mov	r21,r2
   22568:	2023883a 	mov	r17,r4
   2256c:	1839883a 	mov	fp,r3
   22570:	ad400044 	addi	r21,r21,1
   22574:	8c23883a 	add	r17,r17,r16
   22578:	e3000015 	stw	r12,0(fp)
   2257c:	003ce206 	br	21908 <___vfprintf_internal_r+0xfa0>
   22580:	058000f4 	movhi	r22,3
   22584:	b5811404 	addi	r22,r22,1104
   22588:	003b1206 	br	211d4 <___vfprintf_internal_r+0x86c>
   2258c:	030000f4 	movhi	r12,3
   22590:	63012504 	addi	r12,r12,1172
   22594:	003c8c06 	br	217c8 <___vfprintf_internal_r+0xe60>
   22598:	da000f17 	ldw	r8,60(sp)
   2259c:	9817883a 	mov	r11,r19
   225a0:	8819883a 	mov	r12,r17
   225a4:	a027883a 	mov	r19,r20
   225a8:	2023883a 	mov	r17,r4
   225ac:	a829883a 	mov	r20,r21
   225b0:	802b883a 	mov	r21,r16
   225b4:	1821883a 	mov	r16,r3
   225b8:	10800044 	addi	r2,r2,1
   225bc:	8d63883a 	add	r17,r17,r21
   225c0:	d8801d15 	stw	r2,116(sp)
   225c4:	83000015 	stw	r12,0(r16)
   225c8:	85400115 	stw	r21,4(r16)
   225cc:	dc401e15 	stw	r17,120(sp)
   225d0:	10800208 	cmpgei	r2,r2,8
   225d4:	1000491e 	bne	r2,zero,226fc <___vfprintf_internal_r+0x1d94>
   225d8:	84000204 	addi	r16,r16,8
   225dc:	003d6a06 	br	21b88 <___vfprintf_internal_r+0x1220>
   225e0:	00800b44 	movi	r2,45
   225e4:	d8801545 	stb	r2,85(sp)
   225e8:	01000b44 	movi	r4,45
   225ec:	003af506 	br	211c4 <___vfprintf_internal_r+0x85c>
   225f0:	1460003c 	xorhi	r17,r2,32768
   225f4:	00800b44 	movi	r2,45
   225f8:	d8800705 	stb	r2,28(sp)
   225fc:	003f3106 	br	222c4 <___vfprintf_internal_r+0x195c>
   22600:	d9400417 	ldw	r5,16(sp)
   22604:	d9000517 	ldw	r4,20(sp)
   22608:	d9801c04 	addi	r6,sp,112
   2260c:	dac00f15 	stw	r11,60(sp)
   22610:	da000815 	stw	r8,32(sp)
   22614:	0022ec00 	call	22ec0 <__sprint_r>
   22618:	1039de1e 	bne	r2,zero,20d94 <___vfprintf_internal_r+0x42c>
   2261c:	dd401617 	ldw	r21,88(sp)
   22620:	dc401e17 	ldw	r17,120(sp)
   22624:	dac00f17 	ldw	r11,60(sp)
   22628:	da000817 	ldw	r8,32(sp)
   2262c:	9021883a 	mov	r16,r18
   22630:	003edf06 	br	221b0 <___vfprintf_internal_r+0x1848>
   22634:	07000184 	movi	fp,6
   22638:	003e4506 	br	21f50 <___vfprintf_internal_r+0x15e8>
   2263c:	d9400417 	ldw	r5,16(sp)
   22640:	d9000517 	ldw	r4,20(sp)
   22644:	d9801c04 	addi	r6,sp,112
   22648:	0022ec00 	call	22ec0 <__sprint_r>
   2264c:	0039d106 	br	20d94 <___vfprintf_internal_r+0x42c>
   22650:	d9400417 	ldw	r5,16(sp)
   22654:	d9000517 	ldw	r4,20(sp)
   22658:	d9801c04 	addi	r6,sp,112
   2265c:	dac00f15 	stw	r11,60(sp)
   22660:	da000815 	stw	r8,32(sp)
   22664:	0022ec00 	call	22ec0 <__sprint_r>
   22668:	1039ca1e 	bne	r2,zero,20d94 <___vfprintf_internal_r+0x42c>
   2266c:	dd401617 	ldw	r21,88(sp)
   22670:	dc401e17 	ldw	r17,120(sp)
   22674:	d8801d17 	ldw	r2,116(sp)
   22678:	dac00f17 	ldw	r11,60(sp)
   2267c:	da000817 	ldw	r8,32(sp)
   22680:	9021883a 	mov	r16,r18
   22684:	a83edb0e 	bge	r21,zero,221f4 <___vfprintf_internal_r+0x188c>
   22688:	003f9006 	br	224cc <___vfprintf_internal_r+0x1b64>
   2268c:	d8801a04 	addi	r2,sp,104
   22690:	d8800315 	stw	r2,12(sp)
   22694:	d9400a17 	ldw	r5,40(sp)
   22698:	d8801704 	addi	r2,sp,92
   2269c:	d9000517 	ldw	r4,20(sp)
   226a0:	a8c00044 	addi	r3,r21,1
   226a4:	d8800215 	stw	r2,8(sp)
   226a8:	d8801604 	addi	r2,sp,88
   226ac:	d8800115 	stw	r2,4(sp)
   226b0:	d8c00015 	stw	r3,0(sp)
   226b4:	01c00084 	movi	r7,2
   226b8:	880d883a 	mov	r6,r17
   226bc:	da001415 	stw	r8,80(sp)
   226c0:	db001315 	stw	r12,76(sp)
   226c4:	da401215 	stw	r9,72(sp)
   226c8:	d8c00915 	stw	r3,36(sp)
   226cc:	0025d240 	call	25d24 <_dtoa_r>
   226d0:	da401217 	ldw	r9,72(sp)
   226d4:	db001317 	ldw	r12,76(sp)
   226d8:	da001417 	ldw	r8,80(sp)
   226dc:	102d883a 	mov	r22,r2
   226e0:	488011d8 	cmpnei	r2,r9,71
   226e4:	10013c1e 	bne	r2,zero,22bd8 <___vfprintf_internal_r+0x2270>
   226e8:	6080004c 	andi	r2,r12,1
   226ec:	10001126 	beq	r2,zero,22734 <___vfprintf_internal_r+0x1dcc>
   226f0:	d8800917 	ldw	r2,36(sp)
   226f4:	b0b9883a 	add	fp,r22,r2
   226f8:	003f1006 	br	2233c <___vfprintf_internal_r+0x19d4>
   226fc:	d9400417 	ldw	r5,16(sp)
   22700:	d9000517 	ldw	r4,20(sp)
   22704:	d9801c04 	addi	r6,sp,112
   22708:	dac01015 	stw	r11,64(sp)
   2270c:	da000f15 	stw	r8,60(sp)
   22710:	0022ec00 	call	22ec0 <__sprint_r>
   22714:	10399f1e 	bne	r2,zero,20d94 <___vfprintf_internal_r+0x42c>
   22718:	dc401e17 	ldw	r17,120(sp)
   2271c:	dac01017 	ldw	r11,64(sp)
   22720:	da000f17 	ldw	r8,60(sp)
   22724:	9021883a 	mov	r16,r18
   22728:	003d1706 	br	21b88 <___vfprintf_internal_r+0x1220>
   2272c:	dd400915 	stw	r21,36(sp)
   22730:	003feb06 	br	226e0 <___vfprintf_internal_r+0x1d78>
   22734:	d8801a17 	ldw	r2,104(sp)
   22738:	d9c01617 	ldw	r7,88(sp)
   2273c:	1585c83a 	sub	r2,r2,r22
   22740:	d8800915 	stw	r2,36(sp)
   22744:	38bfff48 	cmpgei	r2,r7,-3
   22748:	d9c00815 	stw	r7,32(sp)
   2274c:	1000b11e 	bne	r2,zero,22a14 <___vfprintf_internal_r+0x20ac>
   22750:	4a7fff84 	addi	r9,r9,-2
   22754:	393fffc4 	addi	r4,r7,-1
   22758:	4805883a 	mov	r2,r9
   2275c:	00c00044 	movi	r3,1
   22760:	19ebc83a 	sub	r21,r3,r7
   22764:	00c00b44 	movi	r3,45
   22768:	18c03fcc 	andi	r3,r3,255
   2276c:	1806923a 	slli	r3,r3,8
   22770:	10803fcc 	andi	r2,r2,255
   22774:	d9001615 	stw	r4,88(sp)
   22778:	10c4b03a 	or	r2,r2,r3
   2277c:	d880180d 	sth	r2,96(sp)
   22780:	a8800290 	cmplti	r2,r21,10
   22784:	1000bc1e 	bne	r2,zero,22a78 <___vfprintf_internal_r+0x2110>
   22788:	df001bc4 	addi	fp,sp,111
   2278c:	e023883a 	mov	r17,fp
   22790:	da400815 	stw	r9,32(sp)
   22794:	a039883a 	mov	fp,r20
   22798:	db000f15 	stw	r12,60(sp)
   2279c:	8029883a 	mov	r20,r16
   227a0:	da001115 	stw	r8,68(sp)
   227a4:	a821883a 	mov	r16,r21
   227a8:	982b883a 	mov	r21,r19
   227ac:	8009883a 	mov	r4,r16
   227b0:	01400284 	movi	r5,10
   227b4:	00207cc0 	call	207cc <__modsi3>
   227b8:	10800c04 	addi	r2,r2,48
   227bc:	8009883a 	mov	r4,r16
   227c0:	88bfffc5 	stb	r2,-1(r17)
   227c4:	01400284 	movi	r5,10
   227c8:	002074c0 	call	2074c <__divsi3>
   227cc:	81401908 	cmpgei	r5,r16,100
   227d0:	8827883a 	mov	r19,r17
   227d4:	1021883a 	mov	r16,r2
   227d8:	8c7fffc4 	addi	r17,r17,-1
   227dc:	283ff31e 	bne	r5,zero,227ac <___vfprintf_internal_r+0x1e44>
   227e0:	e005883a 	mov	r2,fp
   227e4:	8839883a 	mov	fp,r17
   227e8:	9823883a 	mov	r17,r19
   227ec:	a827883a 	mov	r19,r21
   227f0:	802b883a 	mov	r21,r16
   227f4:	ad400c04 	addi	r21,r21,48
   227f8:	a021883a 	mov	r16,r20
   227fc:	e57fffc5 	stb	r21,-1(fp)
   22800:	1029883a 	mov	r20,r2
   22804:	d8c01bc4 	addi	r3,sp,111
   22808:	88bfff84 	addi	r2,r17,-2
   2280c:	da400817 	ldw	r9,32(sp)
   22810:	db000f17 	ldw	r12,60(sp)
   22814:	da001117 	ldw	r8,68(sp)
   22818:	10c1312e 	bgeu	r2,r3,22ce0 <___vfprintf_internal_r+0x2378>
   2281c:	d8c01884 	addi	r3,sp,98
   22820:	11000003 	ldbu	r4,0(r2)
   22824:	10800044 	addi	r2,r2,1
   22828:	18c00044 	addi	r3,r3,1
   2282c:	193fffc5 	stb	r4,-1(r3)
   22830:	d9001bc4 	addi	r4,sp,111
   22834:	113ffa1e 	bne	r2,r4,22820 <___vfprintf_internal_r+0x1eb8>
   22838:	d8801c44 	addi	r2,sp,113
   2283c:	d8c01884 	addi	r3,sp,98
   22840:	1445c83a 	sub	r2,r2,r17
   22844:	1885883a 	add	r2,r3,r2
   22848:	d8c01804 	addi	r3,sp,96
   2284c:	10c5c83a 	sub	r2,r2,r3
   22850:	d8801115 	stw	r2,68(sp)
   22854:	d8c00917 	ldw	r3,36(sp)
   22858:	d9001117 	ldw	r4,68(sp)
   2285c:	18800088 	cmpgei	r2,r3,2
   22860:	1939883a 	add	fp,r3,r4
   22864:	10008b26 	beq	r2,zero,22a94 <___vfprintf_internal_r+0x212c>
   22868:	d8800c17 	ldw	r2,48(sp)
   2286c:	e0b9883a 	add	fp,fp,r2
   22870:	e017883a 	mov	r11,fp
   22874:	e000010e 	bge	fp,zero,2287c <___vfprintf_internal_r+0x1f14>
   22878:	0017883a 	mov	r11,zero
   2287c:	d8000815 	stw	zero,32(sp)
   22880:	003ed306 	br	223d0 <___vfprintf_internal_r+0x1a68>
   22884:	d8801017 	ldw	r2,64(sp)
   22888:	d9001543 	ldbu	r4,85(sp)
   2288c:	002b883a 	mov	r21,zero
   22890:	d8800715 	stw	r2,28(sp)
   22894:	0039c006 	br	20f98 <___vfprintf_internal_r+0x630>
   22898:	d8801a04 	addi	r2,sp,104
   2289c:	d8800315 	stw	r2,12(sp)
   228a0:	d9400a17 	ldw	r5,40(sp)
   228a4:	d8801704 	addi	r2,sp,92
   228a8:	d9000517 	ldw	r4,20(sp)
   228ac:	d8800215 	stw	r2,8(sp)
   228b0:	d8801604 	addi	r2,sp,88
   228b4:	d8800115 	stw	r2,4(sp)
   228b8:	dd400015 	stw	r21,0(sp)
   228bc:	01c000c4 	movi	r7,3
   228c0:	880d883a 	mov	r6,r17
   228c4:	da001315 	stw	r8,76(sp)
   228c8:	db001215 	stw	r12,72(sp)
   228cc:	da400915 	stw	r9,36(sp)
   228d0:	0025d240 	call	25d24 <_dtoa_r>
   228d4:	102d883a 	mov	r22,r2
   228d8:	10800007 	ldb	r2,0(r2)
   228dc:	da400917 	ldw	r9,36(sp)
   228e0:	db001217 	ldw	r12,72(sp)
   228e4:	10800c20 	cmpeqi	r2,r2,48
   228e8:	da001317 	ldw	r8,76(sp)
   228ec:	10009b1e 	bne	r2,zero,22b5c <___vfprintf_internal_r+0x21f4>
   228f0:	d8801617 	ldw	r2,88(sp)
   228f4:	d9000a17 	ldw	r4,40(sp)
   228f8:	880b883a 	mov	r5,r17
   228fc:	000d883a 	mov	r6,zero
   22900:	000f883a 	mov	r7,zero
   22904:	da001315 	stw	r8,76(sp)
   22908:	db001215 	stw	r12,72(sp)
   2290c:	da400915 	stw	r9,36(sp)
   22910:	1563883a 	add	r17,r2,r21
   22914:	002c6940 	call	2c694 <__eqdf2>
   22918:	da400917 	ldw	r9,36(sp)
   2291c:	db001217 	ldw	r12,72(sp)
   22920:	da001317 	ldw	r8,76(sp)
   22924:	10008b1e 	bne	r2,zero,22b54 <___vfprintf_internal_r+0x21ec>
   22928:	d8801617 	ldw	r2,88(sp)
   2292c:	dc400915 	stw	r17,36(sp)
   22930:	d8800815 	stw	r2,32(sp)
   22934:	003e9e06 	br	223b0 <___vfprintf_internal_r+0x1a48>
   22938:	d9400417 	ldw	r5,16(sp)
   2293c:	d9000517 	ldw	r4,20(sp)
   22940:	d9801c04 	addi	r6,sp,112
   22944:	dac01015 	stw	r11,64(sp)
   22948:	da000f15 	stw	r8,60(sp)
   2294c:	0022ec00 	call	22ec0 <__sprint_r>
   22950:	1039101e 	bne	r2,zero,20d94 <___vfprintf_internal_r+0x42c>
   22954:	d8801617 	ldw	r2,88(sp)
   22958:	dc401e17 	ldw	r17,120(sp)
   2295c:	dac01017 	ldw	r11,64(sp)
   22960:	da000f17 	ldw	r8,60(sp)
   22964:	9021883a 	mov	r16,r18
   22968:	003c9606 	br	21bc4 <___vfprintf_internal_r+0x125c>
   2296c:	9817883a 	mov	r11,r19
   22970:	8819883a 	mov	r12,r17
   22974:	a027883a 	mov	r19,r20
   22978:	da000817 	ldw	r8,32(sp)
   2297c:	a829883a 	mov	r20,r21
   22980:	2023883a 	mov	r17,r4
   22984:	802b883a 	mov	r21,r16
   22988:	1821883a 	mov	r16,r3
   2298c:	003c3306 	br	21a5c <___vfprintf_internal_r+0x10f4>
   22990:	a83e471e 	bne	r21,zero,222b0 <___vfprintf_internal_r+0x1948>
   22994:	05400044 	movi	r21,1
   22998:	003e4506 	br	222b0 <___vfprintf_internal_r+0x1948>
   2299c:	d9400417 	ldw	r5,16(sp)
   229a0:	d9000517 	ldw	r4,20(sp)
   229a4:	d9801c04 	addi	r6,sp,112
   229a8:	dac01015 	stw	r11,64(sp)
   229ac:	da000f15 	stw	r8,60(sp)
   229b0:	0022ec00 	call	22ec0 <__sprint_r>
   229b4:	1038f71e 	bne	r2,zero,20d94 <___vfprintf_internal_r+0x42c>
   229b8:	dc401e17 	ldw	r17,120(sp)
   229bc:	dac01017 	ldw	r11,64(sp)
   229c0:	da000f17 	ldw	r8,60(sp)
   229c4:	9021883a 	mov	r16,r18
   229c8:	a83c6c0e 	bge	r21,zero,21b7c <___vfprintf_internal_r+0x1214>
   229cc:	003d3706 	br	21eac <___vfprintf_internal_r+0x1544>
   229d0:	05400184 	movi	r21,6
   229d4:	003e3606 	br	222b0 <___vfprintf_internal_r+0x1948>
   229d8:	d9400417 	ldw	r5,16(sp)
   229dc:	d9000517 	ldw	r4,20(sp)
   229e0:	d9801c04 	addi	r6,sp,112
   229e4:	dac00f15 	stw	r11,60(sp)
   229e8:	da000815 	stw	r8,32(sp)
   229ec:	0022ec00 	call	22ec0 <__sprint_r>
   229f0:	1038e81e 	bne	r2,zero,20d94 <___vfprintf_internal_r+0x42c>
   229f4:	d8801617 	ldw	r2,88(sp)
   229f8:	d8c00917 	ldw	r3,36(sp)
   229fc:	dc401e17 	ldw	r17,120(sp)
   22a00:	dac00f17 	ldw	r11,60(sp)
   22a04:	da000817 	ldw	r8,32(sp)
   22a08:	9021883a 	mov	r16,r18
   22a0c:	1885c83a 	sub	r2,r3,r2
   22a10:	003c7f06 	br	21c10 <___vfprintf_internal_r+0x12a8>
   22a14:	a9c0060e 	bge	r21,r7,22a30 <___vfprintf_internal_r+0x20c8>
   22a18:	4a7fff84 	addi	r9,r9,-2
   22a1c:	3d7fffc4 	addi	r21,r7,-1
   22a20:	4805883a 	mov	r2,r9
   22a24:	a809883a 	mov	r4,r21
   22a28:	00c00ac4 	movi	r3,43
   22a2c:	003f4e06 	br	22768 <___vfprintf_internal_r+0x1e00>
   22a30:	d8c00917 	ldw	r3,36(sp)
   22a34:	38c01e16 	blt	r7,r3,22ab0 <___vfprintf_internal_r+0x2148>
   22a38:	6300004c 	andi	r12,r12,1
   22a3c:	60005f1e 	bne	r12,zero,22bbc <___vfprintf_internal_r+0x2254>
   22a40:	3817883a 	mov	r11,r7
   22a44:	3800010e 	bge	r7,zero,22a4c <___vfprintf_internal_r+0x20e4>
   22a48:	0017883a 	mov	r11,zero
   22a4c:	3839883a 	mov	fp,r7
   22a50:	024019c4 	movi	r9,103
   22a54:	003e5e06 	br	223d0 <___vfprintf_internal_r+0x1a68>
   22a58:	a817883a 	mov	r11,r21
   22a5c:	a839883a 	mov	fp,r21
   22a60:	ddc00715 	stw	r23,28(sp)
   22a64:	d9001543 	ldbu	r4,85(sp)
   22a68:	602f883a 	mov	r23,r12
   22a6c:	002b883a 	mov	r21,zero
   22a70:	d8000815 	stw	zero,32(sp)
   22a74:	00394806 	br	20f98 <___vfprintf_internal_r+0x630>
   22a78:	00800c04 	movi	r2,48
   22a7c:	ad400c04 	addi	r21,r21,48
   22a80:	d8801885 	stb	r2,98(sp)
   22a84:	00800104 	movi	r2,4
   22a88:	dd4018c5 	stb	r21,99(sp)
   22a8c:	d8801115 	stw	r2,68(sp)
   22a90:	003f7006 	br	22854 <___vfprintf_internal_r+0x1eec>
   22a94:	6080004c 	andi	r2,r12,1
   22a98:	d8800815 	stw	r2,32(sp)
   22a9c:	103f721e 	bne	r2,zero,22868 <___vfprintf_internal_r+0x1f00>
   22aa0:	e017883a 	mov	r11,fp
   22aa4:	e03e4a0e 	bge	fp,zero,223d0 <___vfprintf_internal_r+0x1a68>
   22aa8:	0017883a 	mov	r11,zero
   22aac:	003e4806 	br	223d0 <___vfprintf_internal_r+0x1a68>
   22ab0:	d8800917 	ldw	r2,36(sp)
   22ab4:	d8c00c17 	ldw	r3,48(sp)
   22ab8:	10f9883a 	add	fp,r2,r3
   22abc:	d8800817 	ldw	r2,32(sp)
   22ac0:	00800316 	blt	zero,r2,22ad0 <___vfprintf_internal_r+0x2168>
   22ac4:	d8800817 	ldw	r2,32(sp)
   22ac8:	e08fc83a 	sub	r7,fp,r2
   22acc:	3f000044 	addi	fp,r7,1
   22ad0:	e017883a 	mov	r11,fp
   22ad4:	e0003e16 	blt	fp,zero,22bd0 <___vfprintf_internal_r+0x2268>
   22ad8:	024019c4 	movi	r9,103
   22adc:	003e3c06 	br	223d0 <___vfprintf_internal_r+0x1a68>
   22ae0:	00bfffc4 	movi	r2,-1
   22ae4:	d8800615 	stw	r2,24(sp)
   22ae8:	0038ae06 	br	20da4 <___vfprintf_internal_r+0x43c>
   22aec:	da000817 	ldw	r8,32(sp)
   22af0:	8817883a 	mov	r11,r17
   22af4:	8019883a 	mov	r12,r16
   22af8:	2023883a 	mov	r17,r4
   22afc:	1821883a 	mov	r16,r3
   22b00:	10800044 	addi	r2,r2,1
   22b04:	8d63883a 	add	r17,r17,r21
   22b08:	83000015 	stw	r12,0(r16)
   22b0c:	85400115 	stw	r21,4(r16)
   22b10:	dc401e15 	stw	r17,120(sp)
   22b14:	d8801d15 	stw	r2,116(sp)
   22b18:	10c00208 	cmpgei	r3,r2,8
   22b1c:	183db426 	beq	r3,zero,221f0 <___vfprintf_internal_r+0x1888>
   22b20:	d9400417 	ldw	r5,16(sp)
   22b24:	d9000517 	ldw	r4,20(sp)
   22b28:	d9801c04 	addi	r6,sp,112
   22b2c:	dac00f15 	stw	r11,60(sp)
   22b30:	da000815 	stw	r8,32(sp)
   22b34:	0022ec00 	call	22ec0 <__sprint_r>
   22b38:	1038961e 	bne	r2,zero,20d94 <___vfprintf_internal_r+0x42c>
   22b3c:	dc401e17 	ldw	r17,120(sp)
   22b40:	d8801d17 	ldw	r2,116(sp)
   22b44:	dac00f17 	ldw	r11,60(sp)
   22b48:	da000817 	ldw	r8,32(sp)
   22b4c:	9021883a 	mov	r16,r18
   22b50:	003da806 	br	221f4 <___vfprintf_internal_r+0x188c>
   22b54:	b479883a 	add	fp,r22,r17
   22b58:	003e0406 	br	2236c <___vfprintf_internal_r+0x1a04>
   22b5c:	d9000a17 	ldw	r4,40(sp)
   22b60:	000d883a 	mov	r6,zero
   22b64:	000f883a 	mov	r7,zero
   22b68:	880b883a 	mov	r5,r17
   22b6c:	da001315 	stw	r8,76(sp)
   22b70:	db001215 	stw	r12,72(sp)
   22b74:	da400915 	stw	r9,36(sp)
   22b78:	002c6940 	call	2c694 <__eqdf2>
   22b7c:	da400917 	ldw	r9,36(sp)
   22b80:	db001217 	ldw	r12,72(sp)
   22b84:	da001317 	ldw	r8,76(sp)
   22b88:	103f5926 	beq	r2,zero,228f0 <___vfprintf_internal_r+0x1f88>
   22b8c:	00800044 	movi	r2,1
   22b90:	1545c83a 	sub	r2,r2,r21
   22b94:	d8801615 	stw	r2,88(sp)
   22b98:	003f5606 	br	228f4 <___vfprintf_internal_r+0x1f8c>
   22b9c:	d8800b17 	ldw	r2,44(sp)
   22ba0:	10003116 	blt	r2,zero,22c68 <___vfprintf_internal_r+0x2300>
   22ba4:	d9001543 	ldbu	r4,85(sp)
   22ba8:	48801210 	cmplti	r2,r9,72
   22bac:	10002b1e 	bne	r2,zero,22c5c <___vfprintf_internal_r+0x22f4>
   22bb0:	058000f4 	movhi	r22,3
   22bb4:	b5811704 	addi	r22,r22,1116
   22bb8:	00398606 	br	211d4 <___vfprintf_internal_r+0x86c>
   22bbc:	d8800817 	ldw	r2,32(sp)
   22bc0:	d8c00c17 	ldw	r3,48(sp)
   22bc4:	10f9883a 	add	fp,r2,r3
   22bc8:	e017883a 	mov	r11,fp
   22bcc:	e03fc20e 	bge	fp,zero,22ad8 <___vfprintf_internal_r+0x2170>
   22bd0:	0017883a 	mov	r11,zero
   22bd4:	003fc006 	br	22ad8 <___vfprintf_internal_r+0x2170>
   22bd8:	d9000a17 	ldw	r4,40(sp)
   22bdc:	000d883a 	mov	r6,zero
   22be0:	000f883a 	mov	r7,zero
   22be4:	880b883a 	mov	r5,r17
   22be8:	da001415 	stw	r8,80(sp)
   22bec:	db001315 	stw	r12,76(sp)
   22bf0:	da401215 	stw	r9,72(sp)
   22bf4:	002c6940 	call	2c694 <__eqdf2>
   22bf8:	da401217 	ldw	r9,72(sp)
   22bfc:	db001317 	ldw	r12,76(sp)
   22c00:	da001417 	ldw	r8,80(sp)
   22c04:	1000331e 	bne	r2,zero,22cd4 <___vfprintf_internal_r+0x236c>
   22c08:	d8800817 	ldw	r2,32(sp)
   22c0c:	d9c01617 	ldw	r7,88(sp)
   22c10:	108011e0 	cmpeqi	r2,r2,71
   22c14:	103ecb1e 	bne	r2,zero,22744 <___vfprintf_internal_r+0x1ddc>
   22c18:	393fffc4 	addi	r4,r7,-1
   22c1c:	4805883a 	mov	r2,r9
   22c20:	203ece16 	blt	r4,zero,2275c <___vfprintf_internal_r+0x1df4>
   22c24:	202b883a 	mov	r21,r4
   22c28:	00c00ac4 	movi	r3,43
   22c2c:	003ece06 	br	22768 <___vfprintf_internal_r+0x1e00>
   22c30:	e585c83a 	sub	r2,fp,r22
   22c34:	d9c01617 	ldw	r7,88(sp)
   22c38:	d8800915 	stw	r2,36(sp)
   22c3c:	003ec106 	br	22744 <___vfprintf_internal_r+0x1ddc>
   22c40:	d8800c17 	ldw	r2,48(sp)
   22c44:	188f883a 	add	r7,r3,r2
   22c48:	3d79883a 	add	fp,r7,r21
   22c4c:	e017883a 	mov	r11,fp
   22c50:	e03dde0e 	bge	fp,zero,223cc <___vfprintf_internal_r+0x1a64>
   22c54:	0017883a 	mov	r11,zero
   22c58:	003ddc06 	br	223cc <___vfprintf_internal_r+0x1a64>
   22c5c:	058000f4 	movhi	r22,3
   22c60:	b5811604 	addi	r22,r22,1112
   22c64:	00395b06 	br	211d4 <___vfprintf_internal_r+0x86c>
   22c68:	00800b44 	movi	r2,45
   22c6c:	d8801545 	stb	r2,85(sp)
   22c70:	01000b44 	movi	r4,45
   22c74:	003fcc06 	br	22ba8 <___vfprintf_internal_r+0x2240>
   22c78:	d8c00717 	ldw	r3,28(sp)
   22c7c:	1d400017 	ldw	r21,0(r3)
   22c80:	18c00104 	addi	r3,r3,4
   22c84:	a800010e 	bge	r21,zero,22c8c <___vfprintf_internal_r+0x2324>
   22c88:	057fffc4 	movi	r21,-1
   22c8c:	9a400043 	ldbu	r9,1(r19)
   22c90:	d8c00715 	stw	r3,28(sp)
   22c94:	1027883a 	mov	r19,r2
   22c98:	4a403fcc 	andi	r9,r9,255
   22c9c:	4a40201c 	xori	r9,r9,128
   22ca0:	4a7fe004 	addi	r9,r9,-128
   22ca4:	00377f06 	br	20aa4 <___vfprintf_internal_r+0x13c>
   22ca8:	1000041e 	bne	r2,zero,22cbc <___vfprintf_internal_r+0x2354>
   22cac:	02c00044 	movi	r11,1
   22cb0:	02401984 	movi	r9,102
   22cb4:	07000044 	movi	fp,1
   22cb8:	003dc506 	br	223d0 <___vfprintf_internal_r+0x1a68>
   22cbc:	d8800c17 	ldw	r2,48(sp)
   22cc0:	11c00044 	addi	r7,r2,1
   22cc4:	3d79883a 	add	fp,r7,r21
   22cc8:	e017883a 	mov	r11,fp
   22ccc:	e03dbf0e 	bge	fp,zero,223cc <___vfprintf_internal_r+0x1a64>
   22cd0:	003fe006 	br	22c54 <___vfprintf_internal_r+0x22ec>
   22cd4:	d8800917 	ldw	r2,36(sp)
   22cd8:	b0b9883a 	add	fp,r22,r2
   22cdc:	003da306 	br	2236c <___vfprintf_internal_r+0x1a04>
   22ce0:	00800084 	movi	r2,2
   22ce4:	d8801115 	stw	r2,68(sp)
   22ce8:	003eda06 	br	22854 <___vfprintf_internal_r+0x1eec>

00022cec <__vfprintf_internal>:
   22cec:	00c000f4 	movhi	r3,3
   22cf0:	2005883a 	mov	r2,r4
   22cf4:	1908cd17 	ldw	r4,9012(r3)
   22cf8:	300f883a 	mov	r7,r6
   22cfc:	280d883a 	mov	r6,r5
   22d00:	100b883a 	mov	r5,r2
   22d04:	00209681 	jmpi	20968 <___vfprintf_internal_r>

00022d08 <__sbprintf>:
   22d08:	28c0038b 	ldhu	r3,14(r5)
   22d0c:	2880030b 	ldhu	r2,12(r5)
   22d10:	2ac01917 	ldw	r11,100(r5)
   22d14:	1806943a 	slli	r3,r3,16
   22d18:	2a800717 	ldw	r10,28(r5)
   22d1c:	2a400917 	ldw	r9,36(r5)
   22d20:	defee204 	addi	sp,sp,-1144
   22d24:	10bfff4c 	andi	r2,r2,65533
   22d28:	10c4b03a 	or	r2,r2,r3
   22d2c:	da001a04 	addi	r8,sp,104
   22d30:	00c10004 	movi	r3,1024
   22d34:	dc011a15 	stw	r16,1128(sp)
   22d38:	2821883a 	mov	r16,r5
   22d3c:	d80b883a 	mov	r5,sp
   22d40:	dc811c15 	stw	r18,1136(sp)
   22d44:	dc411b15 	stw	r17,1132(sp)
   22d48:	dfc11d15 	stw	ra,1140(sp)
   22d4c:	2025883a 	mov	r18,r4
   22d50:	dac01915 	stw	r11,100(sp)
   22d54:	d8800315 	stw	r2,12(sp)
   22d58:	da800715 	stw	r10,28(sp)
   22d5c:	da400915 	stw	r9,36(sp)
   22d60:	da000015 	stw	r8,0(sp)
   22d64:	da000415 	stw	r8,16(sp)
   22d68:	d8c00215 	stw	r3,8(sp)
   22d6c:	d8c00515 	stw	r3,20(sp)
   22d70:	d8000615 	stw	zero,24(sp)
   22d74:	00209680 	call	20968 <___vfprintf_internal_r>
   22d78:	1023883a 	mov	r17,r2
   22d7c:	10000d0e 	bge	r2,zero,22db4 <__sbprintf+0xac>
   22d80:	d880030b 	ldhu	r2,12(sp)
   22d84:	1080100c 	andi	r2,r2,64
   22d88:	10000326 	beq	r2,zero,22d98 <__sbprintf+0x90>
   22d8c:	8080030b 	ldhu	r2,12(r16)
   22d90:	10801014 	ori	r2,r2,64
   22d94:	8080030d 	sth	r2,12(r16)
   22d98:	8805883a 	mov	r2,r17
   22d9c:	dfc11d17 	ldw	ra,1140(sp)
   22da0:	dc811c17 	ldw	r18,1136(sp)
   22da4:	dc411b17 	ldw	r17,1132(sp)
   22da8:	dc011a17 	ldw	r16,1128(sp)
   22dac:	dec11e04 	addi	sp,sp,1144
   22db0:	f800283a 	ret
   22db4:	d80b883a 	mov	r5,sp
   22db8:	9009883a 	mov	r4,r18
   22dbc:	002445c0 	call	2445c <_fflush_r>
   22dc0:	103fef26 	beq	r2,zero,22d80 <__sbprintf+0x78>
   22dc4:	047fffc4 	movi	r17,-1
   22dc8:	003fed06 	br	22d80 <__sbprintf+0x78>

00022dcc <__sprint_r.part.0>:
   22dcc:	28801917 	ldw	r2,100(r5)
   22dd0:	defff604 	addi	sp,sp,-40
   22dd4:	dcc00315 	stw	r19,12(sp)
   22dd8:	dfc00915 	stw	ra,36(sp)
   22ddc:	df000815 	stw	fp,32(sp)
   22de0:	ddc00715 	stw	r23,28(sp)
   22de4:	dd800615 	stw	r22,24(sp)
   22de8:	dd400515 	stw	r21,20(sp)
   22dec:	dd000415 	stw	r20,16(sp)
   22df0:	dc800215 	stw	r18,8(sp)
   22df4:	dc400115 	stw	r17,4(sp)
   22df8:	dc000015 	stw	r16,0(sp)
   22dfc:	1088000c 	andi	r2,r2,8192
   22e00:	3027883a 	mov	r19,r6
   22e04:	10002c26 	beq	r2,zero,22eb8 <__sprint_r.part.0+0xec>
   22e08:	30800217 	ldw	r2,8(r6)
   22e0c:	35000017 	ldw	r20,0(r6)
   22e10:	2821883a 	mov	r16,r5
   22e14:	2023883a 	mov	r17,r4
   22e18:	05bfff04 	movi	r22,-4
   22e1c:	10002426 	beq	r2,zero,22eb0 <__sprint_r.part.0+0xe4>
   22e20:	a5400117 	ldw	r21,4(r20)
   22e24:	a5c00017 	ldw	r23,0(r20)
   22e28:	a824d0ba 	srli	r18,r21,2
   22e2c:	90001b26 	beq	r18,zero,22e9c <__sprint_r.part.0+0xd0>
   22e30:	0039883a 	mov	fp,zero
   22e34:	00000206 	br	22e40 <__sprint_r.part.0+0x74>
   22e38:	bdc00104 	addi	r23,r23,4
   22e3c:	97001626 	beq	r18,fp,22e98 <__sprint_r.part.0+0xcc>
   22e40:	b9400017 	ldw	r5,0(r23)
   22e44:	800d883a 	mov	r6,r16
   22e48:	8809883a 	mov	r4,r17
   22e4c:	00252040 	call	25204 <_fputwc_r>
   22e50:	10bfffe0 	cmpeqi	r2,r2,-1
   22e54:	e7000044 	addi	fp,fp,1
   22e58:	103ff726 	beq	r2,zero,22e38 <__sprint_r.part.0+0x6c>
   22e5c:	00bfffc4 	movi	r2,-1
   22e60:	98000215 	stw	zero,8(r19)
   22e64:	98000115 	stw	zero,4(r19)
   22e68:	dfc00917 	ldw	ra,36(sp)
   22e6c:	df000817 	ldw	fp,32(sp)
   22e70:	ddc00717 	ldw	r23,28(sp)
   22e74:	dd800617 	ldw	r22,24(sp)
   22e78:	dd400517 	ldw	r21,20(sp)
   22e7c:	dd000417 	ldw	r20,16(sp)
   22e80:	dcc00317 	ldw	r19,12(sp)
   22e84:	dc800217 	ldw	r18,8(sp)
   22e88:	dc400117 	ldw	r17,4(sp)
   22e8c:	dc000017 	ldw	r16,0(sp)
   22e90:	dec00a04 	addi	sp,sp,40
   22e94:	f800283a 	ret
   22e98:	98800217 	ldw	r2,8(r19)
   22e9c:	adaa703a 	and	r21,r21,r22
   22ea0:	1545c83a 	sub	r2,r2,r21
   22ea4:	98800215 	stw	r2,8(r19)
   22ea8:	a5000204 	addi	r20,r20,8
   22eac:	103fdc1e 	bne	r2,zero,22e20 <__sprint_r.part.0+0x54>
   22eb0:	0005883a 	mov	r2,zero
   22eb4:	003fea06 	br	22e60 <__sprint_r.part.0+0x94>
   22eb8:	00248d40 	call	248d4 <__sfvwrite_r>
   22ebc:	003fe806 	br	22e60 <__sprint_r.part.0+0x94>

00022ec0 <__sprint_r>:
   22ec0:	30c00217 	ldw	r3,8(r6)
   22ec4:	18000126 	beq	r3,zero,22ecc <__sprint_r+0xc>
   22ec8:	0022dcc1 	jmpi	22dcc <__sprint_r.part.0>
   22ecc:	30000115 	stw	zero,4(r6)
   22ed0:	0005883a 	mov	r2,zero
   22ed4:	f800283a 	ret

00022ed8 <___vfiprintf_internal_r>:
   22ed8:	deffcf04 	addi	sp,sp,-196
   22edc:	dd002b15 	stw	r20,172(sp)
   22ee0:	dc802915 	stw	r18,164(sp)
   22ee4:	dfc03015 	stw	ra,192(sp)
   22ee8:	df002f15 	stw	fp,188(sp)
   22eec:	ddc02e15 	stw	r23,184(sp)
   22ef0:	dd802d15 	stw	r22,180(sp)
   22ef4:	dd402c15 	stw	r21,176(sp)
   22ef8:	dcc02a15 	stw	r19,168(sp)
   22efc:	dc402815 	stw	r17,160(sp)
   22f00:	dc002715 	stw	r16,156(sp)
   22f04:	d9000015 	stw	r4,0(sp)
   22f08:	d9c00315 	stw	r7,12(sp)
   22f0c:	2825883a 	mov	r18,r5
   22f10:	3029883a 	mov	r20,r6
   22f14:	20000226 	beq	r4,zero,22f20 <___vfiprintf_internal_r+0x48>
   22f18:	20800d17 	ldw	r2,52(r4)
   22f1c:	10044f26 	beq	r2,zero,2405c <___vfiprintf_internal_r+0x1184>
   22f20:	9080030b 	ldhu	r2,12(r18)
   22f24:	10c8000c 	andi	r3,r2,8192
   22f28:	1800071e 	bne	r3,zero,22f48 <___vfiprintf_internal_r+0x70>
   22f2c:	90c01917 	ldw	r3,100(r18)
   22f30:	11080014 	ori	r4,r2,8192
   22f34:	00b7ffc4 	movi	r2,-8193
   22f38:	1886703a 	and	r3,r3,r2
   22f3c:	9100030d 	sth	r4,12(r18)
   22f40:	2005883a 	mov	r2,r4
   22f44:	90c01915 	stw	r3,100(r18)
   22f48:	10c0020c 	andi	r3,r2,8
   22f4c:	1800ff26 	beq	r3,zero,2334c <___vfiprintf_internal_r+0x474>
   22f50:	90c00417 	ldw	r3,16(r18)
   22f54:	1800fd26 	beq	r3,zero,2334c <___vfiprintf_internal_r+0x474>
   22f58:	1080068c 	andi	r2,r2,26
   22f5c:	10800298 	cmpnei	r2,r2,10
   22f60:	10010226 	beq	r2,zero,2336c <___vfiprintf_internal_r+0x494>
   22f64:	dcc01704 	addi	r19,sp,92
   22f68:	05c000f4 	movhi	r23,3
   22f6c:	dcc00a15 	stw	r19,40(sp)
   22f70:	d8000c15 	stw	zero,48(sp)
   22f74:	d8000b15 	stw	zero,44(sp)
   22f78:	9811883a 	mov	r8,r19
   22f7c:	d8000515 	stw	zero,20(sp)
   22f80:	d8000115 	stw	zero,4(sp)
   22f84:	bdc12d04 	addi	r23,r23,1204
   22f88:	a0800007 	ldb	r2,0(r20)
   22f8c:	1000dd26 	beq	r2,zero,23304 <___vfiprintf_internal_r+0x42c>
   22f90:	a021883a 	mov	r16,r20
   22f94:	00000306 	br	22fa4 <___vfiprintf_internal_r+0xcc>
   22f98:	80800047 	ldb	r2,1(r16)
   22f9c:	84000044 	addi	r16,r16,1
   22fa0:	10011a26 	beq	r2,zero,2340c <___vfiprintf_internal_r+0x534>
   22fa4:	10800958 	cmpnei	r2,r2,37
   22fa8:	103ffb1e 	bne	r2,zero,22f98 <___vfiprintf_internal_r+0xc0>
   22fac:	8523c83a 	sub	r17,r16,r20
   22fb0:	8501181e 	bne	r16,r20,23414 <___vfiprintf_internal_r+0x53c>
   22fb4:	80800003 	ldbu	r2,0(r16)
   22fb8:	10803fcc 	andi	r2,r2,255
   22fbc:	1080201c 	xori	r2,r2,128
   22fc0:	10bfe004 	addi	r2,r2,-128
   22fc4:	1000cf26 	beq	r2,zero,23304 <___vfiprintf_internal_r+0x42c>
   22fc8:	80800047 	ldb	r2,1(r16)
   22fcc:	85000044 	addi	r20,r16,1
   22fd0:	d8000945 	stb	zero,37(sp)
   22fd4:	027fffc4 	movi	r9,-1
   22fd8:	0023883a 	mov	r17,zero
   22fdc:	0021883a 	mov	r16,zero
   22fe0:	a5000044 	addi	r20,r20,1
   22fe4:	10fff804 	addi	r3,r2,-32
   22fe8:	19001668 	cmpgeui	r4,r3,89
   22fec:	20006c1e 	bne	r4,zero,231a0 <___vfiprintf_internal_r+0x2c8>
   22ff0:	180690ba 	slli	r3,r3,2
   22ff4:	010000b4 	movhi	r4,2
   22ff8:	1909883a 	add	r4,r3,r4
   22ffc:	20cc0117 	ldw	r3,12292(r4)
   23000:	1800683a 	jmp	r3
   23004:	000236a0 	cmpeqi	zero,zero,2266
   23008:	000231a0 	cmpeqi	zero,zero,2246
   2300c:	000231a0 	cmpeqi	zero,zero,2246
   23010:	00023694 	movui	zero,2266
   23014:	000231a0 	cmpeqi	zero,zero,2246
   23018:	000231a0 	cmpeqi	zero,zero,2246
   2301c:	000231a0 	cmpeqi	zero,zero,2246
   23020:	000231a0 	cmpeqi	zero,zero,2246
   23024:	000231a0 	cmpeqi	zero,zero,2246
   23028:	000231a0 	cmpeqi	zero,zero,2246
   2302c:	00023608 	cmpgei	zero,zero,2264
   23030:	00023684 	movi	zero,2266
   23034:	000231a0 	cmpeqi	zero,zero,2246
   23038:	00023620 	cmpeqi	zero,zero,2264
   2303c:	0002362c 	andhi	zero,zero,2264
   23040:	000231a0 	cmpeqi	zero,zero,2246
   23044:	00023678 	rdprs	zero,zero,2265
   23048:	00023168 	cmpgeui	zero,zero,2245
   2304c:	00023168 	cmpgeui	zero,zero,2245
   23050:	00023168 	cmpgeui	zero,zero,2245
   23054:	00023168 	cmpgeui	zero,zero,2245
   23058:	00023168 	cmpgeui	zero,zero,2245
   2305c:	00023168 	cmpgeui	zero,zero,2245
   23060:	00023168 	cmpgeui	zero,zero,2245
   23064:	00023168 	cmpgeui	zero,zero,2245
   23068:	00023168 	cmpgeui	zero,zero,2245
   2306c:	000231a0 	cmpeqi	zero,zero,2246
   23070:	000231a0 	cmpeqi	zero,zero,2246
   23074:	000231a0 	cmpeqi	zero,zero,2246
   23078:	000231a0 	cmpeqi	zero,zero,2246
   2307c:	000231a0 	cmpeqi	zero,zero,2246
   23080:	000231a0 	cmpeqi	zero,zero,2246
   23084:	000231a0 	cmpeqi	zero,zero,2246
   23088:	000231a0 	cmpeqi	zero,zero,2246
   2308c:	000231a0 	cmpeqi	zero,zero,2246
   23090:	000231a0 	cmpeqi	zero,zero,2246
   23094:	000233b4 	movhi	zero,2254
   23098:	000231a0 	cmpeqi	zero,zero,2246
   2309c:	000231a0 	cmpeqi	zero,zero,2246
   230a0:	000231a0 	cmpeqi	zero,zero,2246
   230a4:	000231a0 	cmpeqi	zero,zero,2246
   230a8:	000231a0 	cmpeqi	zero,zero,2246
   230ac:	000231a0 	cmpeqi	zero,zero,2246
   230b0:	000231a0 	cmpeqi	zero,zero,2246
   230b4:	000231a0 	cmpeqi	zero,zero,2246
   230b8:	000231a0 	cmpeqi	zero,zero,2246
   230bc:	000231a0 	cmpeqi	zero,zero,2246
   230c0:	000237bc 	xorhi	zero,zero,2270
   230c4:	000231a0 	cmpeqi	zero,zero,2246
   230c8:	000231a0 	cmpeqi	zero,zero,2246
   230cc:	000231a0 	cmpeqi	zero,zero,2246
   230d0:	000231a0 	cmpeqi	zero,zero,2246
   230d4:	000231a0 	cmpeqi	zero,zero,2246
   230d8:	00023758 	cmpnei	zero,zero,2269
   230dc:	000231a0 	cmpeqi	zero,zero,2246
   230e0:	000231a0 	cmpeqi	zero,zero,2246
   230e4:	00023f4c 	andi	zero,zero,2301
   230e8:	000231a0 	cmpeqi	zero,zero,2246
   230ec:	000231a0 	cmpeqi	zero,zero,2246
   230f0:	000231a0 	cmpeqi	zero,zero,2246
   230f4:	000231a0 	cmpeqi	zero,zero,2246
   230f8:	000231a0 	cmpeqi	zero,zero,2246
   230fc:	000231a0 	cmpeqi	zero,zero,2246
   23100:	000231a0 	cmpeqi	zero,zero,2246
   23104:	000231a0 	cmpeqi	zero,zero,2246
   23108:	000231a0 	cmpeqi	zero,zero,2246
   2310c:	000231a0 	cmpeqi	zero,zero,2246
   23110:	00023730 	cmpltui	zero,zero,2268
   23114:	000233b8 	rdprs	zero,zero,2254
   23118:	000231a0 	cmpeqi	zero,zero,2246
   2311c:	000231a0 	cmpeqi	zero,zero,2246
   23120:	000231a0 	cmpeqi	zero,zero,2246
   23124:	00023724 	muli	zero,zero,2268
   23128:	000233b8 	rdprs	zero,zero,2254
   2312c:	000231a0 	cmpeqi	zero,zero,2246
   23130:	000231a0 	cmpeqi	zero,zero,2246
   23134:	00023710 	cmplti	zero,zero,2268
   23138:	000231a0 	cmpeqi	zero,zero,2246
   2313c:	000236e0 	cmpeqi	zero,zero,2267
   23140:	00023fa8 	cmpgeui	zero,zero,2302
   23144:	000238dc 	xori	zero,zero,2275
   23148:	000238d0 	cmplti	zero,zero,2275
   2314c:	000231a0 	cmpeqi	zero,zero,2246
   23150:	0002386c 	andhi	zero,zero,2273
   23154:	000231a0 	cmpeqi	zero,zero,2246
   23158:	00023f44 	movi	zero,2301
   2315c:	000231a0 	cmpeqi	zero,zero,2246
   23160:	000231a0 	cmpeqi	zero,zero,2246
   23164:	00023fb0 	cmpltui	zero,zero,2302
   23168:	0023883a 	mov	r17,zero
   2316c:	113ff404 	addi	r4,r2,-48
   23170:	880690ba 	slli	r3,r17,2
   23174:	a0800007 	ldb	r2,0(r20)
   23178:	a5000044 	addi	r20,r20,1
   2317c:	1c47883a 	add	r3,r3,r17
   23180:	18c7883a 	add	r3,r3,r3
   23184:	20e3883a 	add	r17,r4,r3
   23188:	113ff404 	addi	r4,r2,-48
   2318c:	20c002b0 	cmpltui	r3,r4,10
   23190:	183ff71e 	bne	r3,zero,23170 <___vfiprintf_internal_r+0x298>
   23194:	10fff804 	addi	r3,r2,-32
   23198:	19001668 	cmpgeui	r4,r3,89
   2319c:	203f9426 	beq	r4,zero,22ff0 <___vfiprintf_internal_r+0x118>
   231a0:	10005826 	beq	r2,zero,23304 <___vfiprintf_internal_r+0x42c>
   231a4:	d8800d05 	stb	r2,52(sp)
   231a8:	d8000945 	stb	zero,37(sp)
   231ac:	05800044 	movi	r22,1
   231b0:	05400044 	movi	r21,1
   231b4:	df000d04 	addi	fp,sp,52
   231b8:	0013883a 	mov	r9,zero
   231bc:	8340008c 	andi	r13,r16,2
   231c0:	68000126 	beq	r13,zero,231c8 <___vfiprintf_internal_r+0x2f0>
   231c4:	b5800084 	addi	r22,r22,2
   231c8:	d9000b17 	ldw	r4,44(sp)
   231cc:	8300210c 	andi	r12,r16,132
   231d0:	d8800c17 	ldw	r2,48(sp)
   231d4:	21800044 	addi	r6,r4,1
   231d8:	300b883a 	mov	r5,r6
   231dc:	6000021e 	bne	r12,zero,231e8 <___vfiprintf_internal_r+0x310>
   231e0:	8d87c83a 	sub	r3,r17,r22
   231e4:	00c29216 	blt	zero,r3,23c30 <___vfiprintf_internal_r+0xd58>
   231e8:	d8c00947 	ldb	r3,37(sp)
   231ec:	18000c26 	beq	r3,zero,23220 <___vfiprintf_internal_r+0x348>
   231f0:	d8c00944 	addi	r3,sp,37
   231f4:	10800044 	addi	r2,r2,1
   231f8:	40c00015 	stw	r3,0(r8)
   231fc:	00c00044 	movi	r3,1
   23200:	40c00115 	stw	r3,4(r8)
   23204:	d8800c15 	stw	r2,48(sp)
   23208:	d9400b15 	stw	r5,44(sp)
   2320c:	28c00208 	cmpgei	r3,r5,8
   23210:	18026b1e 	bne	r3,zero,23bc0 <___vfiprintf_internal_r+0xce8>
   23214:	2809883a 	mov	r4,r5
   23218:	42000204 	addi	r8,r8,8
   2321c:	29400044 	addi	r5,r5,1
   23220:	68001726 	beq	r13,zero,23280 <___vfiprintf_internal_r+0x3a8>
   23224:	d8c00984 	addi	r3,sp,38
   23228:	10800084 	addi	r2,r2,2
   2322c:	40c00015 	stw	r3,0(r8)
   23230:	00c00084 	movi	r3,2
   23234:	40c00115 	stw	r3,4(r8)
   23238:	d8800c15 	stw	r2,48(sp)
   2323c:	d9400b15 	stw	r5,44(sp)
   23240:	28c00208 	cmpgei	r3,r5,8
   23244:	18027626 	beq	r3,zero,23c20 <___vfiprintf_internal_r+0xd48>
   23248:	1002f926 	beq	r2,zero,23e30 <___vfiprintf_internal_r+0xf58>
   2324c:	d9000017 	ldw	r4,0(sp)
   23250:	d9800a04 	addi	r6,sp,40
   23254:	900b883a 	mov	r5,r18
   23258:	da400415 	stw	r9,16(sp)
   2325c:	db000215 	stw	r12,8(sp)
   23260:	0022dcc0 	call	22dcc <__sprint_r.part.0>
   23264:	1000291e 	bne	r2,zero,2330c <___vfiprintf_internal_r+0x434>
   23268:	d9000b17 	ldw	r4,44(sp)
   2326c:	d8800c17 	ldw	r2,48(sp)
   23270:	da400417 	ldw	r9,16(sp)
   23274:	db000217 	ldw	r12,8(sp)
   23278:	9811883a 	mov	r8,r19
   2327c:	21400044 	addi	r5,r4,1
   23280:	63002018 	cmpnei	r12,r12,128
   23284:	6001d226 	beq	r12,zero,239d0 <___vfiprintf_internal_r+0xaf8>
   23288:	4d53c83a 	sub	r9,r9,r21
   2328c:	02421016 	blt	zero,r9,23ad0 <___vfiprintf_internal_r+0xbf8>
   23290:	a885883a 	add	r2,r21,r2
   23294:	d9400b15 	stw	r5,44(sp)
   23298:	47000015 	stw	fp,0(r8)
   2329c:	45400115 	stw	r21,4(r8)
   232a0:	d8800c15 	stw	r2,48(sp)
   232a4:	29400208 	cmpgei	r5,r5,8
   232a8:	2801c326 	beq	r5,zero,239b8 <___vfiprintf_internal_r+0xae0>
   232ac:	10007126 	beq	r2,zero,23474 <___vfiprintf_internal_r+0x59c>
   232b0:	d9000017 	ldw	r4,0(sp)
   232b4:	d9800a04 	addi	r6,sp,40
   232b8:	900b883a 	mov	r5,r18
   232bc:	0022dcc0 	call	22dcc <__sprint_r.part.0>
   232c0:	1000121e 	bne	r2,zero,2330c <___vfiprintf_internal_r+0x434>
   232c4:	d8800c17 	ldw	r2,48(sp)
   232c8:	9811883a 	mov	r8,r19
   232cc:	8400010c 	andi	r16,r16,4
   232d0:	80000226 	beq	r16,zero,232dc <___vfiprintf_internal_r+0x404>
   232d4:	8da1c83a 	sub	r16,r17,r22
   232d8:	04006c16 	blt	zero,r16,2348c <___vfiprintf_internal_r+0x5b4>
   232dc:	8d80010e 	bge	r17,r22,232e4 <___vfiprintf_internal_r+0x40c>
   232e0:	b023883a 	mov	r17,r22
   232e4:	d8c00117 	ldw	r3,4(sp)
   232e8:	1c47883a 	add	r3,r3,r17
   232ec:	d8c00115 	stw	r3,4(sp)
   232f0:	1002291e 	bne	r2,zero,23b98 <___vfiprintf_internal_r+0xcc0>
   232f4:	a0800007 	ldb	r2,0(r20)
   232f8:	d8000b15 	stw	zero,44(sp)
   232fc:	9811883a 	mov	r8,r19
   23300:	103f231e 	bne	r2,zero,22f90 <___vfiprintf_internal_r+0xb8>
   23304:	d8800c17 	ldw	r2,48(sp)
   23308:	10036c1e 	bne	r2,zero,240bc <___vfiprintf_internal_r+0x11e4>
   2330c:	9080030b 	ldhu	r2,12(r18)
   23310:	1080100c 	andi	r2,r2,64
   23314:	10037d1e 	bne	r2,zero,2410c <___vfiprintf_internal_r+0x1234>
   23318:	d8800117 	ldw	r2,4(sp)
   2331c:	dfc03017 	ldw	ra,192(sp)
   23320:	df002f17 	ldw	fp,188(sp)
   23324:	ddc02e17 	ldw	r23,184(sp)
   23328:	dd802d17 	ldw	r22,180(sp)
   2332c:	dd402c17 	ldw	r21,176(sp)
   23330:	dd002b17 	ldw	r20,172(sp)
   23334:	dcc02a17 	ldw	r19,168(sp)
   23338:	dc802917 	ldw	r18,164(sp)
   2333c:	dc402817 	ldw	r17,160(sp)
   23340:	dc002717 	ldw	r16,156(sp)
   23344:	dec03104 	addi	sp,sp,196
   23348:	f800283a 	ret
   2334c:	d9000017 	ldw	r4,0(sp)
   23350:	900b883a 	mov	r5,r18
   23354:	0024f5c0 	call	24f5c <__swsetup_r>
   23358:	10036c1e 	bne	r2,zero,2410c <___vfiprintf_internal_r+0x1234>
   2335c:	9080030b 	ldhu	r2,12(r18)
   23360:	1080068c 	andi	r2,r2,26
   23364:	10800298 	cmpnei	r2,r2,10
   23368:	103efe1e 	bne	r2,zero,22f64 <___vfiprintf_internal_r+0x8c>
   2336c:	9080038f 	ldh	r2,14(r18)
   23370:	103efc16 	blt	r2,zero,22f64 <___vfiprintf_internal_r+0x8c>
   23374:	d9c00317 	ldw	r7,12(sp)
   23378:	d9000017 	ldw	r4,0(sp)
   2337c:	a00d883a 	mov	r6,r20
   23380:	900b883a 	mov	r5,r18
   23384:	dfc03017 	ldw	ra,192(sp)
   23388:	df002f17 	ldw	fp,188(sp)
   2338c:	ddc02e17 	ldw	r23,184(sp)
   23390:	dd802d17 	ldw	r22,180(sp)
   23394:	dd402c17 	ldw	r21,176(sp)
   23398:	dd002b17 	ldw	r20,172(sp)
   2339c:	dcc02a17 	ldw	r19,168(sp)
   233a0:	dc802917 	ldw	r18,164(sp)
   233a4:	dc402817 	ldw	r17,160(sp)
   233a8:	dc002717 	ldw	r16,156(sp)
   233ac:	dec03104 	addi	sp,sp,196
   233b0:	00241901 	jmpi	24190 <__sbprintf>
   233b4:	84000414 	ori	r16,r16,16
   233b8:	8080080c 	andi	r2,r16,32
   233bc:	10006626 	beq	r2,zero,23558 <___vfiprintf_internal_r+0x680>
   233c0:	d8c00317 	ldw	r3,12(sp)
   233c4:	18800117 	ldw	r2,4(r3)
   233c8:	1d800017 	ldw	r22,0(r3)
   233cc:	18c00204 	addi	r3,r3,8
   233d0:	d8c00315 	stw	r3,12(sp)
   233d4:	102b883a 	mov	r21,r2
   233d8:	10006d16 	blt	r2,zero,23590 <___vfiprintf_internal_r+0x6b8>
   233dc:	48bfffd8 	cmpnei	r2,r9,-1
   233e0:	db000943 	ldbu	r12,37(sp)
   233e4:	10007526 	beq	r2,zero,235bc <___vfiprintf_internal_r+0x6e4>
   233e8:	00ffdfc4 	movi	r3,-129
   233ec:	b544b03a 	or	r2,r22,r21
   233f0:	80e0703a 	and	r16,r16,r3
   233f4:	1000711e 	bne	r2,zero,235bc <___vfiprintf_internal_r+0x6e4>
   233f8:	4803471e 	bne	r9,zero,24118 <___vfiprintf_internal_r+0x1240>
   233fc:	002d883a 	mov	r22,zero
   23400:	002b883a 	mov	r21,zero
   23404:	9839883a 	mov	fp,r19
   23408:	00007606 	br	235e4 <___vfiprintf_internal_r+0x70c>
   2340c:	8523c83a 	sub	r17,r16,r20
   23410:	853fbc26 	beq	r16,r20,23304 <___vfiprintf_internal_r+0x42c>
   23414:	d8c00c17 	ldw	r3,48(sp)
   23418:	d8800b17 	ldw	r2,44(sp)
   2341c:	45000015 	stw	r20,0(r8)
   23420:	88c7883a 	add	r3,r17,r3
   23424:	10800044 	addi	r2,r2,1
   23428:	d8800b15 	stw	r2,44(sp)
   2342c:	44400115 	stw	r17,4(r8)
   23430:	d8c00c15 	stw	r3,48(sp)
   23434:	10800208 	cmpgei	r2,r2,8
   23438:	1000061e 	bne	r2,zero,23454 <___vfiprintf_internal_r+0x57c>
   2343c:	42000204 	addi	r8,r8,8
   23440:	d8c00117 	ldw	r3,4(sp)
   23444:	80800003 	ldbu	r2,0(r16)
   23448:	1c47883a 	add	r3,r3,r17
   2344c:	d8c00115 	stw	r3,4(sp)
   23450:	003ed906 	br	22fb8 <___vfiprintf_internal_r+0xe0>
   23454:	18025526 	beq	r3,zero,23dac <___vfiprintf_internal_r+0xed4>
   23458:	d9000017 	ldw	r4,0(sp)
   2345c:	d9800a04 	addi	r6,sp,40
   23460:	900b883a 	mov	r5,r18
   23464:	0022dcc0 	call	22dcc <__sprint_r.part.0>
   23468:	103fa81e 	bne	r2,zero,2330c <___vfiprintf_internal_r+0x434>
   2346c:	9811883a 	mov	r8,r19
   23470:	003ff306 	br	23440 <___vfiprintf_internal_r+0x568>
   23474:	d8000b15 	stw	zero,44(sp)
   23478:	8400010c 	andi	r16,r16,4
   2347c:	80022726 	beq	r16,zero,23d1c <___vfiprintf_internal_r+0xe44>
   23480:	8da1c83a 	sub	r16,r17,r22
   23484:	0402250e 	bge	zero,r16,23d1c <___vfiprintf_internal_r+0xe44>
   23488:	9811883a 	mov	r8,r19
   2348c:	80c00450 	cmplti	r3,r16,17
   23490:	d9000b17 	ldw	r4,44(sp)
   23494:	01c000f4 	movhi	r7,3
   23498:	1803141e 	bne	r3,zero,240ec <___vfiprintf_internal_r+0x1214>
   2349c:	39c13104 	addi	r7,r7,1220
   234a0:	05400404 	movi	r21,16
   234a4:	00000606 	br	234c0 <___vfiprintf_internal_r+0x5e8>
   234a8:	21400084 	addi	r5,r4,2
   234ac:	42000204 	addi	r8,r8,8
   234b0:	1809883a 	mov	r4,r3
   234b4:	843ffc04 	addi	r16,r16,-16
   234b8:	80c00448 	cmpgei	r3,r16,17
   234bc:	18001726 	beq	r3,zero,2351c <___vfiprintf_internal_r+0x644>
   234c0:	20c00044 	addi	r3,r4,1
   234c4:	10800404 	addi	r2,r2,16
   234c8:	41c00015 	stw	r7,0(r8)
   234cc:	45400115 	stw	r21,4(r8)
   234d0:	d8800c15 	stw	r2,48(sp)
   234d4:	d8c00b15 	stw	r3,44(sp)
   234d8:	19400208 	cmpgei	r5,r3,8
   234dc:	283ff226 	beq	r5,zero,234a8 <___vfiprintf_internal_r+0x5d0>
   234e0:	d9000017 	ldw	r4,0(sp)
   234e4:	d9800a04 	addi	r6,sp,40
   234e8:	900b883a 	mov	r5,r18
   234ec:	10013426 	beq	r2,zero,239c0 <___vfiprintf_internal_r+0xae8>
   234f0:	d9c00215 	stw	r7,8(sp)
   234f4:	0022dcc0 	call	22dcc <__sprint_r.part.0>
   234f8:	103f841e 	bne	r2,zero,2330c <___vfiprintf_internal_r+0x434>
   234fc:	d9000b17 	ldw	r4,44(sp)
   23500:	843ffc04 	addi	r16,r16,-16
   23504:	80c00448 	cmpgei	r3,r16,17
   23508:	d8800c17 	ldw	r2,48(sp)
   2350c:	d9c00217 	ldw	r7,8(sp)
   23510:	9811883a 	mov	r8,r19
   23514:	21400044 	addi	r5,r4,1
   23518:	183fe91e 	bne	r3,zero,234c0 <___vfiprintf_internal_r+0x5e8>
   2351c:	1405883a 	add	r2,r2,r16
   23520:	d9400b15 	stw	r5,44(sp)
   23524:	41c00015 	stw	r7,0(r8)
   23528:	44000115 	stw	r16,4(r8)
   2352c:	d8800c15 	stw	r2,48(sp)
   23530:	29400210 	cmplti	r5,r5,8
   23534:	283f691e 	bne	r5,zero,232dc <___vfiprintf_internal_r+0x404>
   23538:	1001f826 	beq	r2,zero,23d1c <___vfiprintf_internal_r+0xe44>
   2353c:	d9000017 	ldw	r4,0(sp)
   23540:	d9800a04 	addi	r6,sp,40
   23544:	900b883a 	mov	r5,r18
   23548:	0022dcc0 	call	22dcc <__sprint_r.part.0>
   2354c:	103f6f1e 	bne	r2,zero,2330c <___vfiprintf_internal_r+0x434>
   23550:	d8800c17 	ldw	r2,48(sp)
   23554:	003f6106 	br	232dc <___vfiprintf_internal_r+0x404>
   23558:	d8c00317 	ldw	r3,12(sp)
   2355c:	8080040c 	andi	r2,r16,16
   23560:	1d800017 	ldw	r22,0(r3)
   23564:	18c00104 	addi	r3,r3,4
   23568:	d8c00315 	stw	r3,12(sp)
   2356c:	1000231e 	bne	r2,zero,235fc <___vfiprintf_internal_r+0x724>
   23570:	8080100c 	andi	r2,r16,64
   23574:	10002126 	beq	r2,zero,235fc <___vfiprintf_internal_r+0x724>
   23578:	b5bfffcc 	andi	r22,r22,65535
   2357c:	b5a0001c 	xori	r22,r22,32768
   23580:	b5a00004 	addi	r22,r22,-32768
   23584:	b02bd7fa 	srai	r21,r22,31
   23588:	a805883a 	mov	r2,r21
   2358c:	103f930e 	bge	r2,zero,233dc <___vfiprintf_internal_r+0x504>
   23590:	00800b44 	movi	r2,45
   23594:	b006c03a 	cmpne	r3,r22,zero
   23598:	056bc83a 	sub	r21,zero,r21
   2359c:	d8800945 	stb	r2,37(sp)
   235a0:	48bfffd8 	cmpnei	r2,r9,-1
   235a4:	a8ebc83a 	sub	r21,r21,r3
   235a8:	05adc83a 	sub	r22,zero,r22
   235ac:	10000226 	beq	r2,zero,235b8 <___vfiprintf_internal_r+0x6e0>
   235b0:	00bfdfc4 	movi	r2,-129
   235b4:	80a0703a 	and	r16,r16,r2
   235b8:	03000b44 	movi	r12,45
   235bc:	a800d71e 	bne	r21,zero,2391c <___vfiprintf_internal_r+0xa44>
   235c0:	b08002a8 	cmpgeui	r2,r22,10
   235c4:	1000d51e 	bne	r2,zero,2391c <___vfiprintf_internal_r+0xa44>
   235c8:	b5800c04 	addi	r22,r22,48
   235cc:	dd8016c5 	stb	r22,91(sp)
   235d0:	482d883a 	mov	r22,r9
   235d4:	02400116 	blt	zero,r9,235dc <___vfiprintf_internal_r+0x704>
   235d8:	05800044 	movi	r22,1
   235dc:	05400044 	movi	r21,1
   235e0:	df0016c4 	addi	fp,sp,91
   235e4:	63003fcc 	andi	r12,r12,255
   235e8:	6300201c 	xori	r12,r12,128
   235ec:	633fe004 	addi	r12,r12,-128
   235f0:	603ef226 	beq	r12,zero,231bc <___vfiprintf_internal_r+0x2e4>
   235f4:	b5800044 	addi	r22,r22,1
   235f8:	003ef006 	br	231bc <___vfiprintf_internal_r+0x2e4>
   235fc:	b02bd7fa 	srai	r21,r22,31
   23600:	a805883a 	mov	r2,r21
   23604:	003f7406 	br	233d8 <___vfiprintf_internal_r+0x500>
   23608:	d8800317 	ldw	r2,12(sp)
   2360c:	14400017 	ldw	r17,0(r2)
   23610:	17000104 	addi	fp,r2,4
   23614:	8802250e 	bge	r17,zero,23eac <___vfiprintf_internal_r+0xfd4>
   23618:	0463c83a 	sub	r17,zero,r17
   2361c:	df000315 	stw	fp,12(sp)
   23620:	a0800007 	ldb	r2,0(r20)
   23624:	84000114 	ori	r16,r16,4
   23628:	003e6d06 	br	22fe0 <___vfiprintf_internal_r+0x108>
   2362c:	a0800007 	ldb	r2,0(r20)
   23630:	a0c00044 	addi	r3,r20,1
   23634:	11000aa0 	cmpeqi	r4,r2,42
   23638:	2002bc1e 	bne	r4,zero,2412c <___vfiprintf_internal_r+0x1254>
   2363c:	113ff404 	addi	r4,r2,-48
   23640:	214002b0 	cmpltui	r5,r4,10
   23644:	1829883a 	mov	r20,r3
   23648:	0013883a 	mov	r9,zero
   2364c:	283e6526 	beq	r5,zero,22fe4 <___vfiprintf_internal_r+0x10c>
   23650:	480690ba 	slli	r3,r9,2
   23654:	a0800007 	ldb	r2,0(r20)
   23658:	a5000044 	addi	r20,r20,1
   2365c:	1a47883a 	add	r3,r3,r9
   23660:	18c7883a 	add	r3,r3,r3
   23664:	1913883a 	add	r9,r3,r4
   23668:	113ff404 	addi	r4,r2,-48
   2366c:	20c002b0 	cmpltui	r3,r4,10
   23670:	183ff71e 	bne	r3,zero,23650 <___vfiprintf_internal_r+0x778>
   23674:	003e5b06 	br	22fe4 <___vfiprintf_internal_r+0x10c>
   23678:	a0800007 	ldb	r2,0(r20)
   2367c:	84002014 	ori	r16,r16,128
   23680:	003e5706 	br	22fe0 <___vfiprintf_internal_r+0x108>
   23684:	00c00ac4 	movi	r3,43
   23688:	a0800007 	ldb	r2,0(r20)
   2368c:	d8c00945 	stb	r3,37(sp)
   23690:	003e5306 	br	22fe0 <___vfiprintf_internal_r+0x108>
   23694:	a0800007 	ldb	r2,0(r20)
   23698:	84000054 	ori	r16,r16,1
   2369c:	003e5006 	br	22fe0 <___vfiprintf_internal_r+0x108>
   236a0:	d8c00947 	ldb	r3,37(sp)
   236a4:	a0800003 	ldbu	r2,0(r20)
   236a8:	1800091e 	bne	r3,zero,236d0 <___vfiprintf_internal_r+0x7f8>
   236ac:	10803fcc 	andi	r2,r2,255
   236b0:	00c00804 	movi	r3,32
   236b4:	1080201c 	xori	r2,r2,128
   236b8:	d8c00945 	stb	r3,37(sp)
   236bc:	10bfe004 	addi	r2,r2,-128
   236c0:	003e4706 	br	22fe0 <___vfiprintf_internal_r+0x108>
   236c4:	a0800043 	ldbu	r2,1(r20)
   236c8:	84000814 	ori	r16,r16,32
   236cc:	a5000044 	addi	r20,r20,1
   236d0:	10803fcc 	andi	r2,r2,255
   236d4:	1080201c 	xori	r2,r2,128
   236d8:	10bfe004 	addi	r2,r2,-128
   236dc:	003e4006 	br	22fe0 <___vfiprintf_internal_r+0x108>
   236e0:	8080080c 	andi	r2,r16,32
   236e4:	1001fb26 	beq	r2,zero,23ed4 <___vfiprintf_internal_r+0xffc>
   236e8:	d9000117 	ldw	r4,4(sp)
   236ec:	d8800317 	ldw	r2,12(sp)
   236f0:	2007d7fa 	srai	r3,r4,31
   236f4:	10800017 	ldw	r2,0(r2)
   236f8:	11000015 	stw	r4,0(r2)
   236fc:	10c00115 	stw	r3,4(r2)
   23700:	d8800317 	ldw	r2,12(sp)
   23704:	10800104 	addi	r2,r2,4
   23708:	d8800315 	stw	r2,12(sp)
   2370c:	003e1e06 	br	22f88 <___vfiprintf_internal_r+0xb0>
   23710:	a0800007 	ldb	r2,0(r20)
   23714:	10c01b18 	cmpnei	r3,r2,108
   23718:	183fea26 	beq	r3,zero,236c4 <___vfiprintf_internal_r+0x7ec>
   2371c:	84000414 	ori	r16,r16,16
   23720:	003e2f06 	br	22fe0 <___vfiprintf_internal_r+0x108>
   23724:	a0800007 	ldb	r2,0(r20)
   23728:	84001014 	ori	r16,r16,64
   2372c:	003e2c06 	br	22fe0 <___vfiprintf_internal_r+0x108>
   23730:	d8c00317 	ldw	r3,12(sp)
   23734:	d8000945 	stb	zero,37(sp)
   23738:	05800044 	movi	r22,1
   2373c:	18800017 	ldw	r2,0(r3)
   23740:	18c00104 	addi	r3,r3,4
   23744:	d8c00315 	stw	r3,12(sp)
   23748:	d8800d05 	stb	r2,52(sp)
   2374c:	05400044 	movi	r21,1
   23750:	df000d04 	addi	fp,sp,52
   23754:	003e9806 	br	231b8 <___vfiprintf_internal_r+0x2e0>
   23758:	80800414 	ori	r2,r16,16
   2375c:	10c0080c 	andi	r3,r2,32
   23760:	18019426 	beq	r3,zero,23db4 <___vfiprintf_internal_r+0xedc>
   23764:	d8c00317 	ldw	r3,12(sp)
   23768:	d8000945 	stb	zero,37(sp)
   2376c:	1d800017 	ldw	r22,0(r3)
   23770:	1d400117 	ldw	r21,4(r3)
   23774:	18c00204 	addi	r3,r3,8
   23778:	d8c00315 	stw	r3,12(sp)
   2377c:	48ffffd8 	cmpnei	r3,r9,-1
   23780:	18019926 	beq	r3,zero,23de8 <___vfiprintf_internal_r+0xf10>
   23784:	00c00044 	movi	r3,1
   23788:	043fdfc4 	movi	r16,-129
   2378c:	b548b03a 	or	r4,r22,r21
   23790:	1420703a 	and	r16,r2,r16
   23794:	2000191e 	bne	r4,zero,237fc <___vfiprintf_internal_r+0x924>
   23798:	4802291e 	bne	r9,zero,24040 <___vfiprintf_internal_r+0x1168>
   2379c:	1801bf1e 	bne	r3,zero,23e9c <___vfiprintf_internal_r+0xfc4>
   237a0:	1540004c 	andi	r21,r2,1
   237a4:	a801c426 	beq	r21,zero,23eb8 <___vfiprintf_internal_r+0xfe0>
   237a8:	00800c04 	movi	r2,48
   237ac:	d88016c5 	stb	r2,91(sp)
   237b0:	a82d883a 	mov	r22,r21
   237b4:	df0016c4 	addi	fp,sp,91
   237b8:	003e8006 	br	231bc <___vfiprintf_internal_r+0x2e4>
   237bc:	80800414 	ori	r2,r16,16
   237c0:	10c0080c 	andi	r3,r2,32
   237c4:	18018b26 	beq	r3,zero,23df4 <___vfiprintf_internal_r+0xf1c>
   237c8:	d8c00317 	ldw	r3,12(sp)
   237cc:	d8000945 	stb	zero,37(sp)
   237d0:	1d800017 	ldw	r22,0(r3)
   237d4:	1d400117 	ldw	r21,4(r3)
   237d8:	18c00204 	addi	r3,r3,8
   237dc:	d8c00315 	stw	r3,12(sp)
   237e0:	48ffffd8 	cmpnei	r3,r9,-1
   237e4:	18019026 	beq	r3,zero,23e28 <___vfiprintf_internal_r+0xf50>
   237e8:	043fdfc4 	movi	r16,-129
   237ec:	b548b03a 	or	r4,r22,r21
   237f0:	0007883a 	mov	r3,zero
   237f4:	1420703a 	and	r16,r2,r16
   237f8:	203fe726 	beq	r4,zero,23798 <___vfiprintf_internal_r+0x8c0>
   237fc:	18800060 	cmpeqi	r2,r3,1
   23800:	10025a1e 	bne	r2,zero,2416c <___vfiprintf_internal_r+0x1294>
   23804:	18c000a0 	cmpeqi	r3,r3,2
   23808:	18014b1e 	bne	r3,zero,23d38 <___vfiprintf_internal_r+0xe60>
   2380c:	9839883a 	mov	fp,r19
   23810:	a808977a 	slli	r4,r21,29
   23814:	b006d0fa 	srli	r3,r22,3
   23818:	a82ad0fa 	srli	r21,r21,3
   2381c:	b08001cc 	andi	r2,r22,7
   23820:	10800c04 	addi	r2,r2,48
   23824:	20ecb03a 	or	r22,r4,r3
   23828:	e0bfffc5 	stb	r2,-1(fp)
   2382c:	b546b03a 	or	r3,r22,r21
   23830:	e00b883a 	mov	r5,fp
   23834:	e73fffc4 	addi	fp,fp,-1
   23838:	183ff51e 	bne	r3,zero,23810 <___vfiprintf_internal_r+0x938>
   2383c:	80c0004c 	andi	r3,r16,1
   23840:	18014a26 	beq	r3,zero,23d6c <___vfiprintf_internal_r+0xe94>
   23844:	10800c18 	cmpnei	r2,r2,48
   23848:	10014826 	beq	r2,zero,23d6c <___vfiprintf_internal_r+0xe94>
   2384c:	297fff84 	addi	r5,r5,-2
   23850:	00800c04 	movi	r2,48
   23854:	e0bfffc5 	stb	r2,-1(fp)
   23858:	996bc83a 	sub	r21,r19,r5
   2385c:	482d883a 	mov	r22,r9
   23860:	4d41a916 	blt	r9,r21,23f08 <___vfiprintf_internal_r+0x1030>
   23864:	2839883a 	mov	fp,r5
   23868:	003e5406 	br	231bc <___vfiprintf_internal_r+0x2e4>
   2386c:	d8800317 	ldw	r2,12(sp)
   23870:	d8000945 	stb	zero,37(sp)
   23874:	17000017 	ldw	fp,0(r2)
   23878:	10c00104 	addi	r3,r2,4
   2387c:	e001f926 	beq	fp,zero,24064 <___vfiprintf_internal_r+0x118c>
   23880:	48bfffe0 	cmpeqi	r2,r9,-1
   23884:	1001a31e 	bne	r2,zero,23f14 <___vfiprintf_internal_r+0x103c>
   23888:	480d883a 	mov	r6,r9
   2388c:	000b883a 	mov	r5,zero
   23890:	e009883a 	mov	r4,fp
   23894:	d8c00415 	stw	r3,16(sp)
   23898:	da000315 	stw	r8,12(sp)
   2389c:	da400215 	stw	r9,8(sp)
   238a0:	00252a00 	call	252a0 <memchr>
   238a4:	da400217 	ldw	r9,8(sp)
   238a8:	da000317 	ldw	r8,12(sp)
   238ac:	d8c00417 	ldw	r3,16(sp)
   238b0:	10020726 	beq	r2,zero,240d0 <___vfiprintf_internal_r+0x11f8>
   238b4:	172bc83a 	sub	r21,r2,fp
   238b8:	db000943 	ldbu	r12,37(sp)
   238bc:	a82d883a 	mov	r22,r21
   238c0:	a8019e16 	blt	r21,zero,23f3c <___vfiprintf_internal_r+0x1064>
   238c4:	d8c00315 	stw	r3,12(sp)
   238c8:	0013883a 	mov	r9,zero
   238cc:	003f4506 	br	235e4 <___vfiprintf_internal_r+0x70c>
   238d0:	a0800007 	ldb	r2,0(r20)
   238d4:	84000814 	ori	r16,r16,32
   238d8:	003dc106 	br	22fe0 <___vfiprintf_internal_r+0x108>
   238dc:	d9000317 	ldw	r4,12(sp)
   238e0:	00de0c04 	movi	r3,30768
   238e4:	014000f4 	movhi	r5,3
   238e8:	d8c0098d 	sth	r3,38(sp)
   238ec:	25800017 	ldw	r22,0(r4)
   238f0:	20c00104 	addi	r3,r4,4
   238f4:	d8c00315 	stw	r3,12(sp)
   238f8:	28c11d04 	addi	r3,r5,1140
   238fc:	002b883a 	mov	r21,zero
   23900:	80800094 	ori	r2,r16,2
   23904:	d8c00515 	stw	r3,20(sp)
   23908:	d8000945 	stb	zero,37(sp)
   2390c:	48ffffd8 	cmpnei	r3,r9,-1
   23910:	18010826 	beq	r3,zero,23d34 <___vfiprintf_internal_r+0xe5c>
   23914:	00c00084 	movi	r3,2
   23918:	003f9b06 	br	23788 <___vfiprintf_internal_r+0x8b0>
   2391c:	9839883a 	mov	fp,r19
   23920:	b009883a 	mov	r4,r22
   23924:	a80b883a 	mov	r5,r21
   23928:	01800284 	movi	r6,10
   2392c:	000f883a 	mov	r7,zero
   23930:	db000615 	stw	r12,24(sp)
   23934:	da000415 	stw	r8,16(sp)
   23938:	da400215 	stw	r9,8(sp)
   2393c:	002af200 	call	2af20 <__umoddi3>
   23940:	10800c04 	addi	r2,r2,48
   23944:	b009883a 	mov	r4,r22
   23948:	a80b883a 	mov	r5,r21
   2394c:	e0bfffc5 	stb	r2,-1(fp)
   23950:	01800284 	movi	r6,10
   23954:	000f883a 	mov	r7,zero
   23958:	002a9480 	call	2a948 <__udivdi3>
   2395c:	a809883a 	mov	r4,r21
   23960:	b00b883a 	mov	r5,r22
   23964:	da400217 	ldw	r9,8(sp)
   23968:	da000417 	ldw	r8,16(sp)
   2396c:	db000617 	ldw	r12,24(sp)
   23970:	e73fffc4 	addi	fp,fp,-1
   23974:	102d883a 	mov	r22,r2
   23978:	182b883a 	mov	r21,r3
   2397c:	203fe81e 	bne	r4,zero,23920 <___vfiprintf_internal_r+0xa48>
   23980:	294002a8 	cmpgeui	r5,r5,10
   23984:	283fe61e 	bne	r5,zero,23920 <___vfiprintf_internal_r+0xa48>
   23988:	9f2bc83a 	sub	r21,r19,fp
   2398c:	482d883a 	mov	r22,r9
   23990:	4d7f140e 	bge	r9,r21,235e4 <___vfiprintf_internal_r+0x70c>
   23994:	a82d883a 	mov	r22,r21
   23998:	003f1206 	br	235e4 <___vfiprintf_internal_r+0x70c>
   2399c:	00c00044 	movi	r3,1
   239a0:	a805883a 	mov	r2,r21
   239a4:	df001715 	stw	fp,92(sp)
   239a8:	dd401815 	stw	r21,96(sp)
   239ac:	dd400c15 	stw	r21,48(sp)
   239b0:	d8c00b15 	stw	r3,44(sp)
   239b4:	9811883a 	mov	r8,r19
   239b8:	42000204 	addi	r8,r8,8
   239bc:	003e4306 	br	232cc <___vfiprintf_internal_r+0x3f4>
   239c0:	01400044 	movi	r5,1
   239c4:	0009883a 	mov	r4,zero
   239c8:	9811883a 	mov	r8,r19
   239cc:	003eb906 	br	234b4 <___vfiprintf_internal_r+0x5dc>
   239d0:	8d87c83a 	sub	r3,r17,r22
   239d4:	00fe2c0e 	bge	zero,r3,23288 <___vfiprintf_internal_r+0x3b0>
   239d8:	19800450 	cmplti	r6,r3,17
   239dc:	3001c61e 	bne	r6,zero,240f8 <___vfiprintf_internal_r+0x1220>
   239e0:	014000f4 	movhi	r5,3
   239e4:	29412d04 	addi	r5,r5,1204
   239e8:	d9400415 	stw	r5,16(sp)
   239ec:	01c00404 	movi	r7,16
   239f0:	00000606 	br	23a0c <___vfiprintf_internal_r+0xb34>
   239f4:	21800084 	addi	r6,r4,2
   239f8:	42000204 	addi	r8,r8,8
   239fc:	2809883a 	mov	r4,r5
   23a00:	18fffc04 	addi	r3,r3,-16
   23a04:	19400448 	cmpgei	r5,r3,17
   23a08:	28001b26 	beq	r5,zero,23a78 <___vfiprintf_internal_r+0xba0>
   23a0c:	d9800417 	ldw	r6,16(sp)
   23a10:	21400044 	addi	r5,r4,1
   23a14:	10800404 	addi	r2,r2,16
   23a18:	41800015 	stw	r6,0(r8)
   23a1c:	41c00115 	stw	r7,4(r8)
   23a20:	d8800c15 	stw	r2,48(sp)
   23a24:	d9400b15 	stw	r5,44(sp)
   23a28:	29800208 	cmpgei	r6,r5,8
   23a2c:	303ff126 	beq	r6,zero,239f4 <___vfiprintf_internal_r+0xb1c>
   23a30:	d9000017 	ldw	r4,0(sp)
   23a34:	d9800a04 	addi	r6,sp,40
   23a38:	900b883a 	mov	r5,r18
   23a3c:	10005c26 	beq	r2,zero,23bb0 <___vfiprintf_internal_r+0xcd8>
   23a40:	d8c00615 	stw	r3,24(sp)
   23a44:	da400215 	stw	r9,8(sp)
   23a48:	0022dcc0 	call	22dcc <__sprint_r.part.0>
   23a4c:	103e2f1e 	bne	r2,zero,2330c <___vfiprintf_internal_r+0x434>
   23a50:	d8c00617 	ldw	r3,24(sp)
   23a54:	d9000b17 	ldw	r4,44(sp)
   23a58:	d8800c17 	ldw	r2,48(sp)
   23a5c:	18fffc04 	addi	r3,r3,-16
   23a60:	19400448 	cmpgei	r5,r3,17
   23a64:	da400217 	ldw	r9,8(sp)
   23a68:	9811883a 	mov	r8,r19
   23a6c:	21800044 	addi	r6,r4,1
   23a70:	01c00404 	movi	r7,16
   23a74:	283fe51e 	bne	r5,zero,23a0c <___vfiprintf_internal_r+0xb34>
   23a78:	d9000417 	ldw	r4,16(sp)
   23a7c:	10c5883a 	add	r2,r2,r3
   23a80:	40c00115 	stw	r3,4(r8)
   23a84:	41000015 	stw	r4,0(r8)
   23a88:	d8800c15 	stw	r2,48(sp)
   23a8c:	d9800b15 	stw	r6,44(sp)
   23a90:	30c00208 	cmpgei	r3,r6,8
   23a94:	18010b26 	beq	r3,zero,23ec4 <___vfiprintf_internal_r+0xfec>
   23a98:	10017e26 	beq	r2,zero,24094 <___vfiprintf_internal_r+0x11bc>
   23a9c:	d9000017 	ldw	r4,0(sp)
   23aa0:	d9800a04 	addi	r6,sp,40
   23aa4:	900b883a 	mov	r5,r18
   23aa8:	da400215 	stw	r9,8(sp)
   23aac:	0022dcc0 	call	22dcc <__sprint_r.part.0>
   23ab0:	103e161e 	bne	r2,zero,2330c <___vfiprintf_internal_r+0x434>
   23ab4:	da400217 	ldw	r9,8(sp)
   23ab8:	d9000b17 	ldw	r4,44(sp)
   23abc:	d8800c17 	ldw	r2,48(sp)
   23ac0:	4d53c83a 	sub	r9,r9,r21
   23ac4:	9811883a 	mov	r8,r19
   23ac8:	21400044 	addi	r5,r4,1
   23acc:	027df00e 	bge	zero,r9,23290 <___vfiprintf_internal_r+0x3b8>
   23ad0:	48c00450 	cmplti	r3,r9,17
   23ad4:	18016b1e 	bne	r3,zero,24084 <___vfiprintf_internal_r+0x11ac>
   23ad8:	ddc00415 	stw	r23,16(sp)
   23adc:	01c00404 	movi	r7,16
   23ae0:	00000606 	br	23afc <___vfiprintf_internal_r+0xc24>
   23ae4:	21400084 	addi	r5,r4,2
   23ae8:	42000204 	addi	r8,r8,8
   23aec:	1809883a 	mov	r4,r3
   23af0:	4a7ffc04 	addi	r9,r9,-16
   23af4:	48c00448 	cmpgei	r3,r9,17
   23af8:	18001826 	beq	r3,zero,23b5c <___vfiprintf_internal_r+0xc84>
   23afc:	20c00044 	addi	r3,r4,1
   23b00:	10800404 	addi	r2,r2,16
   23b04:	45c00015 	stw	r23,0(r8)
   23b08:	41c00115 	stw	r7,4(r8)
   23b0c:	d8800c15 	stw	r2,48(sp)
   23b10:	d8c00b15 	stw	r3,44(sp)
   23b14:	19400208 	cmpgei	r5,r3,8
   23b18:	283ff226 	beq	r5,zero,23ae4 <___vfiprintf_internal_r+0xc0c>
   23b1c:	d9000017 	ldw	r4,0(sp)
   23b20:	d9800a04 	addi	r6,sp,40
   23b24:	900b883a 	mov	r5,r18
   23b28:	10001726 	beq	r2,zero,23b88 <___vfiprintf_internal_r+0xcb0>
   23b2c:	da400215 	stw	r9,8(sp)
   23b30:	0022dcc0 	call	22dcc <__sprint_r.part.0>
   23b34:	103df51e 	bne	r2,zero,2330c <___vfiprintf_internal_r+0x434>
   23b38:	da400217 	ldw	r9,8(sp)
   23b3c:	d9000b17 	ldw	r4,44(sp)
   23b40:	d8800c17 	ldw	r2,48(sp)
   23b44:	4a7ffc04 	addi	r9,r9,-16
   23b48:	48c00448 	cmpgei	r3,r9,17
   23b4c:	9811883a 	mov	r8,r19
   23b50:	21400044 	addi	r5,r4,1
   23b54:	01c00404 	movi	r7,16
   23b58:	183fe81e 	bne	r3,zero,23afc <___vfiprintf_internal_r+0xc24>
   23b5c:	d8c00417 	ldw	r3,16(sp)
   23b60:	1245883a 	add	r2,r2,r9
   23b64:	42400115 	stw	r9,4(r8)
   23b68:	40c00015 	stw	r3,0(r8)
   23b6c:	d8800c15 	stw	r2,48(sp)
   23b70:	d9400b15 	stw	r5,44(sp)
   23b74:	28c00208 	cmpgei	r3,r5,8
   23b78:	1800811e 	bne	r3,zero,23d80 <___vfiprintf_internal_r+0xea8>
   23b7c:	42000204 	addi	r8,r8,8
   23b80:	29400044 	addi	r5,r5,1
   23b84:	003dc206 	br	23290 <___vfiprintf_internal_r+0x3b8>
   23b88:	01400044 	movi	r5,1
   23b8c:	0009883a 	mov	r4,zero
   23b90:	9811883a 	mov	r8,r19
   23b94:	003fd606 	br	23af0 <___vfiprintf_internal_r+0xc18>
   23b98:	d9000017 	ldw	r4,0(sp)
   23b9c:	d9800a04 	addi	r6,sp,40
   23ba0:	900b883a 	mov	r5,r18
   23ba4:	0022dcc0 	call	22dcc <__sprint_r.part.0>
   23ba8:	103dd226 	beq	r2,zero,232f4 <___vfiprintf_internal_r+0x41c>
   23bac:	003dd706 	br	2330c <___vfiprintf_internal_r+0x434>
   23bb0:	01800044 	movi	r6,1
   23bb4:	0009883a 	mov	r4,zero
   23bb8:	9811883a 	mov	r8,r19
   23bbc:	003f9006 	br	23a00 <___vfiprintf_internal_r+0xb28>
   23bc0:	10001026 	beq	r2,zero,23c04 <___vfiprintf_internal_r+0xd2c>
   23bc4:	d9000017 	ldw	r4,0(sp)
   23bc8:	d9800a04 	addi	r6,sp,40
   23bcc:	900b883a 	mov	r5,r18
   23bd0:	da400615 	stw	r9,24(sp)
   23bd4:	db000415 	stw	r12,16(sp)
   23bd8:	db400215 	stw	r13,8(sp)
   23bdc:	0022dcc0 	call	22dcc <__sprint_r.part.0>
   23be0:	103dca1e 	bne	r2,zero,2330c <___vfiprintf_internal_r+0x434>
   23be4:	d9000b17 	ldw	r4,44(sp)
   23be8:	d8800c17 	ldw	r2,48(sp)
   23bec:	da400617 	ldw	r9,24(sp)
   23bf0:	db000417 	ldw	r12,16(sp)
   23bf4:	db400217 	ldw	r13,8(sp)
   23bf8:	9811883a 	mov	r8,r19
   23bfc:	21400044 	addi	r5,r4,1
   23c00:	003d8706 	br	23220 <___vfiprintf_internal_r+0x348>
   23c04:	6800bc26 	beq	r13,zero,23ef8 <___vfiprintf_internal_r+0x1020>
   23c08:	d8800984 	addi	r2,sp,38
   23c0c:	d8801715 	stw	r2,92(sp)
   23c10:	00800084 	movi	r2,2
   23c14:	d8801815 	stw	r2,96(sp)
   23c18:	01400044 	movi	r5,1
   23c1c:	9811883a 	mov	r8,r19
   23c20:	2809883a 	mov	r4,r5
   23c24:	42000204 	addi	r8,r8,8
   23c28:	29400044 	addi	r5,r5,1
   23c2c:	003d9406 	br	23280 <___vfiprintf_internal_r+0x3a8>
   23c30:	19400450 	cmplti	r5,r3,17
   23c34:	01c000f4 	movhi	r7,3
   23c38:	2801291e 	bne	r5,zero,240e0 <___vfiprintf_internal_r+0x1208>
   23c3c:	39c13104 	addi	r7,r7,1220
   23c40:	03800404 	movi	r14,16
   23c44:	00000706 	br	23c64 <___vfiprintf_internal_r+0xd8c>
   23c48:	23c00084 	addi	r15,r4,2
   23c4c:	42000204 	addi	r8,r8,8
   23c50:	3009883a 	mov	r4,r6
   23c54:	18fffc04 	addi	r3,r3,-16
   23c58:	19400448 	cmpgei	r5,r3,17
   23c5c:	28002026 	beq	r5,zero,23ce0 <___vfiprintf_internal_r+0xe08>
   23c60:	21800044 	addi	r6,r4,1
   23c64:	10800404 	addi	r2,r2,16
   23c68:	41c00015 	stw	r7,0(r8)
   23c6c:	43800115 	stw	r14,4(r8)
   23c70:	d8800c15 	stw	r2,48(sp)
   23c74:	d9800b15 	stw	r6,44(sp)
   23c78:	31400208 	cmpgei	r5,r6,8
   23c7c:	283ff226 	beq	r5,zero,23c48 <___vfiprintf_internal_r+0xd70>
   23c80:	d9000017 	ldw	r4,0(sp)
   23c84:	d9800a04 	addi	r6,sp,40
   23c88:	900b883a 	mov	r5,r18
   23c8c:	10001f26 	beq	r2,zero,23d0c <___vfiprintf_internal_r+0xe34>
   23c90:	d9c00815 	stw	r7,32(sp)
   23c94:	d8c00715 	stw	r3,28(sp)
   23c98:	da400615 	stw	r9,24(sp)
   23c9c:	db000415 	stw	r12,16(sp)
   23ca0:	db400215 	stw	r13,8(sp)
   23ca4:	0022dcc0 	call	22dcc <__sprint_r.part.0>
   23ca8:	103d981e 	bne	r2,zero,2330c <___vfiprintf_internal_r+0x434>
   23cac:	d8c00717 	ldw	r3,28(sp)
   23cb0:	d9000b17 	ldw	r4,44(sp)
   23cb4:	d8800c17 	ldw	r2,48(sp)
   23cb8:	18fffc04 	addi	r3,r3,-16
   23cbc:	19400448 	cmpgei	r5,r3,17
   23cc0:	d9c00817 	ldw	r7,32(sp)
   23cc4:	da400617 	ldw	r9,24(sp)
   23cc8:	db000417 	ldw	r12,16(sp)
   23ccc:	db400217 	ldw	r13,8(sp)
   23cd0:	9811883a 	mov	r8,r19
   23cd4:	23c00044 	addi	r15,r4,1
   23cd8:	03800404 	movi	r14,16
   23cdc:	283fe01e 	bne	r5,zero,23c60 <___vfiprintf_internal_r+0xd88>
   23ce0:	10c5883a 	add	r2,r2,r3
   23ce4:	40c00115 	stw	r3,4(r8)
   23ce8:	41c00015 	stw	r7,0(r8)
   23cec:	d8800c15 	stw	r2,48(sp)
   23cf0:	dbc00b15 	stw	r15,44(sp)
   23cf4:	78c00208 	cmpgei	r3,r15,8
   23cf8:	1800511e 	bne	r3,zero,23e40 <___vfiprintf_internal_r+0xf68>
   23cfc:	42000204 	addi	r8,r8,8
   23d00:	79400044 	addi	r5,r15,1
   23d04:	7809883a 	mov	r4,r15
   23d08:	003d3706 	br	231e8 <___vfiprintf_internal_r+0x310>
   23d0c:	0009883a 	mov	r4,zero
   23d10:	03c00044 	movi	r15,1
   23d14:	9811883a 	mov	r8,r19
   23d18:	003fce06 	br	23c54 <___vfiprintf_internal_r+0xd7c>
   23d1c:	8d80010e 	bge	r17,r22,23d24 <___vfiprintf_internal_r+0xe4c>
   23d20:	b023883a 	mov	r17,r22
   23d24:	d8800117 	ldw	r2,4(sp)
   23d28:	1445883a 	add	r2,r2,r17
   23d2c:	d8800115 	stw	r2,4(sp)
   23d30:	003d7006 	br	232f4 <___vfiprintf_internal_r+0x41c>
   23d34:	1021883a 	mov	r16,r2
   23d38:	9839883a 	mov	fp,r19
   23d3c:	d9000517 	ldw	r4,20(sp)
   23d40:	b08003cc 	andi	r2,r22,15
   23d44:	a806973a 	slli	r3,r21,28
   23d48:	b02cd13a 	srli	r22,r22,4
   23d4c:	2085883a 	add	r2,r4,r2
   23d50:	10800003 	ldbu	r2,0(r2)
   23d54:	a82ad13a 	srli	r21,r21,4
   23d58:	1dacb03a 	or	r22,r3,r22
   23d5c:	e0bfffc5 	stb	r2,-1(fp)
   23d60:	b544b03a 	or	r2,r22,r21
   23d64:	e73fffc4 	addi	fp,fp,-1
   23d68:	103ff41e 	bne	r2,zero,23d3c <___vfiprintf_internal_r+0xe64>
   23d6c:	9f2bc83a 	sub	r21,r19,fp
   23d70:	482d883a 	mov	r22,r9
   23d74:	4d7d110e 	bge	r9,r21,231bc <___vfiprintf_internal_r+0x2e4>
   23d78:	a82d883a 	mov	r22,r21
   23d7c:	003d0f06 	br	231bc <___vfiprintf_internal_r+0x2e4>
   23d80:	103f0626 	beq	r2,zero,2399c <___vfiprintf_internal_r+0xac4>
   23d84:	d9000017 	ldw	r4,0(sp)
   23d88:	d9800a04 	addi	r6,sp,40
   23d8c:	900b883a 	mov	r5,r18
   23d90:	0022dcc0 	call	22dcc <__sprint_r.part.0>
   23d94:	103d5d1e 	bne	r2,zero,2330c <___vfiprintf_internal_r+0x434>
   23d98:	d9400b17 	ldw	r5,44(sp)
   23d9c:	d8800c17 	ldw	r2,48(sp)
   23da0:	9811883a 	mov	r8,r19
   23da4:	29400044 	addi	r5,r5,1
   23da8:	003d3906 	br	23290 <___vfiprintf_internal_r+0x3b8>
   23dac:	d8000b15 	stw	zero,44(sp)
   23db0:	003dae06 	br	2346c <___vfiprintf_internal_r+0x594>
   23db4:	d9000317 	ldw	r4,12(sp)
   23db8:	10c0040c 	andi	r3,r2,16
   23dbc:	25800017 	ldw	r22,0(r4)
   23dc0:	21000104 	addi	r4,r4,4
   23dc4:	d9000315 	stw	r4,12(sp)
   23dc8:	1800031e 	bne	r3,zero,23dd8 <___vfiprintf_internal_r+0xf00>
   23dcc:	10c0100c 	andi	r3,r2,64
   23dd0:	18000126 	beq	r3,zero,23dd8 <___vfiprintf_internal_r+0xf00>
   23dd4:	b5bfffcc 	andi	r22,r22,65535
   23dd8:	d8000945 	stb	zero,37(sp)
   23ddc:	48ffffd8 	cmpnei	r3,r9,-1
   23de0:	002b883a 	mov	r21,zero
   23de4:	183e671e 	bne	r3,zero,23784 <___vfiprintf_internal_r+0x8ac>
   23de8:	1021883a 	mov	r16,r2
   23dec:	0019883a 	mov	r12,zero
   23df0:	003df206 	br	235bc <___vfiprintf_internal_r+0x6e4>
   23df4:	d9000317 	ldw	r4,12(sp)
   23df8:	10c0040c 	andi	r3,r2,16
   23dfc:	25800017 	ldw	r22,0(r4)
   23e00:	21000104 	addi	r4,r4,4
   23e04:	d9000315 	stw	r4,12(sp)
   23e08:	1800031e 	bne	r3,zero,23e18 <___vfiprintf_internal_r+0xf40>
   23e0c:	10c0100c 	andi	r3,r2,64
   23e10:	18000126 	beq	r3,zero,23e18 <___vfiprintf_internal_r+0xf40>
   23e14:	b5bfffcc 	andi	r22,r22,65535
   23e18:	d8000945 	stb	zero,37(sp)
   23e1c:	48ffffd8 	cmpnei	r3,r9,-1
   23e20:	002b883a 	mov	r21,zero
   23e24:	183e701e 	bne	r3,zero,237e8 <___vfiprintf_internal_r+0x910>
   23e28:	1021883a 	mov	r16,r2
   23e2c:	003e7706 	br	2380c <___vfiprintf_internal_r+0x934>
   23e30:	01400044 	movi	r5,1
   23e34:	0009883a 	mov	r4,zero
   23e38:	9811883a 	mov	r8,r19
   23e3c:	003d1006 	br	23280 <___vfiprintf_internal_r+0x3a8>
   23e40:	10005f26 	beq	r2,zero,23fc0 <___vfiprintf_internal_r+0x10e8>
   23e44:	d9000017 	ldw	r4,0(sp)
   23e48:	d9800a04 	addi	r6,sp,40
   23e4c:	900b883a 	mov	r5,r18
   23e50:	da400615 	stw	r9,24(sp)
   23e54:	db000415 	stw	r12,16(sp)
   23e58:	db400215 	stw	r13,8(sp)
   23e5c:	0022dcc0 	call	22dcc <__sprint_r.part.0>
   23e60:	103d2a1e 	bne	r2,zero,2330c <___vfiprintf_internal_r+0x434>
   23e64:	d9000b17 	ldw	r4,44(sp)
   23e68:	d8800c17 	ldw	r2,48(sp)
   23e6c:	da400617 	ldw	r9,24(sp)
   23e70:	db000417 	ldw	r12,16(sp)
   23e74:	db400217 	ldw	r13,8(sp)
   23e78:	9811883a 	mov	r8,r19
   23e7c:	21400044 	addi	r5,r4,1
   23e80:	003cd906 	br	231e8 <___vfiprintf_internal_r+0x310>
   23e84:	d8000945 	stb	zero,37(sp)
   23e88:	48bfffd8 	cmpnei	r2,r9,-1
   23e8c:	103faa26 	beq	r2,zero,23d38 <___vfiprintf_internal_r+0xe60>
   23e90:	00bfdfc4 	movi	r2,-129
   23e94:	80a0703a 	and	r16,r16,r2
   23e98:	4800661e 	bne	r9,zero,24034 <___vfiprintf_internal_r+0x115c>
   23e9c:	002d883a 	mov	r22,zero
   23ea0:	002b883a 	mov	r21,zero
   23ea4:	9839883a 	mov	fp,r19
   23ea8:	003cc406 	br	231bc <___vfiprintf_internal_r+0x2e4>
   23eac:	a0800007 	ldb	r2,0(r20)
   23eb0:	df000315 	stw	fp,12(sp)
   23eb4:	003c4a06 	br	22fe0 <___vfiprintf_internal_r+0x108>
   23eb8:	002d883a 	mov	r22,zero
   23ebc:	9839883a 	mov	fp,r19
   23ec0:	003cbe06 	br	231bc <___vfiprintf_internal_r+0x2e4>
   23ec4:	42000204 	addi	r8,r8,8
   23ec8:	31400044 	addi	r5,r6,1
   23ecc:	3009883a 	mov	r4,r6
   23ed0:	003ced06 	br	23288 <___vfiprintf_internal_r+0x3b0>
   23ed4:	8080040c 	andi	r2,r16,16
   23ed8:	1000421e 	bne	r2,zero,23fe4 <___vfiprintf_internal_r+0x110c>
   23edc:	8400100c 	andi	r16,r16,64
   23ee0:	80004026 	beq	r16,zero,23fe4 <___vfiprintf_internal_r+0x110c>
   23ee4:	d8800317 	ldw	r2,12(sp)
   23ee8:	d8c00117 	ldw	r3,4(sp)
   23eec:	10800017 	ldw	r2,0(r2)
   23ef0:	10c0000d 	sth	r3,0(r2)
   23ef4:	003e0206 	br	23700 <___vfiprintf_internal_r+0x828>
   23ef8:	0009883a 	mov	r4,zero
   23efc:	01400044 	movi	r5,1
   23f00:	9811883a 	mov	r8,r19
   23f04:	003cde06 	br	23280 <___vfiprintf_internal_r+0x3a8>
   23f08:	a82d883a 	mov	r22,r21
   23f0c:	2839883a 	mov	fp,r5
   23f10:	003caa06 	br	231bc <___vfiprintf_internal_r+0x2e4>
   23f14:	e009883a 	mov	r4,fp
   23f18:	d8c00315 	stw	r3,12(sp)
   23f1c:	da000215 	stw	r8,8(sp)
   23f20:	00257040 	call	25704 <strlen>
   23f24:	db000943 	ldbu	r12,37(sp)
   23f28:	da000217 	ldw	r8,8(sp)
   23f2c:	d8c00317 	ldw	r3,12(sp)
   23f30:	102b883a 	mov	r21,r2
   23f34:	102d883a 	mov	r22,r2
   23f38:	103e620e 	bge	r2,zero,238c4 <___vfiprintf_internal_r+0x9ec>
   23f3c:	002d883a 	mov	r22,zero
   23f40:	003e6006 	br	238c4 <___vfiprintf_internal_r+0x9ec>
   23f44:	8005883a 	mov	r2,r16
   23f48:	003e0406 	br	2375c <___vfiprintf_internal_r+0x884>
   23f4c:	00c000f4 	movhi	r3,3
   23f50:	18c11804 	addi	r3,r3,1120
   23f54:	d8c00515 	stw	r3,20(sp)
   23f58:	80c0080c 	andi	r3,r16,32
   23f5c:	18002826 	beq	r3,zero,24000 <___vfiprintf_internal_r+0x1128>
   23f60:	d8c00317 	ldw	r3,12(sp)
   23f64:	1d800017 	ldw	r22,0(r3)
   23f68:	1d400117 	ldw	r21,4(r3)
   23f6c:	18c00204 	addi	r3,r3,8
   23f70:	d8c00315 	stw	r3,12(sp)
   23f74:	80c0004c 	andi	r3,r16,1
   23f78:	18001f26 	beq	r3,zero,23ff8 <___vfiprintf_internal_r+0x1120>
   23f7c:	b546b03a 	or	r3,r22,r21
   23f80:	183fc026 	beq	r3,zero,23e84 <___vfiprintf_internal_r+0xfac>
   23f84:	00c00c04 	movi	r3,48
   23f88:	d8c00985 	stb	r3,38(sp)
   23f8c:	d88009c5 	stb	r2,39(sp)
   23f90:	d8000945 	stb	zero,37(sp)
   23f94:	48bfffd8 	cmpnei	r2,r9,-1
   23f98:	80c00094 	ori	r3,r16,2
   23f9c:	10006f1e 	bne	r2,zero,2415c <___vfiprintf_internal_r+0x1284>
   23fa0:	1821883a 	mov	r16,r3
   23fa4:	003f6406 	br	23d38 <___vfiprintf_internal_r+0xe60>
   23fa8:	8005883a 	mov	r2,r16
   23fac:	003e0406 	br	237c0 <___vfiprintf_internal_r+0x8e8>
   23fb0:	00c000f4 	movhi	r3,3
   23fb4:	18c11d04 	addi	r3,r3,1140
   23fb8:	d8c00515 	stw	r3,20(sp)
   23fbc:	003fe606 	br	23f58 <___vfiprintf_internal_r+0x1080>
   23fc0:	d8c00947 	ldb	r3,37(sp)
   23fc4:	18003926 	beq	r3,zero,240ac <___vfiprintf_internal_r+0x11d4>
   23fc8:	d8800944 	addi	r2,sp,37
   23fcc:	d8801715 	stw	r2,92(sp)
   23fd0:	00800044 	movi	r2,1
   23fd4:	d8801815 	stw	r2,96(sp)
   23fd8:	01400044 	movi	r5,1
   23fdc:	9811883a 	mov	r8,r19
   23fe0:	003c8c06 	br	23214 <___vfiprintf_internal_r+0x33c>
   23fe4:	d8800317 	ldw	r2,12(sp)
   23fe8:	d8c00117 	ldw	r3,4(sp)
   23fec:	10800017 	ldw	r2,0(r2)
   23ff0:	10c00015 	stw	r3,0(r2)
   23ff4:	003dc206 	br	23700 <___vfiprintf_internal_r+0x828>
   23ff8:	8005883a 	mov	r2,r16
   23ffc:	003e4206 	br	23908 <___vfiprintf_internal_r+0xa30>
   24000:	d9000317 	ldw	r4,12(sp)
   24004:	80c0040c 	andi	r3,r16,16
   24008:	25800017 	ldw	r22,0(r4)
   2400c:	21000104 	addi	r4,r4,4
   24010:	d9000315 	stw	r4,12(sp)
   24014:	1800051e 	bne	r3,zero,2402c <___vfiprintf_internal_r+0x1154>
   24018:	80c0100c 	andi	r3,r16,64
   2401c:	18000326 	beq	r3,zero,2402c <___vfiprintf_internal_r+0x1154>
   24020:	b5bfffcc 	andi	r22,r22,65535
   24024:	002b883a 	mov	r21,zero
   24028:	003fd206 	br	23f74 <___vfiprintf_internal_r+0x109c>
   2402c:	002b883a 	mov	r21,zero
   24030:	003fd006 	br	23f74 <___vfiprintf_internal_r+0x109c>
   24034:	002d883a 	mov	r22,zero
   24038:	002b883a 	mov	r21,zero
   2403c:	003f3e06 	br	23d38 <___vfiprintf_internal_r+0xe60>
   24040:	18800060 	cmpeqi	r2,r3,1
   24044:	1000361e 	bne	r2,zero,24120 <___vfiprintf_internal_r+0x1248>
   24048:	18c000a0 	cmpeqi	r3,r3,2
   2404c:	183ff91e 	bne	r3,zero,24034 <___vfiprintf_internal_r+0x115c>
   24050:	002d883a 	mov	r22,zero
   24054:	002b883a 	mov	r21,zero
   24058:	003dec06 	br	2380c <___vfiprintf_internal_r+0x934>
   2405c:	00248740 	call	24874 <__sinit>
   24060:	003baf06 	br	22f20 <___vfiprintf_internal_r+0x48>
   24064:	488001f0 	cmpltui	r2,r9,7
   24068:	482b883a 	mov	r21,r9
   2406c:	10000d26 	beq	r2,zero,240a4 <___vfiprintf_internal_r+0x11cc>
   24070:	070000f4 	movhi	fp,3
   24074:	a82d883a 	mov	r22,r21
   24078:	d8c00315 	stw	r3,12(sp)
   2407c:	e7012204 	addi	fp,fp,1160
   24080:	003c4d06 	br	231b8 <___vfiprintf_internal_r+0x2e0>
   24084:	00c000f4 	movhi	r3,3
   24088:	18c12d04 	addi	r3,r3,1204
   2408c:	d8c00415 	stw	r3,16(sp)
   24090:	003eb206 	br	23b5c <___vfiprintf_internal_r+0xc84>
   24094:	01400044 	movi	r5,1
   24098:	0009883a 	mov	r4,zero
   2409c:	9811883a 	mov	r8,r19
   240a0:	003c7906 	br	23288 <___vfiprintf_internal_r+0x3b0>
   240a4:	05400184 	movi	r21,6
   240a8:	003ff106 	br	24070 <___vfiprintf_internal_r+0x1198>
   240ac:	0009883a 	mov	r4,zero
   240b0:	01400044 	movi	r5,1
   240b4:	9811883a 	mov	r8,r19
   240b8:	003c5906 	br	23220 <___vfiprintf_internal_r+0x348>
   240bc:	d9000017 	ldw	r4,0(sp)
   240c0:	d9800a04 	addi	r6,sp,40
   240c4:	900b883a 	mov	r5,r18
   240c8:	0022dcc0 	call	22dcc <__sprint_r.part.0>
   240cc:	003c8f06 	br	2330c <___vfiprintf_internal_r+0x434>
   240d0:	db000943 	ldbu	r12,37(sp)
   240d4:	482d883a 	mov	r22,r9
   240d8:	482b883a 	mov	r21,r9
   240dc:	003df906 	br	238c4 <___vfiprintf_internal_r+0x9ec>
   240e0:	301f883a 	mov	r15,r6
   240e4:	39c13104 	addi	r7,r7,1220
   240e8:	003efd06 	br	23ce0 <___vfiprintf_internal_r+0xe08>
   240ec:	21400044 	addi	r5,r4,1
   240f0:	39c13104 	addi	r7,r7,1220
   240f4:	003d0906 	br	2351c <___vfiprintf_internal_r+0x644>
   240f8:	010000f4 	movhi	r4,3
   240fc:	21012d04 	addi	r4,r4,1204
   24100:	280d883a 	mov	r6,r5
   24104:	d9000415 	stw	r4,16(sp)
   24108:	003e5b06 	br	23a78 <___vfiprintf_internal_r+0xba0>
   2410c:	00bfffc4 	movi	r2,-1
   24110:	d8800115 	stw	r2,4(sp)
   24114:	003c8006 	br	23318 <___vfiprintf_internal_r+0x440>
   24118:	05800c04 	movi	r22,48
   2411c:	003d2b06 	br	235cc <___vfiprintf_internal_r+0x6f4>
   24120:	0019883a 	mov	r12,zero
   24124:	05800c04 	movi	r22,48
   24128:	003d2806 	br	235cc <___vfiprintf_internal_r+0x6f4>
   2412c:	d8800317 	ldw	r2,12(sp)
   24130:	12400017 	ldw	r9,0(r2)
   24134:	17000104 	addi	fp,r2,4
   24138:	4800010e 	bge	r9,zero,24140 <___vfiprintf_internal_r+0x1268>
   2413c:	027fffc4 	movi	r9,-1
   24140:	a0800043 	ldbu	r2,1(r20)
   24144:	df000315 	stw	fp,12(sp)
   24148:	1829883a 	mov	r20,r3
   2414c:	10803fcc 	andi	r2,r2,255
   24150:	1080201c 	xori	r2,r2,128
   24154:	10bfe004 	addi	r2,r2,-128
   24158:	003ba106 	br	22fe0 <___vfiprintf_internal_r+0x108>
   2415c:	00bfdfc4 	movi	r2,-129
   24160:	8084703a 	and	r2,r16,r2
   24164:	14000094 	ori	r16,r2,2
   24168:	003ef306 	br	23d38 <___vfiprintf_internal_r+0xe60>
   2416c:	0019883a 	mov	r12,zero
   24170:	003d1206 	br	235bc <___vfiprintf_internal_r+0x6e4>

00024174 <__vfiprintf_internal>:
   24174:	00c000f4 	movhi	r3,3
   24178:	2005883a 	mov	r2,r4
   2417c:	1908cd17 	ldw	r4,9012(r3)
   24180:	300f883a 	mov	r7,r6
   24184:	280d883a 	mov	r6,r5
   24188:	100b883a 	mov	r5,r2
   2418c:	0022ed81 	jmpi	22ed8 <___vfiprintf_internal_r>

00024190 <__sbprintf>:
   24190:	28c0038b 	ldhu	r3,14(r5)
   24194:	2880030b 	ldhu	r2,12(r5)
   24198:	2ac01917 	ldw	r11,100(r5)
   2419c:	1806943a 	slli	r3,r3,16
   241a0:	2a800717 	ldw	r10,28(r5)
   241a4:	2a400917 	ldw	r9,36(r5)
   241a8:	defee204 	addi	sp,sp,-1144
   241ac:	10bfff4c 	andi	r2,r2,65533
   241b0:	10c4b03a 	or	r2,r2,r3
   241b4:	da001a04 	addi	r8,sp,104
   241b8:	00c10004 	movi	r3,1024
   241bc:	dc011a15 	stw	r16,1128(sp)
   241c0:	2821883a 	mov	r16,r5
   241c4:	d80b883a 	mov	r5,sp
   241c8:	dc811c15 	stw	r18,1136(sp)
   241cc:	dc411b15 	stw	r17,1132(sp)
   241d0:	dfc11d15 	stw	ra,1140(sp)
   241d4:	2025883a 	mov	r18,r4
   241d8:	dac01915 	stw	r11,100(sp)
   241dc:	d8800315 	stw	r2,12(sp)
   241e0:	da800715 	stw	r10,28(sp)
   241e4:	da400915 	stw	r9,36(sp)
   241e8:	da000015 	stw	r8,0(sp)
   241ec:	da000415 	stw	r8,16(sp)
   241f0:	d8c00215 	stw	r3,8(sp)
   241f4:	d8c00515 	stw	r3,20(sp)
   241f8:	d8000615 	stw	zero,24(sp)
   241fc:	0022ed80 	call	22ed8 <___vfiprintf_internal_r>
   24200:	1023883a 	mov	r17,r2
   24204:	10000d0e 	bge	r2,zero,2423c <__sbprintf+0xac>
   24208:	d880030b 	ldhu	r2,12(sp)
   2420c:	1080100c 	andi	r2,r2,64
   24210:	10000326 	beq	r2,zero,24220 <__sbprintf+0x90>
   24214:	8080030b 	ldhu	r2,12(r16)
   24218:	10801014 	ori	r2,r2,64
   2421c:	8080030d 	sth	r2,12(r16)
   24220:	8805883a 	mov	r2,r17
   24224:	dfc11d17 	ldw	ra,1140(sp)
   24228:	dc811c17 	ldw	r18,1136(sp)
   2422c:	dc411b17 	ldw	r17,1132(sp)
   24230:	dc011a17 	ldw	r16,1128(sp)
   24234:	dec11e04 	addi	sp,sp,1144
   24238:	f800283a 	ret
   2423c:	d80b883a 	mov	r5,sp
   24240:	9009883a 	mov	r4,r18
   24244:	002445c0 	call	2445c <_fflush_r>
   24248:	103fef26 	beq	r2,zero,24208 <__sbprintf+0x78>
   2424c:	047fffc4 	movi	r17,-1
   24250:	003fed06 	br	24208 <__sbprintf+0x78>

00024254 <__sflush_r>:
   24254:	2880030b 	ldhu	r2,12(r5)
   24258:	defffb04 	addi	sp,sp,-20
   2425c:	dcc00315 	stw	r19,12(sp)
   24260:	dc000015 	stw	r16,0(sp)
   24264:	dfc00415 	stw	ra,16(sp)
   24268:	dc800215 	stw	r18,8(sp)
   2426c:	dc400115 	stw	r17,4(sp)
   24270:	10c0020c 	andi	r3,r2,8
   24274:	2821883a 	mov	r16,r5
   24278:	2027883a 	mov	r19,r4
   2427c:	18003c1e 	bne	r3,zero,24370 <__sflush_r+0x11c>
   24280:	29000117 	ldw	r4,4(r5)
   24284:	10c20014 	ori	r3,r2,2048
   24288:	28c0030d 	sth	r3,12(r5)
   2428c:	0100580e 	bge	zero,r4,243f0 <__sflush_r+0x19c>
   24290:	82000a17 	ldw	r8,40(r16)
   24294:	40003426 	beq	r8,zero,24368 <__sflush_r+0x114>
   24298:	9c400017 	ldw	r17,0(r19)
   2429c:	1084000c 	andi	r2,r2,4096
   242a0:	98000015 	stw	zero,0(r19)
   242a4:	81400717 	ldw	r5,28(r16)
   242a8:	1000561e 	bne	r2,zero,24404 <__sflush_r+0x1b0>
   242ac:	000d883a 	mov	r6,zero
   242b0:	01c00044 	movi	r7,1
   242b4:	9809883a 	mov	r4,r19
   242b8:	403ee83a 	callr	r8
   242bc:	100d883a 	mov	r6,r2
   242c0:	10bfffd8 	cmpnei	r2,r2,-1
   242c4:	10005b26 	beq	r2,zero,24434 <__sflush_r+0x1e0>
   242c8:	80c0030b 	ldhu	r3,12(r16)
   242cc:	82000a17 	ldw	r8,40(r16)
   242d0:	18c0010c 	andi	r3,r3,4
   242d4:	18000626 	beq	r3,zero,242f0 <__sflush_r+0x9c>
   242d8:	80c00117 	ldw	r3,4(r16)
   242dc:	80800c17 	ldw	r2,48(r16)
   242e0:	30cdc83a 	sub	r6,r6,r3
   242e4:	10000226 	beq	r2,zero,242f0 <__sflush_r+0x9c>
   242e8:	80800f17 	ldw	r2,60(r16)
   242ec:	308dc83a 	sub	r6,r6,r2
   242f0:	81400717 	ldw	r5,28(r16)
   242f4:	000f883a 	mov	r7,zero
   242f8:	9809883a 	mov	r4,r19
   242fc:	403ee83a 	callr	r8
   24300:	10ffffd8 	cmpnei	r3,r2,-1
   24304:	1800411e 	bne	r3,zero,2440c <__sflush_r+0x1b8>
   24308:	99400017 	ldw	r5,0(r19)
   2430c:	28c007b0 	cmpltui	r3,r5,30
   24310:	18002c26 	beq	r3,zero,243c4 <__sflush_r+0x170>
   24314:	00f7f034 	movhi	r3,57280
   24318:	18ffff84 	addi	r3,r3,-2
   2431c:	1949d83a 	sra	r4,r3,r5
   24320:	80c0030b 	ldhu	r3,12(r16)
   24324:	2100004c 	andi	r4,r4,1
   24328:	2000271e 	bne	r4,zero,243c8 <__sflush_r+0x174>
   2432c:	81000417 	ldw	r4,16(r16)
   24330:	19bdffcc 	andi	r6,r3,63487
   24334:	8180030d 	sth	r6,12(r16)
   24338:	80000115 	stw	zero,4(r16)
   2433c:	81000015 	stw	r4,0(r16)
   24340:	18c4000c 	andi	r3,r3,4096
   24344:	1800431e 	bne	r3,zero,24454 <__sflush_r+0x200>
   24348:	81400c17 	ldw	r5,48(r16)
   2434c:	9c400015 	stw	r17,0(r19)
   24350:	28000526 	beq	r5,zero,24368 <__sflush_r+0x114>
   24354:	80801004 	addi	r2,r16,64
   24358:	28800226 	beq	r5,r2,24364 <__sflush_r+0x110>
   2435c:	9809883a 	mov	r4,r19
   24360:	00276600 	call	27660 <_free_r>
   24364:	80000c15 	stw	zero,48(r16)
   24368:	0005883a 	mov	r2,zero
   2436c:	00001906 	br	243d4 <__sflush_r+0x180>
   24370:	2c800417 	ldw	r18,16(r5)
   24374:	903ffc26 	beq	r18,zero,24368 <__sflush_r+0x114>
   24378:	2c400017 	ldw	r17,0(r5)
   2437c:	108000cc 	andi	r2,r2,3
   24380:	2c800015 	stw	r18,0(r5)
   24384:	8ca3c83a 	sub	r17,r17,r18
   24388:	10001c1e 	bne	r2,zero,243fc <__sflush_r+0x1a8>
   2438c:	28800517 	ldw	r2,20(r5)
   24390:	80800215 	stw	r2,8(r16)
   24394:	04400316 	blt	zero,r17,243a4 <__sflush_r+0x150>
   24398:	003ff306 	br	24368 <__sflush_r+0x114>
   2439c:	90a5883a 	add	r18,r18,r2
   243a0:	047ff10e 	bge	zero,r17,24368 <__sflush_r+0x114>
   243a4:	80800917 	ldw	r2,36(r16)
   243a8:	81400717 	ldw	r5,28(r16)
   243ac:	880f883a 	mov	r7,r17
   243b0:	900d883a 	mov	r6,r18
   243b4:	9809883a 	mov	r4,r19
   243b8:	103ee83a 	callr	r2
   243bc:	88a3c83a 	sub	r17,r17,r2
   243c0:	00bff616 	blt	zero,r2,2439c <__sflush_r+0x148>
   243c4:	80c0030b 	ldhu	r3,12(r16)
   243c8:	18c01014 	ori	r3,r3,64
   243cc:	80c0030d 	sth	r3,12(r16)
   243d0:	00bfffc4 	movi	r2,-1
   243d4:	dfc00417 	ldw	ra,16(sp)
   243d8:	dcc00317 	ldw	r19,12(sp)
   243dc:	dc800217 	ldw	r18,8(sp)
   243e0:	dc400117 	ldw	r17,4(sp)
   243e4:	dc000017 	ldw	r16,0(sp)
   243e8:	dec00504 	addi	sp,sp,20
   243ec:	f800283a 	ret
   243f0:	29000f17 	ldw	r4,60(r5)
   243f4:	013fa616 	blt	zero,r4,24290 <__sflush_r+0x3c>
   243f8:	003fdb06 	br	24368 <__sflush_r+0x114>
   243fc:	0005883a 	mov	r2,zero
   24400:	003fe306 	br	24390 <__sflush_r+0x13c>
   24404:	81801417 	ldw	r6,80(r16)
   24408:	003fb106 	br	242d0 <__sflush_r+0x7c>
   2440c:	80c0030b 	ldhu	r3,12(r16)
   24410:	81000417 	ldw	r4,16(r16)
   24414:	80000115 	stw	zero,4(r16)
   24418:	197dffcc 	andi	r5,r3,63487
   2441c:	8140030d 	sth	r5,12(r16)
   24420:	81000015 	stw	r4,0(r16)
   24424:	18c4000c 	andi	r3,r3,4096
   24428:	183fc726 	beq	r3,zero,24348 <__sflush_r+0xf4>
   2442c:	80801415 	stw	r2,80(r16)
   24430:	003fc506 	br	24348 <__sflush_r+0xf4>
   24434:	98800017 	ldw	r2,0(r19)
   24438:	103fa326 	beq	r2,zero,242c8 <__sflush_r+0x74>
   2443c:	10c00760 	cmpeqi	r3,r2,29
   24440:	1800021e 	bne	r3,zero,2444c <__sflush_r+0x1f8>
   24444:	10800598 	cmpnei	r2,r2,22
   24448:	103fde1e 	bne	r2,zero,243c4 <__sflush_r+0x170>
   2444c:	9c400015 	stw	r17,0(r19)
   24450:	003fc506 	br	24368 <__sflush_r+0x114>
   24454:	283fbc1e 	bne	r5,zero,24348 <__sflush_r+0xf4>
   24458:	003ff406 	br	2442c <__sflush_r+0x1d8>

0002445c <_fflush_r>:
   2445c:	defffd04 	addi	sp,sp,-12
   24460:	dc000115 	stw	r16,4(sp)
   24464:	dfc00215 	stw	ra,8(sp)
   24468:	2021883a 	mov	r16,r4
   2446c:	20000226 	beq	r4,zero,24478 <_fflush_r+0x1c>
   24470:	20800d17 	ldw	r2,52(r4)
   24474:	10000c26 	beq	r2,zero,244a8 <_fflush_r+0x4c>
   24478:	2880030f 	ldh	r2,12(r5)
   2447c:	1000051e 	bne	r2,zero,24494 <_fflush_r+0x38>
   24480:	0005883a 	mov	r2,zero
   24484:	dfc00217 	ldw	ra,8(sp)
   24488:	dc000117 	ldw	r16,4(sp)
   2448c:	dec00304 	addi	sp,sp,12
   24490:	f800283a 	ret
   24494:	8009883a 	mov	r4,r16
   24498:	dfc00217 	ldw	ra,8(sp)
   2449c:	dc000117 	ldw	r16,4(sp)
   244a0:	dec00304 	addi	sp,sp,12
   244a4:	00242541 	jmpi	24254 <__sflush_r>
   244a8:	d9400015 	stw	r5,0(sp)
   244ac:	00248740 	call	24874 <__sinit>
   244b0:	d9400017 	ldw	r5,0(sp)
   244b4:	003ff006 	br	24478 <_fflush_r+0x1c>

000244b8 <fflush>:
   244b8:	20001826 	beq	r4,zero,2451c <fflush+0x64>
   244bc:	008000f4 	movhi	r2,3
   244c0:	200b883a 	mov	r5,r4
   244c4:	1108cd17 	ldw	r4,9012(r2)
   244c8:	20000226 	beq	r4,zero,244d4 <fflush+0x1c>
   244cc:	20800d17 	ldw	r2,52(r4)
   244d0:	10000526 	beq	r2,zero,244e8 <fflush+0x30>
   244d4:	2880030f 	ldh	r2,12(r5)
   244d8:	1000021e 	bne	r2,zero,244e4 <fflush+0x2c>
   244dc:	0005883a 	mov	r2,zero
   244e0:	f800283a 	ret
   244e4:	00242541 	jmpi	24254 <__sflush_r>
   244e8:	defffd04 	addi	sp,sp,-12
   244ec:	d9400115 	stw	r5,4(sp)
   244f0:	d9000015 	stw	r4,0(sp)
   244f4:	dfc00215 	stw	ra,8(sp)
   244f8:	00248740 	call	24874 <__sinit>
   244fc:	d9400117 	ldw	r5,4(sp)
   24500:	d9000017 	ldw	r4,0(sp)
   24504:	2880030f 	ldh	r2,12(r5)
   24508:	10000b1e 	bne	r2,zero,24538 <fflush+0x80>
   2450c:	0005883a 	mov	r2,zero
   24510:	dfc00217 	ldw	ra,8(sp)
   24514:	dec00304 	addi	sp,sp,12
   24518:	f800283a 	ret
   2451c:	018000f4 	movhi	r6,3
   24520:	014000b4 	movhi	r5,2
   24524:	010000f4 	movhi	r4,3
   24528:	3182ea04 	addi	r6,r6,2984
   2452c:	29511704 	addi	r5,r5,17500
   24530:	2102a304 	addi	r4,r4,2700
   24534:	0024d741 	jmpi	24d74 <_fwalk_sglue>
   24538:	dfc00217 	ldw	ra,8(sp)
   2453c:	dec00304 	addi	sp,sp,12
   24540:	00242541 	jmpi	24254 <__sflush_r>

00024544 <__fp_lock>:
   24544:	0005883a 	mov	r2,zero
   24548:	f800283a 	ret

0002454c <stdio_exit_handler>:
   2454c:	018000f4 	movhi	r6,3
   24550:	014000f4 	movhi	r5,3
   24554:	010000f4 	movhi	r4,3
   24558:	3182ea04 	addi	r6,r6,2984
   2455c:	29669504 	addi	r5,r5,-26028
   24560:	2102a304 	addi	r4,r4,2700
   24564:	0024d741 	jmpi	24d74 <_fwalk_sglue>

00024568 <cleanup_stdio>:
   24568:	21400117 	ldw	r5,4(r4)
   2456c:	defffe04 	addi	sp,sp,-8
   24570:	008000f4 	movhi	r2,3
   24574:	dc000015 	stw	r16,0(sp)
   24578:	dfc00115 	stw	ra,4(sp)
   2457c:	108f2204 	addi	r2,r2,15496
   24580:	2021883a 	mov	r16,r4
   24584:	28800126 	beq	r5,r2,2458c <cleanup_stdio+0x24>
   24588:	0029a540 	call	29a54 <_fclose_r>
   2458c:	81400217 	ldw	r5,8(r16)
   24590:	008000f4 	movhi	r2,3
   24594:	108f3c04 	addi	r2,r2,15600
   24598:	28800226 	beq	r5,r2,245a4 <cleanup_stdio+0x3c>
   2459c:	8009883a 	mov	r4,r16
   245a0:	0029a540 	call	29a54 <_fclose_r>
   245a4:	81400317 	ldw	r5,12(r16)
   245a8:	008000f4 	movhi	r2,3
   245ac:	108f5604 	addi	r2,r2,15704
   245b0:	28800526 	beq	r5,r2,245c8 <cleanup_stdio+0x60>
   245b4:	8009883a 	mov	r4,r16
   245b8:	dfc00117 	ldw	ra,4(sp)
   245bc:	dc000017 	ldw	r16,0(sp)
   245c0:	dec00204 	addi	sp,sp,8
   245c4:	0029a541 	jmpi	29a54 <_fclose_r>
   245c8:	dfc00117 	ldw	ra,4(sp)
   245cc:	dc000017 	ldw	r16,0(sp)
   245d0:	dec00204 	addi	sp,sp,8
   245d4:	f800283a 	ret

000245d8 <__fp_unlock>:
   245d8:	0005883a 	mov	r2,zero
   245dc:	f800283a 	ret

000245e0 <global_stdio_init.part.0>:
   245e0:	008000b4 	movhi	r2,2
   245e4:	defffa04 	addi	sp,sp,-24
   245e8:	00c000f4 	movhi	r3,3
   245ec:	10915304 	addi	r2,r2,17740
   245f0:	dc000015 	stw	r16,0(sp)
   245f4:	188f1515 	stw	r2,15444(r3)
   245f8:	040000f4 	movhi	r16,3
   245fc:	008000f4 	movhi	r2,3
   24600:	010000f4 	movhi	r4,3
   24604:	840f2204 	addi	r16,r16,15496
   24608:	dfc00515 	stw	ra,20(sp)
   2460c:	dd000415 	stw	r20,16(sp)
   24610:	dcc00315 	stw	r19,12(sp)
   24614:	dc800215 	stw	r18,8(sp)
   24618:	dc400115 	stw	r17,4(sp)
   2461c:	01800204 	movi	r6,8
   24620:	000b883a 	mov	r5,zero
   24624:	210f3904 	addi	r4,r4,15588
   24628:	100f2215 	stw	zero,15496(r2)
   2462c:	00800104 	movi	r2,4
   24630:	80000115 	stw	zero,4(r16)
   24634:	80000215 	stw	zero,8(r16)
   24638:	80001915 	stw	zero,100(r16)
   2463c:	80800315 	stw	r2,12(r16)
   24640:	80000415 	stw	zero,16(r16)
   24644:	80000515 	stw	zero,20(r16)
   24648:	80000615 	stw	zero,24(r16)
   2464c:	00255c40 	call	255c4 <memset>
   24650:	050000b4 	movhi	r20,2
   24654:	04c000b4 	movhi	r19,2
   24658:	048000b4 	movhi	r18,2
   2465c:	044000b4 	movhi	r17,2
   24660:	00800074 	movhi	r2,1
   24664:	010000f4 	movhi	r4,3
   24668:	a5138704 	addi	r20,r20,19996
   2466c:	9cd39e04 	addi	r19,r19,20088
   24670:	9493be04 	addi	r18,r18,20216
   24674:	8c53d504 	addi	r17,r17,20308
   24678:	10800284 	addi	r2,r2,10
   2467c:	01800204 	movi	r6,8
   24680:	000b883a 	mov	r5,zero
   24684:	210f5304 	addi	r4,r4,15692
   24688:	84000715 	stw	r16,28(r16)
   2468c:	85000815 	stw	r20,32(r16)
   24690:	84c00915 	stw	r19,36(r16)
   24694:	84800a15 	stw	r18,40(r16)
   24698:	84400b15 	stw	r17,44(r16)
   2469c:	80001a15 	stw	zero,104(r16)
   246a0:	80001b15 	stw	zero,108(r16)
   246a4:	80001c15 	stw	zero,112(r16)
   246a8:	80003315 	stw	zero,204(r16)
   246ac:	80801d15 	stw	r2,116(r16)
   246b0:	80001e15 	stw	zero,120(r16)
   246b4:	80001f15 	stw	zero,124(r16)
   246b8:	80002015 	stw	zero,128(r16)
   246bc:	00255c40 	call	255c4 <memset>
   246c0:	010000f4 	movhi	r4,3
   246c4:	00c000f4 	movhi	r3,3
   246c8:	008000b4 	movhi	r2,2
   246cc:	18cf3c04 	addi	r3,r3,15600
   246d0:	10800484 	addi	r2,r2,18
   246d4:	01800204 	movi	r6,8
   246d8:	000b883a 	mov	r5,zero
   246dc:	210f6d04 	addi	r4,r4,15796
   246e0:	80c02115 	stw	r3,132(r16)
   246e4:	85002215 	stw	r20,136(r16)
   246e8:	84c02315 	stw	r19,140(r16)
   246ec:	84802415 	stw	r18,144(r16)
   246f0:	84402515 	stw	r17,148(r16)
   246f4:	80003415 	stw	zero,208(r16)
   246f8:	80003515 	stw	zero,212(r16)
   246fc:	80003615 	stw	zero,216(r16)
   24700:	80004d15 	stw	zero,308(r16)
   24704:	80803715 	stw	r2,220(r16)
   24708:	80003815 	stw	zero,224(r16)
   2470c:	80003915 	stw	zero,228(r16)
   24710:	80003a15 	stw	zero,232(r16)
   24714:	00255c40 	call	255c4 <memset>
   24718:	008000f4 	movhi	r2,3
   2471c:	108f5604 	addi	r2,r2,15704
   24720:	80803b15 	stw	r2,236(r16)
   24724:	85003c15 	stw	r20,240(r16)
   24728:	84c03d15 	stw	r19,244(r16)
   2472c:	84803e15 	stw	r18,248(r16)
   24730:	84403f15 	stw	r17,252(r16)
   24734:	dfc00517 	ldw	ra,20(sp)
   24738:	dd000417 	ldw	r20,16(sp)
   2473c:	dcc00317 	ldw	r19,12(sp)
   24740:	dc800217 	ldw	r18,8(sp)
   24744:	dc400117 	ldw	r17,4(sp)
   24748:	dc000017 	ldw	r16,0(sp)
   2474c:	dec00604 	addi	sp,sp,24
   24750:	f800283a 	ret

00024754 <__sfp>:
   24754:	008000f4 	movhi	r2,3
   24758:	108f1517 	ldw	r2,15444(r2)
   2475c:	defffc04 	addi	sp,sp,-16
   24760:	dc800215 	stw	r18,8(sp)
   24764:	dfc00315 	stw	ra,12(sp)
   24768:	dc400115 	stw	r17,4(sp)
   2476c:	dc000015 	stw	r16,0(sp)
   24770:	2025883a 	mov	r18,r4
   24774:	10003926 	beq	r2,zero,2485c <__sfp+0x108>
   24778:	044000f4 	movhi	r17,3
   2477c:	8c42ea04 	addi	r17,r17,2984
   24780:	88800117 	ldw	r2,4(r17)
   24784:	8c000217 	ldw	r16,8(r17)
   24788:	10bfffc4 	addi	r2,r2,-1
   2478c:	1000030e 	bge	r2,zero,2479c <__sfp+0x48>
   24790:	00001f06 	br	24810 <__sfp+0xbc>
   24794:	84001a04 	addi	r16,r16,104
   24798:	28001d26 	beq	r5,zero,24810 <__sfp+0xbc>
   2479c:	80c0030f 	ldh	r3,12(r16)
   247a0:	10bfffc4 	addi	r2,r2,-1
   247a4:	117fffd8 	cmpnei	r5,r2,-1
   247a8:	183ffa1e 	bne	r3,zero,24794 <__sfp+0x40>
   247ac:	00bffff4 	movhi	r2,65535
   247b0:	10800044 	addi	r2,r2,1
   247b4:	80800315 	stw	r2,12(r16)
   247b8:	80001915 	stw	zero,100(r16)
   247bc:	80000015 	stw	zero,0(r16)
   247c0:	80000215 	stw	zero,8(r16)
   247c4:	80000115 	stw	zero,4(r16)
   247c8:	80000415 	stw	zero,16(r16)
   247cc:	80000515 	stw	zero,20(r16)
   247d0:	80000615 	stw	zero,24(r16)
   247d4:	01800204 	movi	r6,8
   247d8:	000b883a 	mov	r5,zero
   247dc:	81001704 	addi	r4,r16,92
   247e0:	00255c40 	call	255c4 <memset>
   247e4:	80000c15 	stw	zero,48(r16)
   247e8:	80000d15 	stw	zero,52(r16)
   247ec:	80001115 	stw	zero,68(r16)
   247f0:	80001215 	stw	zero,72(r16)
   247f4:	8005883a 	mov	r2,r16
   247f8:	dfc00317 	ldw	ra,12(sp)
   247fc:	dc800217 	ldw	r18,8(sp)
   24800:	dc400117 	ldw	r17,4(sp)
   24804:	dc000017 	ldw	r16,0(sp)
   24808:	dec00404 	addi	sp,sp,16
   2480c:	f800283a 	ret
   24810:	8c000017 	ldw	r16,0(r17)
   24814:	80000226 	beq	r16,zero,24820 <__sfp+0xcc>
   24818:	8023883a 	mov	r17,r16
   2481c:	003fd806 	br	24780 <__sfp+0x2c>
   24820:	01406b04 	movi	r5,428
   24824:	9009883a 	mov	r4,r18
   24828:	00279680 	call	27968 <_malloc_r>
   2482c:	1021883a 	mov	r16,r2
   24830:	10000c26 	beq	r2,zero,24864 <__sfp+0x110>
   24834:	10000015 	stw	zero,0(r2)
   24838:	11000304 	addi	r4,r2,12
   2483c:	00800104 	movi	r2,4
   24840:	80800115 	stw	r2,4(r16)
   24844:	81000215 	stw	r4,8(r16)
   24848:	01806804 	movi	r6,416
   2484c:	000b883a 	mov	r5,zero
   24850:	00255c40 	call	255c4 <memset>
   24854:	8c000015 	stw	r16,0(r17)
   24858:	003fef06 	br	24818 <__sfp+0xc4>
   2485c:	00245e00 	call	245e0 <global_stdio_init.part.0>
   24860:	003fc506 	br	24778 <__sfp+0x24>
   24864:	88000015 	stw	zero,0(r17)
   24868:	00800304 	movi	r2,12
   2486c:	90800015 	stw	r2,0(r18)
   24870:	003fe006 	br	247f4 <__sfp+0xa0>

00024874 <__sinit>:
   24874:	20800d17 	ldw	r2,52(r4)
   24878:	10000126 	beq	r2,zero,24880 <__sinit+0xc>
   2487c:	f800283a 	ret
   24880:	00c000f4 	movhi	r3,3
   24884:	008000b4 	movhi	r2,2
   24888:	18cf1517 	ldw	r3,15444(r3)
   2488c:	10915a04 	addi	r2,r2,17768
   24890:	20800d15 	stw	r2,52(r4)
   24894:	183ff91e 	bne	r3,zero,2487c <__sinit+0x8>
   24898:	00245e01 	jmpi	245e0 <global_stdio_init.part.0>

0002489c <__sfp_lock_acquire>:
   2489c:	f800283a 	ret

000248a0 <__sfp_lock_release>:
   248a0:	f800283a 	ret

000248a4 <__fp_lock_all>:
   248a4:	018000f4 	movhi	r6,3
   248a8:	014000b4 	movhi	r5,2
   248ac:	3182ea04 	addi	r6,r6,2984
   248b0:	29515104 	addi	r5,r5,17732
   248b4:	0009883a 	mov	r4,zero
   248b8:	0024d741 	jmpi	24d74 <_fwalk_sglue>

000248bc <__fp_unlock_all>:
   248bc:	018000f4 	movhi	r6,3
   248c0:	014000b4 	movhi	r5,2
   248c4:	3182ea04 	addi	r6,r6,2984
   248c8:	29517604 	addi	r5,r5,17880
   248cc:	0009883a 	mov	r4,zero
   248d0:	0024d741 	jmpi	24d74 <_fwalk_sglue>

000248d4 <__sfvwrite_r>:
   248d4:	30800217 	ldw	r2,8(r6)
   248d8:	1000c426 	beq	r2,zero,24bec <__sfvwrite_r+0x318>
   248dc:	2a80030b 	ldhu	r10,12(r5)
   248e0:	defff504 	addi	sp,sp,-44
   248e4:	df000915 	stw	fp,36(sp)
   248e8:	dcc00415 	stw	r19,16(sp)
   248ec:	dc000115 	stw	r16,4(sp)
   248f0:	dfc00a15 	stw	ra,40(sp)
   248f4:	ddc00815 	stw	r23,32(sp)
   248f8:	dd800715 	stw	r22,28(sp)
   248fc:	dd400615 	stw	r21,24(sp)
   24900:	dd000515 	stw	r20,20(sp)
   24904:	dc800315 	stw	r18,12(sp)
   24908:	dc400215 	stw	r17,8(sp)
   2490c:	5080020c 	andi	r2,r10,8
   24910:	3039883a 	mov	fp,r6
   24914:	2027883a 	mov	r19,r4
   24918:	2821883a 	mov	r16,r5
   2491c:	10002226 	beq	r2,zero,249a8 <__sfvwrite_r+0xd4>
   24920:	28800417 	ldw	r2,16(r5)
   24924:	10002026 	beq	r2,zero,249a8 <__sfvwrite_r+0xd4>
   24928:	5080008c 	andi	r2,r10,2
   2492c:	e4400017 	ldw	r17,0(fp)
   24930:	10002526 	beq	r2,zero,249c8 <__sfvwrite_r+0xf4>
   24934:	80800917 	ldw	r2,36(r16)
   24938:	81400717 	ldw	r5,28(r16)
   2493c:	05600034 	movhi	r21,32768
   24940:	0029883a 	mov	r20,zero
   24944:	0025883a 	mov	r18,zero
   24948:	ad7f0004 	addi	r21,r21,-1024
   2494c:	a00d883a 	mov	r6,r20
   24950:	9809883a 	mov	r4,r19
   24954:	90001026 	beq	r18,zero,24998 <__sfvwrite_r+0xc4>
   24958:	900f883a 	mov	r7,r18
   2495c:	ac80012e 	bgeu	r21,r18,24964 <__sfvwrite_r+0x90>
   24960:	a80f883a 	mov	r7,r21
   24964:	103ee83a 	callr	r2
   24968:	00809b0e 	bge	zero,r2,24bd8 <__sfvwrite_r+0x304>
   2496c:	e0c00217 	ldw	r3,8(fp)
   24970:	a0a9883a 	add	r20,r20,r2
   24974:	90a5c83a 	sub	r18,r18,r2
   24978:	1885c83a 	sub	r2,r3,r2
   2497c:	e0800215 	stw	r2,8(fp)
   24980:	10008426 	beq	r2,zero,24b94 <__sfvwrite_r+0x2c0>
   24984:	80800917 	ldw	r2,36(r16)
   24988:	81400717 	ldw	r5,28(r16)
   2498c:	a00d883a 	mov	r6,r20
   24990:	9809883a 	mov	r4,r19
   24994:	903ff01e 	bne	r18,zero,24958 <__sfvwrite_r+0x84>
   24998:	8d000017 	ldw	r20,0(r17)
   2499c:	8c800117 	ldw	r18,4(r17)
   249a0:	8c400204 	addi	r17,r17,8
   249a4:	003fe906 	br	2494c <__sfvwrite_r+0x78>
   249a8:	800b883a 	mov	r5,r16
   249ac:	9809883a 	mov	r4,r19
   249b0:	0024f5c0 	call	24f5c <__swsetup_r>
   249b4:	10008b1e 	bne	r2,zero,24be4 <__sfvwrite_r+0x310>
   249b8:	8280030b 	ldhu	r10,12(r16)
   249bc:	e4400017 	ldw	r17,0(fp)
   249c0:	5080008c 	andi	r2,r10,2
   249c4:	103fdb1e 	bne	r2,zero,24934 <__sfvwrite_r+0x60>
   249c8:	5080004c 	andi	r2,r10,1
   249cc:	1000501e 	bne	r2,zero,24b10 <__sfvwrite_r+0x23c>
   249d0:	00a00034 	movhi	r2,32768
   249d4:	81c00017 	ldw	r7,0(r16)
   249d8:	80c00217 	ldw	r3,8(r16)
   249dc:	10bfffc4 	addi	r2,r2,-1
   249e0:	002d883a 	mov	r22,zero
   249e4:	0025883a 	mov	r18,zero
   249e8:	d8800015 	stw	r2,0(sp)
   249ec:	3809883a 	mov	r4,r7
   249f0:	1829883a 	mov	r20,r3
   249f4:	90004226 	beq	r18,zero,24b00 <__sfvwrite_r+0x22c>
   249f8:	5080800c 	andi	r2,r10,512
   249fc:	10009526 	beq	r2,zero,24c54 <__sfvwrite_r+0x380>
   24a00:	182b883a 	mov	r21,r3
   24a04:	90c0ba36 	bltu	r18,r3,24cf0 <__sfvwrite_r+0x41c>
   24a08:	5081200c 	andi	r2,r10,1152
   24a0c:	10002626 	beq	r2,zero,24aa8 <__sfvwrite_r+0x1d4>
   24a10:	80c00517 	ldw	r3,20(r16)
   24a14:	81400417 	ldw	r5,16(r16)
   24a18:	18c5883a 	add	r2,r3,r3
   24a1c:	10c5883a 	add	r2,r2,r3
   24a20:	1006d7fa 	srli	r3,r2,31
   24a24:	396bc83a 	sub	r21,r7,r5
   24a28:	a9000044 	addi	r4,r21,1
   24a2c:	1887883a 	add	r3,r3,r2
   24a30:	1829d07a 	srai	r20,r3,1
   24a34:	2485883a 	add	r2,r4,r18
   24a38:	a00d883a 	mov	r6,r20
   24a3c:	a080022e 	bgeu	r20,r2,24a48 <__sfvwrite_r+0x174>
   24a40:	1029883a 	mov	r20,r2
   24a44:	100d883a 	mov	r6,r2
   24a48:	5281000c 	andi	r10,r10,1024
   24a4c:	5000b626 	beq	r10,zero,24d28 <__sfvwrite_r+0x454>
   24a50:	300b883a 	mov	r5,r6
   24a54:	9809883a 	mov	r4,r19
   24a58:	00279680 	call	27968 <_malloc_r>
   24a5c:	102f883a 	mov	r23,r2
   24a60:	1000c026 	beq	r2,zero,24d64 <__sfvwrite_r+0x490>
   24a64:	81400417 	ldw	r5,16(r16)
   24a68:	a80d883a 	mov	r6,r21
   24a6c:	1009883a 	mov	r4,r2
   24a70:	002539c0 	call	2539c <memcpy>
   24a74:	8080030b 	ldhu	r2,12(r16)
   24a78:	00fedfc4 	movi	r3,-1153
   24a7c:	10c4703a 	and	r2,r2,r3
   24a80:	10802014 	ori	r2,r2,128
   24a84:	8080030d 	sth	r2,12(r16)
   24a88:	a54fc83a 	sub	r7,r20,r21
   24a8c:	bd49883a 	add	r4,r23,r21
   24a90:	85000515 	stw	r20,20(r16)
   24a94:	85c00415 	stw	r23,16(r16)
   24a98:	81000015 	stw	r4,0(r16)
   24a9c:	9029883a 	mov	r20,r18
   24aa0:	81c00215 	stw	r7,8(r16)
   24aa4:	902b883a 	mov	r21,r18
   24aa8:	a80d883a 	mov	r6,r21
   24aac:	b00b883a 	mov	r5,r22
   24ab0:	002549c0 	call	2549c <memmove>
   24ab4:	80c00217 	ldw	r3,8(r16)
   24ab8:	81c00017 	ldw	r7,0(r16)
   24abc:	902f883a 	mov	r23,r18
   24ac0:	1d07c83a 	sub	r3,r3,r20
   24ac4:	3d4d883a 	add	r6,r7,r21
   24ac8:	80c00215 	stw	r3,8(r16)
   24acc:	81800015 	stw	r6,0(r16)
   24ad0:	0025883a 	mov	r18,zero
   24ad4:	e0800217 	ldw	r2,8(fp)
   24ad8:	b5ed883a 	add	r22,r22,r23
   24adc:	15c5c83a 	sub	r2,r2,r23
   24ae0:	e0800215 	stw	r2,8(fp)
   24ae4:	10002b26 	beq	r2,zero,24b94 <__sfvwrite_r+0x2c0>
   24ae8:	81c00017 	ldw	r7,0(r16)
   24aec:	80c00217 	ldw	r3,8(r16)
   24af0:	8280030b 	ldhu	r10,12(r16)
   24af4:	3809883a 	mov	r4,r7
   24af8:	1829883a 	mov	r20,r3
   24afc:	903fbe1e 	bne	r18,zero,249f8 <__sfvwrite_r+0x124>
   24b00:	8d800017 	ldw	r22,0(r17)
   24b04:	8c800117 	ldw	r18,4(r17)
   24b08:	8c400204 	addi	r17,r17,8
   24b0c:	003fb706 	br	249ec <__sfvwrite_r+0x118>
   24b10:	002f883a 	mov	r23,zero
   24b14:	0005883a 	mov	r2,zero
   24b18:	002d883a 	mov	r22,zero
   24b1c:	002b883a 	mov	r21,zero
   24b20:	a8003426 	beq	r21,zero,24bf4 <__sfvwrite_r+0x320>
   24b24:	10003826 	beq	r2,zero,24c08 <__sfvwrite_r+0x334>
   24b28:	b829883a 	mov	r20,r23
   24b2c:	ad00012e 	bgeu	r21,r20,24b34 <__sfvwrite_r+0x260>
   24b30:	a829883a 	mov	r20,r21
   24b34:	81000017 	ldw	r4,0(r16)
   24b38:	80800417 	ldw	r2,16(r16)
   24b3c:	84800217 	ldw	r18,8(r16)
   24b40:	81c00517 	ldw	r7,20(r16)
   24b44:	1100022e 	bgeu	r2,r4,24b50 <__sfvwrite_r+0x27c>
   24b48:	91e5883a 	add	r18,r18,r7
   24b4c:	95003616 	blt	r18,r20,24c28 <__sfvwrite_r+0x354>
   24b50:	a1c06a16 	blt	r20,r7,24cfc <__sfvwrite_r+0x428>
   24b54:	80800917 	ldw	r2,36(r16)
   24b58:	81400717 	ldw	r5,28(r16)
   24b5c:	b00d883a 	mov	r6,r22
   24b60:	9809883a 	mov	r4,r19
   24b64:	103ee83a 	callr	r2
   24b68:	1025883a 	mov	r18,r2
   24b6c:	00801a0e 	bge	zero,r2,24bd8 <__sfvwrite_r+0x304>
   24b70:	bcafc83a 	sub	r23,r23,r18
   24b74:	b8001426 	beq	r23,zero,24bc8 <__sfvwrite_r+0x2f4>
   24b78:	00800044 	movi	r2,1
   24b7c:	e0c00217 	ldw	r3,8(fp)
   24b80:	b4ad883a 	add	r22,r22,r18
   24b84:	acabc83a 	sub	r21,r21,r18
   24b88:	1c87c83a 	sub	r3,r3,r18
   24b8c:	e0c00215 	stw	r3,8(fp)
   24b90:	183fe31e 	bne	r3,zero,24b20 <__sfvwrite_r+0x24c>
   24b94:	0005883a 	mov	r2,zero
   24b98:	dfc00a17 	ldw	ra,40(sp)
   24b9c:	df000917 	ldw	fp,36(sp)
   24ba0:	ddc00817 	ldw	r23,32(sp)
   24ba4:	dd800717 	ldw	r22,28(sp)
   24ba8:	dd400617 	ldw	r21,24(sp)
   24bac:	dd000517 	ldw	r20,20(sp)
   24bb0:	dcc00417 	ldw	r19,16(sp)
   24bb4:	dc800317 	ldw	r18,12(sp)
   24bb8:	dc400217 	ldw	r17,8(sp)
   24bbc:	dc000117 	ldw	r16,4(sp)
   24bc0:	dec00b04 	addi	sp,sp,44
   24bc4:	f800283a 	ret
   24bc8:	800b883a 	mov	r5,r16
   24bcc:	9809883a 	mov	r4,r19
   24bd0:	002445c0 	call	2445c <_fflush_r>
   24bd4:	103fe926 	beq	r2,zero,24b7c <__sfvwrite_r+0x2a8>
   24bd8:	8080030b 	ldhu	r2,12(r16)
   24bdc:	10801014 	ori	r2,r2,64
   24be0:	8080030d 	sth	r2,12(r16)
   24be4:	00bfffc4 	movi	r2,-1
   24be8:	003feb06 	br	24b98 <__sfvwrite_r+0x2c4>
   24bec:	0005883a 	mov	r2,zero
   24bf0:	f800283a 	ret
   24bf4:	8d400117 	ldw	r21,4(r17)
   24bf8:	8805883a 	mov	r2,r17
   24bfc:	8c400204 	addi	r17,r17,8
   24c00:	a83ffc26 	beq	r21,zero,24bf4 <__sfvwrite_r+0x320>
   24c04:	15800017 	ldw	r22,0(r2)
   24c08:	a80d883a 	mov	r6,r21
   24c0c:	01400284 	movi	r5,10
   24c10:	b009883a 	mov	r4,r22
   24c14:	00252a00 	call	252a0 <memchr>
   24c18:	10004f26 	beq	r2,zero,24d58 <__sfvwrite_r+0x484>
   24c1c:	10800044 	addi	r2,r2,1
   24c20:	15afc83a 	sub	r23,r2,r22
   24c24:	003fc006 	br	24b28 <__sfvwrite_r+0x254>
   24c28:	b00b883a 	mov	r5,r22
   24c2c:	900d883a 	mov	r6,r18
   24c30:	002549c0 	call	2549c <memmove>
   24c34:	80800017 	ldw	r2,0(r16)
   24c38:	800b883a 	mov	r5,r16
   24c3c:	9809883a 	mov	r4,r19
   24c40:	1485883a 	add	r2,r2,r18
   24c44:	80800015 	stw	r2,0(r16)
   24c48:	002445c0 	call	2445c <_fflush_r>
   24c4c:	103fc826 	beq	r2,zero,24b70 <__sfvwrite_r+0x29c>
   24c50:	003fe106 	br	24bd8 <__sfvwrite_r+0x304>
   24c54:	80800417 	ldw	r2,16(r16)
   24c58:	11c01236 	bltu	r2,r7,24ca4 <__sfvwrite_r+0x3d0>
   24c5c:	81400517 	ldw	r5,20(r16)
   24c60:	91401036 	bltu	r18,r5,24ca4 <__sfvwrite_r+0x3d0>
   24c64:	00a00034 	movhi	r2,32768
   24c68:	902f883a 	mov	r23,r18
   24c6c:	90800136 	bltu	r18,r2,24c74 <__sfvwrite_r+0x3a0>
   24c70:	ddc00017 	ldw	r23,0(sp)
   24c74:	b809883a 	mov	r4,r23
   24c78:	00207cc0 	call	207cc <__modsi3>
   24c7c:	80c00917 	ldw	r3,36(r16)
   24c80:	81400717 	ldw	r5,28(r16)
   24c84:	b88fc83a 	sub	r7,r23,r2
   24c88:	b00d883a 	mov	r6,r22
   24c8c:	9809883a 	mov	r4,r19
   24c90:	183ee83a 	callr	r3
   24c94:	102f883a 	mov	r23,r2
   24c98:	00bfcf0e 	bge	zero,r2,24bd8 <__sfvwrite_r+0x304>
   24c9c:	95e5c83a 	sub	r18,r18,r23
   24ca0:	003f8c06 	br	24ad4 <__sfvwrite_r+0x200>
   24ca4:	182f883a 	mov	r23,r3
   24ca8:	90c0012e 	bgeu	r18,r3,24cb0 <__sfvwrite_r+0x3dc>
   24cac:	902f883a 	mov	r23,r18
   24cb0:	3809883a 	mov	r4,r7
   24cb4:	b80d883a 	mov	r6,r23
   24cb8:	b00b883a 	mov	r5,r22
   24cbc:	002549c0 	call	2549c <memmove>
   24cc0:	80c00217 	ldw	r3,8(r16)
   24cc4:	81c00017 	ldw	r7,0(r16)
   24cc8:	1dc7c83a 	sub	r3,r3,r23
   24ccc:	3dcf883a 	add	r7,r7,r23
   24cd0:	80c00215 	stw	r3,8(r16)
   24cd4:	81c00015 	stw	r7,0(r16)
   24cd8:	183ff01e 	bne	r3,zero,24c9c <__sfvwrite_r+0x3c8>
   24cdc:	800b883a 	mov	r5,r16
   24ce0:	9809883a 	mov	r4,r19
   24ce4:	002445c0 	call	2445c <_fflush_r>
   24ce8:	103fec26 	beq	r2,zero,24c9c <__sfvwrite_r+0x3c8>
   24cec:	003fba06 	br	24bd8 <__sfvwrite_r+0x304>
   24cf0:	9029883a 	mov	r20,r18
   24cf4:	902b883a 	mov	r21,r18
   24cf8:	003f6b06 	br	24aa8 <__sfvwrite_r+0x1d4>
   24cfc:	a00d883a 	mov	r6,r20
   24d00:	b00b883a 	mov	r5,r22
   24d04:	002549c0 	call	2549c <memmove>
   24d08:	80c00217 	ldw	r3,8(r16)
   24d0c:	80800017 	ldw	r2,0(r16)
   24d10:	a025883a 	mov	r18,r20
   24d14:	1d07c83a 	sub	r3,r3,r20
   24d18:	1505883a 	add	r2,r2,r20
   24d1c:	80c00215 	stw	r3,8(r16)
   24d20:	80800015 	stw	r2,0(r16)
   24d24:	003f9206 	br	24b70 <__sfvwrite_r+0x29c>
   24d28:	9809883a 	mov	r4,r19
   24d2c:	00293380 	call	29338 <_realloc_r>
   24d30:	102f883a 	mov	r23,r2
   24d34:	103f541e 	bne	r2,zero,24a88 <__sfvwrite_r+0x1b4>
   24d38:	81400417 	ldw	r5,16(r16)
   24d3c:	9809883a 	mov	r4,r19
   24d40:	00276600 	call	27660 <_free_r>
   24d44:	8080030b 	ldhu	r2,12(r16)
   24d48:	00c00304 	movi	r3,12
   24d4c:	98c00015 	stw	r3,0(r19)
   24d50:	10bfdfcc 	andi	r2,r2,65407
   24d54:	003fa106 	br	24bdc <__sfvwrite_r+0x308>
   24d58:	ad000044 	addi	r20,r21,1
   24d5c:	a02f883a 	mov	r23,r20
   24d60:	003f7206 	br	24b2c <__sfvwrite_r+0x258>
   24d64:	00c00304 	movi	r3,12
   24d68:	8080030b 	ldhu	r2,12(r16)
   24d6c:	98c00015 	stw	r3,0(r19)
   24d70:	003f9a06 	br	24bdc <__sfvwrite_r+0x308>

00024d74 <_fwalk_sglue>:
   24d74:	defff904 	addi	sp,sp,-28
   24d78:	dd400515 	stw	r21,20(sp)
   24d7c:	dd000415 	stw	r20,16(sp)
   24d80:	dcc00315 	stw	r19,12(sp)
   24d84:	dc800215 	stw	r18,8(sp)
   24d88:	dfc00615 	stw	ra,24(sp)
   24d8c:	dc400115 	stw	r17,4(sp)
   24d90:	dc000015 	stw	r16,0(sp)
   24d94:	2027883a 	mov	r19,r4
   24d98:	2829883a 	mov	r20,r5
   24d9c:	3025883a 	mov	r18,r6
   24da0:	002b883a 	mov	r21,zero
   24da4:	94400117 	ldw	r17,4(r18)
   24da8:	94000217 	ldw	r16,8(r18)
   24dac:	8c7fffc4 	addi	r17,r17,-1
   24db0:	88000e16 	blt	r17,zero,24dec <_fwalk_sglue+0x78>
   24db4:	8080030b 	ldhu	r2,12(r16)
   24db8:	8c7fffc4 	addi	r17,r17,-1
   24dbc:	108000b0 	cmpltui	r2,r2,2
   24dc0:	1000071e 	bne	r2,zero,24de0 <_fwalk_sglue+0x6c>
   24dc4:	8080038f 	ldh	r2,14(r16)
   24dc8:	800b883a 	mov	r5,r16
   24dcc:	9809883a 	mov	r4,r19
   24dd0:	10bfffe0 	cmpeqi	r2,r2,-1
   24dd4:	1000021e 	bne	r2,zero,24de0 <_fwalk_sglue+0x6c>
   24dd8:	a03ee83a 	callr	r20
   24ddc:	a8aab03a 	or	r21,r21,r2
   24de0:	88bfffd8 	cmpnei	r2,r17,-1
   24de4:	84001a04 	addi	r16,r16,104
   24de8:	103ff21e 	bne	r2,zero,24db4 <_fwalk_sglue+0x40>
   24dec:	94800017 	ldw	r18,0(r18)
   24df0:	903fec1e 	bne	r18,zero,24da4 <_fwalk_sglue+0x30>
   24df4:	a805883a 	mov	r2,r21
   24df8:	dfc00617 	ldw	ra,24(sp)
   24dfc:	dd400517 	ldw	r21,20(sp)
   24e00:	dd000417 	ldw	r20,16(sp)
   24e04:	dcc00317 	ldw	r19,12(sp)
   24e08:	dc800217 	ldw	r18,8(sp)
   24e0c:	dc400117 	ldw	r17,4(sp)
   24e10:	dc000017 	ldw	r16,0(sp)
   24e14:	dec00704 	addi	sp,sp,28
   24e18:	f800283a 	ret

00024e1c <__sread>:
   24e1c:	defffe04 	addi	sp,sp,-8
   24e20:	dc000015 	stw	r16,0(sp)
   24e24:	2821883a 	mov	r16,r5
   24e28:	2940038f 	ldh	r5,14(r5)
   24e2c:	dfc00115 	stw	ra,4(sp)
   24e30:	0025a440 	call	25a44 <_read_r>
   24e34:	10000716 	blt	r2,zero,24e54 <__sread+0x38>
   24e38:	80c01417 	ldw	r3,80(r16)
   24e3c:	1887883a 	add	r3,r3,r2
   24e40:	80c01415 	stw	r3,80(r16)
   24e44:	dfc00117 	ldw	ra,4(sp)
   24e48:	dc000017 	ldw	r16,0(sp)
   24e4c:	dec00204 	addi	sp,sp,8
   24e50:	f800283a 	ret
   24e54:	80c0030b 	ldhu	r3,12(r16)
   24e58:	18fbffcc 	andi	r3,r3,61439
   24e5c:	80c0030d 	sth	r3,12(r16)
   24e60:	dfc00117 	ldw	ra,4(sp)
   24e64:	dc000017 	ldw	r16,0(sp)
   24e68:	dec00204 	addi	sp,sp,8
   24e6c:	f800283a 	ret

00024e70 <__seofread>:
   24e70:	0005883a 	mov	r2,zero
   24e74:	f800283a 	ret

00024e78 <__swrite>:
   24e78:	2880030b 	ldhu	r2,12(r5)
   24e7c:	defffb04 	addi	sp,sp,-20
   24e80:	dcc00315 	stw	r19,12(sp)
   24e84:	dc800215 	stw	r18,8(sp)
   24e88:	dc400115 	stw	r17,4(sp)
   24e8c:	dc000015 	stw	r16,0(sp)
   24e90:	dfc00415 	stw	ra,16(sp)
   24e94:	10c0400c 	andi	r3,r2,256
   24e98:	2821883a 	mov	r16,r5
   24e9c:	2023883a 	mov	r17,r4
   24ea0:	3025883a 	mov	r18,r6
   24ea4:	3827883a 	mov	r19,r7
   24ea8:	18000d1e 	bne	r3,zero,24ee0 <__swrite+0x68>
   24eac:	8140038f 	ldh	r5,14(r16)
   24eb0:	10bbffcc 	andi	r2,r2,61439
   24eb4:	980f883a 	mov	r7,r19
   24eb8:	900d883a 	mov	r6,r18
   24ebc:	8809883a 	mov	r4,r17
   24ec0:	8080030d 	sth	r2,12(r16)
   24ec4:	dfc00417 	ldw	ra,16(sp)
   24ec8:	dcc00317 	ldw	r19,12(sp)
   24ecc:	dc800217 	ldw	r18,8(sp)
   24ed0:	dc400117 	ldw	r17,4(sp)
   24ed4:	dc000017 	ldw	r16,0(sp)
   24ed8:	dec00504 	addi	sp,sp,20
   24edc:	0025aa81 	jmpi	25aa8 <_write_r>
   24ee0:	2940038f 	ldh	r5,14(r5)
   24ee4:	01c00084 	movi	r7,2
   24ee8:	000d883a 	mov	r6,zero
   24eec:	00259e00 	call	259e0 <_lseek_r>
   24ef0:	8080030b 	ldhu	r2,12(r16)
   24ef4:	003fed06 	br	24eac <__swrite+0x34>

00024ef8 <__sseek>:
   24ef8:	defffe04 	addi	sp,sp,-8
   24efc:	dc000015 	stw	r16,0(sp)
   24f00:	2821883a 	mov	r16,r5
   24f04:	2940038f 	ldh	r5,14(r5)
   24f08:	dfc00115 	stw	ra,4(sp)
   24f0c:	00259e00 	call	259e0 <_lseek_r>
   24f10:	10ffffd8 	cmpnei	r3,r2,-1
   24f14:	18000826 	beq	r3,zero,24f38 <__sseek+0x40>
   24f18:	80c0030b 	ldhu	r3,12(r16)
   24f1c:	80801415 	stw	r2,80(r16)
   24f20:	18c40014 	ori	r3,r3,4096
   24f24:	80c0030d 	sth	r3,12(r16)
   24f28:	dfc00117 	ldw	ra,4(sp)
   24f2c:	dc000017 	ldw	r16,0(sp)
   24f30:	dec00204 	addi	sp,sp,8
   24f34:	f800283a 	ret
   24f38:	80c0030b 	ldhu	r3,12(r16)
   24f3c:	18fbffcc 	andi	r3,r3,61439
   24f40:	80c0030d 	sth	r3,12(r16)
   24f44:	dfc00117 	ldw	ra,4(sp)
   24f48:	dc000017 	ldw	r16,0(sp)
   24f4c:	dec00204 	addi	sp,sp,8
   24f50:	f800283a 	ret

00024f54 <__sclose>:
   24f54:	2940038f 	ldh	r5,14(r5)
   24f58:	00258c01 	jmpi	258c0 <_close_r>

00024f5c <__swsetup_r>:
   24f5c:	008000f4 	movhi	r2,3
   24f60:	1088cd17 	ldw	r2,9012(r2)
   24f64:	defffd04 	addi	sp,sp,-12
   24f68:	dc400115 	stw	r17,4(sp)
   24f6c:	dc000015 	stw	r16,0(sp)
   24f70:	dfc00215 	stw	ra,8(sp)
   24f74:	2023883a 	mov	r17,r4
   24f78:	2821883a 	mov	r16,r5
   24f7c:	10000226 	beq	r2,zero,24f88 <__swsetup_r+0x2c>
   24f80:	10c00d17 	ldw	r3,52(r2)
   24f84:	18003f26 	beq	r3,zero,25084 <__swsetup_r+0x128>
   24f88:	80c0030b 	ldhu	r3,12(r16)
   24f8c:	1880020c 	andi	r2,r3,8
   24f90:	10001a26 	beq	r2,zero,24ffc <__swsetup_r+0xa0>
   24f94:	80800417 	ldw	r2,16(r16)
   24f98:	10002126 	beq	r2,zero,25020 <__swsetup_r+0xc4>
   24f9c:	1900004c 	andi	r4,r3,1
   24fa0:	20000b1e 	bne	r4,zero,24fd0 <__swsetup_r+0x74>
   24fa4:	1900008c 	andi	r4,r3,2
   24fa8:	2000261e 	bne	r4,zero,25044 <__swsetup_r+0xe8>
   24fac:	81000517 	ldw	r4,20(r16)
   24fb0:	81000215 	stw	r4,8(r16)
   24fb4:	10000b26 	beq	r2,zero,24fe4 <__swsetup_r+0x88>
   24fb8:	0005883a 	mov	r2,zero
   24fbc:	dfc00217 	ldw	ra,8(sp)
   24fc0:	dc400117 	ldw	r17,4(sp)
   24fc4:	dc000017 	ldw	r16,0(sp)
   24fc8:	dec00304 	addi	sp,sp,12
   24fcc:	f800283a 	ret
   24fd0:	81000517 	ldw	r4,20(r16)
   24fd4:	80000215 	stw	zero,8(r16)
   24fd8:	0109c83a 	sub	r4,zero,r4
   24fdc:	81000615 	stw	r4,24(r16)
   24fe0:	103ff51e 	bne	r2,zero,24fb8 <__swsetup_r+0x5c>
   24fe4:	1900200c 	andi	r4,r3,128
   24fe8:	203ff426 	beq	r4,zero,24fbc <__swsetup_r+0x60>
   24fec:	18c01014 	ori	r3,r3,64
   24ff0:	80c0030d 	sth	r3,12(r16)
   24ff4:	00bfffc4 	movi	r2,-1
   24ff8:	003ff006 	br	24fbc <__swsetup_r+0x60>
   24ffc:	1880040c 	andi	r2,r3,16
   25000:	10002326 	beq	r2,zero,25090 <__swsetup_r+0x134>
   25004:	1880010c 	andi	r2,r3,4
   25008:	1000101e 	bne	r2,zero,2504c <__swsetup_r+0xf0>
   2500c:	80800417 	ldw	r2,16(r16)
   25010:	19000214 	ori	r4,r3,8
   25014:	8100030d 	sth	r4,12(r16)
   25018:	2007883a 	mov	r3,r4
   2501c:	103fdf1e 	bne	r2,zero,24f9c <__swsetup_r+0x40>
   25020:	1900a00c 	andi	r4,r3,640
   25024:	21008020 	cmpeqi	r4,r4,512
   25028:	203fdc1e 	bne	r4,zero,24f9c <__swsetup_r+0x40>
   2502c:	800b883a 	mov	r5,r16
   25030:	8809883a 	mov	r4,r17
   25034:	0029b540 	call	29b54 <__smakebuf_r>
   25038:	80c0030b 	ldhu	r3,12(r16)
   2503c:	80800417 	ldw	r2,16(r16)
   25040:	003fd606 	br	24f9c <__swsetup_r+0x40>
   25044:	0009883a 	mov	r4,zero
   25048:	003fd906 	br	24fb0 <__swsetup_r+0x54>
   2504c:	81400c17 	ldw	r5,48(r16)
   25050:	28000626 	beq	r5,zero,2506c <__swsetup_r+0x110>
   25054:	80801004 	addi	r2,r16,64
   25058:	28800326 	beq	r5,r2,25068 <__swsetup_r+0x10c>
   2505c:	8809883a 	mov	r4,r17
   25060:	00276600 	call	27660 <_free_r>
   25064:	80c0030b 	ldhu	r3,12(r16)
   25068:	80000c15 	stw	zero,48(r16)
   2506c:	80800417 	ldw	r2,16(r16)
   25070:	013ff6c4 	movi	r4,-37
   25074:	20c6703a 	and	r3,r4,r3
   25078:	80000115 	stw	zero,4(r16)
   2507c:	80800015 	stw	r2,0(r16)
   25080:	003fe306 	br	25010 <__swsetup_r+0xb4>
   25084:	1009883a 	mov	r4,r2
   25088:	00248740 	call	24874 <__sinit>
   2508c:	003fbe06 	br	24f88 <__swsetup_r+0x2c>
   25090:	00800244 	movi	r2,9
   25094:	88800015 	stw	r2,0(r17)
   25098:	18c01014 	ori	r3,r3,64
   2509c:	003fd406 	br	24ff0 <__swsetup_r+0x94>

000250a0 <__fputwc>:
   250a0:	defff904 	addi	sp,sp,-28
   250a4:	dcc00415 	stw	r19,16(sp)
   250a8:	dc800315 	stw	r18,12(sp)
   250ac:	dc000115 	stw	r16,4(sp)
   250b0:	dfc00615 	stw	ra,24(sp)
   250b4:	dd000515 	stw	r20,20(sp)
   250b8:	dc400215 	stw	r17,8(sp)
   250bc:	2027883a 	mov	r19,r4
   250c0:	2825883a 	mov	r18,r5
   250c4:	3021883a 	mov	r16,r6
   250c8:	00258180 	call	25818 <__locale_mb_cur_max>
   250cc:	10800058 	cmpnei	r2,r2,1
   250d0:	1000071e 	bne	r2,zero,250f0 <__fputwc+0x50>
   250d4:	90bfffc4 	addi	r2,r18,-1
   250d8:	10803fe8 	cmpgeui	r2,r2,255
   250dc:	1000041e 	bne	r2,zero,250f0 <__fputwc+0x50>
   250e0:	900b883a 	mov	r5,r18
   250e4:	dc8000c5 	stb	r18,3(sp)
   250e8:	05000044 	movi	r20,1
   250ec:	00000a06 	br	25118 <__fputwc+0x78>
   250f0:	81c01704 	addi	r7,r16,92
   250f4:	900d883a 	mov	r6,r18
   250f8:	d94000c4 	addi	r5,sp,3
   250fc:	9809883a 	mov	r4,r19
   25100:	00299600 	call	29960 <_wcrtomb_r>
   25104:	1029883a 	mov	r20,r2
   25108:	10bfffd8 	cmpnei	r2,r2,-1
   2510c:	10003826 	beq	r2,zero,251f0 <__fputwc+0x150>
   25110:	a0001f26 	beq	r20,zero,25190 <__fputwc+0xf0>
   25114:	d94000c3 	ldbu	r5,3(sp)
   25118:	0023883a 	mov	r17,zero
   2511c:	00000a06 	br	25148 <__fputwc+0xa8>
   25120:	80800017 	ldw	r2,0(r16)
   25124:	11400005 	stb	r5,0(r2)
   25128:	80c00017 	ldw	r3,0(r16)
   2512c:	18c00044 	addi	r3,r3,1
   25130:	80c00015 	stw	r3,0(r16)
   25134:	8c400044 	addi	r17,r17,1
   25138:	d88000c4 	addi	r2,sp,3
   2513c:	1447883a 	add	r3,r2,r17
   25140:	8d00132e 	bgeu	r17,r20,25190 <__fputwc+0xf0>
   25144:	19400003 	ldbu	r5,0(r3)
   25148:	80c00217 	ldw	r3,8(r16)
   2514c:	18ffffc4 	addi	r3,r3,-1
   25150:	80c00215 	stw	r3,8(r16)
   25154:	183ff20e 	bge	r3,zero,25120 <__fputwc+0x80>
   25158:	80800617 	ldw	r2,24(r16)
   2515c:	18801516 	blt	r3,r2,251b4 <__fputwc+0x114>
   25160:	80800017 	ldw	r2,0(r16)
   25164:	11400005 	stb	r5,0(r2)
   25168:	80800017 	ldw	r2,0(r16)
   2516c:	10c00003 	ldbu	r3,0(r2)
   25170:	10800044 	addi	r2,r2,1
   25174:	18c002a0 	cmpeqi	r3,r3,10
   25178:	1800161e 	bne	r3,zero,251d4 <__fputwc+0x134>
   2517c:	80800015 	stw	r2,0(r16)
   25180:	8c400044 	addi	r17,r17,1
   25184:	d88000c4 	addi	r2,sp,3
   25188:	1447883a 	add	r3,r2,r17
   2518c:	8d3fed36 	bltu	r17,r20,25144 <__fputwc+0xa4>
   25190:	9005883a 	mov	r2,r18
   25194:	dfc00617 	ldw	ra,24(sp)
   25198:	dd000517 	ldw	r20,20(sp)
   2519c:	dcc00417 	ldw	r19,16(sp)
   251a0:	dc800317 	ldw	r18,12(sp)
   251a4:	dc400217 	ldw	r17,8(sp)
   251a8:	dc000117 	ldw	r16,4(sp)
   251ac:	dec00704 	addi	sp,sp,28
   251b0:	f800283a 	ret
   251b4:	29403fcc 	andi	r5,r5,255
   251b8:	800d883a 	mov	r6,r16
   251bc:	9809883a 	mov	r4,r19
   251c0:	0029d880 	call	29d88 <__swbuf_r>
   251c4:	10bfffe0 	cmpeqi	r2,r2,-1
   251c8:	103fda26 	beq	r2,zero,25134 <__fputwc+0x94>
   251cc:	00bfffc4 	movi	r2,-1
   251d0:	003ff006 	br	25194 <__fputwc+0xf4>
   251d4:	800d883a 	mov	r6,r16
   251d8:	01400284 	movi	r5,10
   251dc:	9809883a 	mov	r4,r19
   251e0:	0029d880 	call	29d88 <__swbuf_r>
   251e4:	10bfffe0 	cmpeqi	r2,r2,-1
   251e8:	103fd226 	beq	r2,zero,25134 <__fputwc+0x94>
   251ec:	003ff706 	br	251cc <__fputwc+0x12c>
   251f0:	8080030b 	ldhu	r2,12(r16)
   251f4:	10801014 	ori	r2,r2,64
   251f8:	8080030d 	sth	r2,12(r16)
   251fc:	00bfffc4 	movi	r2,-1
   25200:	003fe406 	br	25194 <__fputwc+0xf4>

00025204 <_fputwc_r>:
   25204:	3080030b 	ldhu	r2,12(r6)
   25208:	10c8000c 	andi	r3,r2,8192
   2520c:	1800051e 	bne	r3,zero,25224 <_fputwc_r+0x20>
   25210:	30c01917 	ldw	r3,100(r6)
   25214:	10880014 	ori	r2,r2,8192
   25218:	3080030d 	sth	r2,12(r6)
   2521c:	18880014 	ori	r2,r3,8192
   25220:	30801915 	stw	r2,100(r6)
   25224:	00250a01 	jmpi	250a0 <__fputwc>

00025228 <fputwc>:
   25228:	defffc04 	addi	sp,sp,-16
   2522c:	008000f4 	movhi	r2,3
   25230:	dc000215 	stw	r16,8(sp)
   25234:	1408cd17 	ldw	r16,9012(r2)
   25238:	dfc00315 	stw	ra,12(sp)
   2523c:	280d883a 	mov	r6,r5
   25240:	200b883a 	mov	r5,r4
   25244:	80000226 	beq	r16,zero,25250 <fputwc+0x28>
   25248:	80800d17 	ldw	r2,52(r16)
   2524c:	10000d26 	beq	r2,zero,25284 <fputwc+0x5c>
   25250:	3080030b 	ldhu	r2,12(r6)
   25254:	10c8000c 	andi	r3,r2,8192
   25258:	1800051e 	bne	r3,zero,25270 <fputwc+0x48>
   2525c:	30c01917 	ldw	r3,100(r6)
   25260:	10880014 	ori	r2,r2,8192
   25264:	3080030d 	sth	r2,12(r6)
   25268:	18880014 	ori	r2,r3,8192
   2526c:	30801915 	stw	r2,100(r6)
   25270:	8009883a 	mov	r4,r16
   25274:	dfc00317 	ldw	ra,12(sp)
   25278:	dc000217 	ldw	r16,8(sp)
   2527c:	dec00404 	addi	sp,sp,16
   25280:	00250a01 	jmpi	250a0 <__fputwc>
   25284:	d9000015 	stw	r4,0(sp)
   25288:	8009883a 	mov	r4,r16
   2528c:	d9800115 	stw	r6,4(sp)
   25290:	00248740 	call	24874 <__sinit>
   25294:	d9800117 	ldw	r6,4(sp)
   25298:	d9400017 	ldw	r5,0(sp)
   2529c:	003fec06 	br	25250 <fputwc+0x28>

000252a0 <memchr>:
   252a0:	defffc04 	addi	sp,sp,-16
   252a4:	dc000015 	stw	r16,0(sp)
   252a8:	2021883a 	mov	r16,r4
   252ac:	dc800215 	stw	r18,8(sp)
   252b0:	dfc00315 	stw	ra,12(sp)
   252b4:	dc400115 	stw	r17,4(sp)
   252b8:	808000cc 	andi	r2,r16,3
   252bc:	2809883a 	mov	r4,r5
   252c0:	2825883a 	mov	r18,r5
   252c4:	10000e26 	beq	r2,zero,25300 <memchr+0x60>
   252c8:	347fffc4 	addi	r17,r6,-1
   252cc:	30001726 	beq	r6,zero,2532c <memchr+0x8c>
   252d0:	28c03fcc 	andi	r3,r5,255
   252d4:	00000606 	br	252f0 <memchr+0x50>
   252d8:	84000044 	addi	r16,r16,1
   252dc:	808000cc 	andi	r2,r16,3
   252e0:	10000826 	beq	r2,zero,25304 <memchr+0x64>
   252e4:	8c7fffc4 	addi	r17,r17,-1
   252e8:	88bfffe0 	cmpeqi	r2,r17,-1
   252ec:	10000f1e 	bne	r2,zero,2532c <memchr+0x8c>
   252f0:	80800003 	ldbu	r2,0(r16)
   252f4:	10fff81e 	bne	r2,r3,252d8 <memchr+0x38>
   252f8:	8005883a 	mov	r2,r16
   252fc:	00000c06 	br	25330 <memchr+0x90>
   25300:	3023883a 	mov	r17,r6
   25304:	88800130 	cmpltui	r2,r17,4
   25308:	10000f26 	beq	r2,zero,25348 <memchr+0xa8>
   2530c:	88000726 	beq	r17,zero,2532c <memchr+0x8c>
   25310:	8463883a 	add	r17,r16,r17
   25314:	8005883a 	mov	r2,r16
   25318:	90c03fcc 	andi	r3,r18,255
   2531c:	11000003 	ldbu	r4,0(r2)
   25320:	20c00326 	beq	r4,r3,25330 <memchr+0x90>
   25324:	10800044 	addi	r2,r2,1
   25328:	88bffc1e 	bne	r17,r2,2531c <memchr+0x7c>
   2532c:	0005883a 	mov	r2,zero
   25330:	dfc00317 	ldw	ra,12(sp)
   25334:	dc800217 	ldw	r18,8(sp)
   25338:	dc400117 	ldw	r17,4(sp)
   2533c:	dc000017 	ldw	r16,0(sp)
   25340:	dec00404 	addi	sp,sp,16
   25344:	f800283a 	ret
   25348:	01404074 	movhi	r5,257
   2534c:	29404044 	addi	r5,r5,257
   25350:	21003fcc 	andi	r4,r4,255
   25354:	002b47c0 	call	2b47c <__mulsi3>
   25358:	01bfbff4 	movhi	r6,65279
   2535c:	01602074 	movhi	r5,32897
   25360:	31bfbfc4 	addi	r6,r6,-257
   25364:	29602004 	addi	r5,r5,-32640
   25368:	00000406 	br	2537c <memchr+0xdc>
   2536c:	8c7fff04 	addi	r17,r17,-4
   25370:	88c00128 	cmpgeui	r3,r17,4
   25374:	84000104 	addi	r16,r16,4
   25378:	183fe426 	beq	r3,zero,2530c <memchr+0x6c>
   2537c:	80c00017 	ldw	r3,0(r16)
   25380:	10c6f03a 	xor	r3,r2,r3
   25384:	1989883a 	add	r4,r3,r6
   25388:	00c6303a 	nor	r3,zero,r3
   2538c:	20c6703a 	and	r3,r4,r3
   25390:	1946703a 	and	r3,r3,r5
   25394:	183ff526 	beq	r3,zero,2536c <memchr+0xcc>
   25398:	003fdc06 	br	2530c <memchr+0x6c>

0002539c <memcpy>:
   2539c:	30c00428 	cmpgeui	r3,r6,16
   253a0:	2005883a 	mov	r2,r4
   253a4:	18000b1e 	bne	r3,zero,253d4 <memcpy+0x38>
   253a8:	2007883a 	mov	r3,r4
   253ac:	31ffffc4 	addi	r7,r6,-1
   253b0:	30003426 	beq	r6,zero,25484 <memcpy+0xe8>
   253b4:	39c00044 	addi	r7,r7,1
   253b8:	19cf883a 	add	r7,r3,r7
   253bc:	29800003 	ldbu	r6,0(r5)
   253c0:	18c00044 	addi	r3,r3,1
   253c4:	29400044 	addi	r5,r5,1
   253c8:	19bfffc5 	stb	r6,-1(r3)
   253cc:	19fffb1e 	bne	r3,r7,253bc <memcpy+0x20>
   253d0:	f800283a 	ret
   253d4:	2146b03a 	or	r3,r4,r5
   253d8:	18c000cc 	andi	r3,r3,3
   253dc:	18002a1e 	bne	r3,zero,25488 <memcpy+0xec>
   253e0:	333ffc04 	addi	r12,r6,-16
   253e4:	6018d13a 	srli	r12,r12,4
   253e8:	2811883a 	mov	r8,r5
   253ec:	200f883a 	mov	r7,r4
   253f0:	63000044 	addi	r12,r12,1
   253f4:	6018913a 	slli	r12,r12,4
   253f8:	2307883a 	add	r3,r4,r12
   253fc:	42c00017 	ldw	r11,0(r8)
   25400:	42800117 	ldw	r10,4(r8)
   25404:	42400217 	ldw	r9,8(r8)
   25408:	41000317 	ldw	r4,12(r8)
   2540c:	39c00404 	addi	r7,r7,16
   25410:	3afffc15 	stw	r11,-16(r7)
   25414:	3abffd15 	stw	r10,-12(r7)
   25418:	3a7ffe15 	stw	r9,-8(r7)
   2541c:	393fff15 	stw	r4,-4(r7)
   25420:	42000404 	addi	r8,r8,16
   25424:	38fff51e 	bne	r7,r3,253fc <memcpy+0x60>
   25428:	3100030c 	andi	r4,r6,12
   2542c:	2b0b883a 	add	r5,r5,r12
   25430:	324003cc 	andi	r9,r6,15
   25434:	20001726 	beq	r4,zero,25494 <memcpy+0xf8>
   25438:	2811883a 	mov	r8,r5
   2543c:	1809883a 	mov	r4,r3
   25440:	1a57883a 	add	r11,r3,r9
   25444:	42800017 	ldw	r10,0(r8)
   25448:	21000104 	addi	r4,r4,4
   2544c:	590fc83a 	sub	r7,r11,r4
   25450:	39c00128 	cmpgeui	r7,r7,4
   25454:	22bfff15 	stw	r10,-4(r4)
   25458:	42000104 	addi	r8,r8,4
   2545c:	383ff91e 	bne	r7,zero,25444 <memcpy+0xa8>
   25460:	493fff04 	addi	r4,r9,-4
   25464:	2008d0ba 	srli	r4,r4,2
   25468:	318000cc 	andi	r6,r6,3
   2546c:	31ffffc4 	addi	r7,r6,-1
   25470:	21000044 	addi	r4,r4,1
   25474:	200890ba 	slli	r4,r4,2
   25478:	1907883a 	add	r3,r3,r4
   2547c:	290b883a 	add	r5,r5,r4
   25480:	303fcc1e 	bne	r6,zero,253b4 <memcpy+0x18>
   25484:	f800283a 	ret
   25488:	31ffffc4 	addi	r7,r6,-1
   2548c:	2007883a 	mov	r3,r4
   25490:	003fc806 	br	253b4 <memcpy+0x18>
   25494:	480d883a 	mov	r6,r9
   25498:	003fc406 	br	253ac <memcpy+0x10>

0002549c <memmove>:
   2549c:	2005883a 	mov	r2,r4
   254a0:	29000a2e 	bgeu	r5,r4,254cc <memmove+0x30>
   254a4:	298f883a 	add	r7,r5,r6
   254a8:	21c0082e 	bgeu	r4,r7,254cc <memmove+0x30>
   254ac:	2187883a 	add	r3,r4,r6
   254b0:	30001226 	beq	r6,zero,254fc <memmove+0x60>
   254b4:	397fffc3 	ldbu	r5,-1(r7)
   254b8:	18ffffc4 	addi	r3,r3,-1
   254bc:	39ffffc4 	addi	r7,r7,-1
   254c0:	19400005 	stb	r5,0(r3)
   254c4:	10fffb1e 	bne	r2,r3,254b4 <memmove+0x18>
   254c8:	f800283a 	ret
   254cc:	30c00428 	cmpgeui	r3,r6,16
   254d0:	18000b1e 	bne	r3,zero,25500 <memmove+0x64>
   254d4:	1007883a 	mov	r3,r2
   254d8:	31ffffc4 	addi	r7,r6,-1
   254dc:	30003626 	beq	r6,zero,255b8 <memmove+0x11c>
   254e0:	39c00044 	addi	r7,r7,1
   254e4:	19cf883a 	add	r7,r3,r7
   254e8:	29800003 	ldbu	r6,0(r5)
   254ec:	18c00044 	addi	r3,r3,1
   254f0:	29400044 	addi	r5,r5,1
   254f4:	19bfffc5 	stb	r6,-1(r3)
   254f8:	19fffb1e 	bne	r3,r7,254e8 <memmove+0x4c>
   254fc:	f800283a 	ret
   25500:	1146b03a 	or	r3,r2,r5
   25504:	18c000cc 	andi	r3,r3,3
   25508:	1800281e 	bne	r3,zero,255ac <memmove+0x110>
   2550c:	313ffc04 	addi	r4,r6,-16
   25510:	2008d13a 	srli	r4,r4,4
   25514:	2811883a 	mov	r8,r5
   25518:	100f883a 	mov	r7,r2
   2551c:	21000044 	addi	r4,r4,1
   25520:	2008913a 	slli	r4,r4,4
   25524:	1107883a 	add	r3,r2,r4
   25528:	42400017 	ldw	r9,0(r8)
   2552c:	42000404 	addi	r8,r8,16
   25530:	39c00404 	addi	r7,r7,16
   25534:	3a7ffc15 	stw	r9,-16(r7)
   25538:	427ffd17 	ldw	r9,-12(r8)
   2553c:	3a7ffd15 	stw	r9,-12(r7)
   25540:	427ffe17 	ldw	r9,-8(r8)
   25544:	3a7ffe15 	stw	r9,-8(r7)
   25548:	427fff17 	ldw	r9,-4(r8)
   2554c:	3a7fff15 	stw	r9,-4(r7)
   25550:	38fff51e 	bne	r7,r3,25528 <memmove+0x8c>
   25554:	31c0030c 	andi	r7,r6,12
   25558:	290b883a 	add	r5,r5,r4
   2555c:	324003cc 	andi	r9,r6,15
   25560:	38001626 	beq	r7,zero,255bc <memmove+0x120>
   25564:	2809883a 	mov	r4,r5
   25568:	180f883a 	mov	r7,r3
   2556c:	1a57883a 	add	r11,r3,r9
   25570:	22800017 	ldw	r10,0(r4)
   25574:	39c00104 	addi	r7,r7,4
   25578:	59d1c83a 	sub	r8,r11,r7
   2557c:	42000128 	cmpgeui	r8,r8,4
   25580:	3abfff15 	stw	r10,-4(r7)
   25584:	21000104 	addi	r4,r4,4
   25588:	403ff91e 	bne	r8,zero,25570 <memmove+0xd4>
   2558c:	493fff04 	addi	r4,r9,-4
   25590:	2008d0ba 	srli	r4,r4,2
   25594:	318000cc 	andi	r6,r6,3
   25598:	21000044 	addi	r4,r4,1
   2559c:	200890ba 	slli	r4,r4,2
   255a0:	1907883a 	add	r3,r3,r4
   255a4:	290b883a 	add	r5,r5,r4
   255a8:	003fcb06 	br	254d8 <memmove+0x3c>
   255ac:	31ffffc4 	addi	r7,r6,-1
   255b0:	1007883a 	mov	r3,r2
   255b4:	003fca06 	br	254e0 <memmove+0x44>
   255b8:	f800283a 	ret
   255bc:	480d883a 	mov	r6,r9
   255c0:	003fc506 	br	254d8 <memmove+0x3c>

000255c4 <memset>:
   255c4:	defffb04 	addi	sp,sp,-20
   255c8:	dc800215 	stw	r18,8(sp)
   255cc:	dc400115 	stw	r17,4(sp)
   255d0:	dfc00415 	stw	ra,16(sp)
   255d4:	dcc00315 	stw	r19,12(sp)
   255d8:	dc000015 	stw	r16,0(sp)
   255dc:	208000cc 	andi	r2,r4,3
   255e0:	2023883a 	mov	r17,r4
   255e4:	2825883a 	mov	r18,r5
   255e8:	10004026 	beq	r2,zero,256ec <memset+0x128>
   255ec:	34ffffc4 	addi	r19,r6,-1
   255f0:	30003326 	beq	r6,zero,256c0 <memset+0xfc>
   255f4:	280f883a 	mov	r7,r5
   255f8:	2021883a 	mov	r16,r4
   255fc:	00000306 	br	2560c <memset+0x48>
   25600:	9cffffc4 	addi	r19,r19,-1
   25604:	99bfffe0 	cmpeqi	r6,r19,-1
   25608:	30002d1e 	bne	r6,zero,256c0 <memset+0xfc>
   2560c:	84000044 	addi	r16,r16,1
   25610:	818000cc 	andi	r6,r16,3
   25614:	81ffffc5 	stb	r7,-1(r16)
   25618:	303ff91e 	bne	r6,zero,25600 <memset+0x3c>
   2561c:	98800128 	cmpgeui	r2,r19,4
   25620:	10002126 	beq	r2,zero,256a8 <memset+0xe4>
   25624:	01404074 	movhi	r5,257
   25628:	29404044 	addi	r5,r5,257
   2562c:	91003fcc 	andi	r4,r18,255
   25630:	002b47c0 	call	2b47c <__mulsi3>
   25634:	98c00430 	cmpltui	r3,r19,16
   25638:	18002f1e 	bne	r3,zero,256f8 <memset+0x134>
   2563c:	99bffc04 	addi	r6,r19,-16
   25640:	300cd13a 	srli	r6,r6,4
   25644:	31800044 	addi	r6,r6,1
   25648:	300c913a 	slli	r6,r6,4
   2564c:	818d883a 	add	r6,r16,r6
   25650:	80800015 	stw	r2,0(r16)
   25654:	80800115 	stw	r2,4(r16)
   25658:	80800215 	stw	r2,8(r16)
   2565c:	80800315 	stw	r2,12(r16)
   25660:	84000404 	addi	r16,r16,16
   25664:	81bffa1e 	bne	r16,r6,25650 <memset+0x8c>
   25668:	9900030c 	andi	r4,r19,12
   2566c:	98c003cc 	andi	r3,r19,15
   25670:	20001b26 	beq	r4,zero,256e0 <memset+0x11c>
   25674:	3009883a 	mov	r4,r6
   25678:	30cb883a 	add	r5,r6,r3
   2567c:	21000104 	addi	r4,r4,4
   25680:	290fc83a 	sub	r7,r5,r4
   25684:	39c00128 	cmpgeui	r7,r7,4
   25688:	20bfff15 	stw	r2,-4(r4)
   2568c:	383ffb1e 	bne	r7,zero,2567c <memset+0xb8>
   25690:	1c3fff04 	addi	r16,r3,-4
   25694:	8020d0ba 	srli	r16,r16,2
   25698:	1cc000cc 	andi	r19,r3,3
   2569c:	84000044 	addi	r16,r16,1
   256a0:	802090ba 	slli	r16,r16,2
   256a4:	3421883a 	add	r16,r6,r16
   256a8:	98000526 	beq	r19,zero,256c0 <memset+0xfc>
   256ac:	900b883a 	mov	r5,r18
   256b0:	84c7883a 	add	r3,r16,r19
   256b4:	84000044 	addi	r16,r16,1
   256b8:	817fffc5 	stb	r5,-1(r16)
   256bc:	1c3ffd1e 	bne	r3,r16,256b4 <memset+0xf0>
   256c0:	8805883a 	mov	r2,r17
   256c4:	dfc00417 	ldw	ra,16(sp)
   256c8:	dcc00317 	ldw	r19,12(sp)
   256cc:	dc800217 	ldw	r18,8(sp)
   256d0:	dc400117 	ldw	r17,4(sp)
   256d4:	dc000017 	ldw	r16,0(sp)
   256d8:	dec00504 	addi	sp,sp,20
   256dc:	f800283a 	ret
   256e0:	1827883a 	mov	r19,r3
   256e4:	983ff11e 	bne	r19,zero,256ac <memset+0xe8>
   256e8:	003ff506 	br	256c0 <memset+0xfc>
   256ec:	2021883a 	mov	r16,r4
   256f0:	3027883a 	mov	r19,r6
   256f4:	003fc906 	br	2561c <memset+0x58>
   256f8:	800d883a 	mov	r6,r16
   256fc:	9807883a 	mov	r3,r19
   25700:	003fdc06 	br	25674 <memset+0xb0>

00025704 <strlen>:
   25704:	208000cc 	andi	r2,r4,3
   25708:	10000926 	beq	r2,zero,25730 <strlen+0x2c>
   2570c:	2005883a 	mov	r2,r4
   25710:	00000306 	br	25720 <strlen+0x1c>
   25714:	10800044 	addi	r2,r2,1
   25718:	10c000cc 	andi	r3,r2,3
   2571c:	18000526 	beq	r3,zero,25734 <strlen+0x30>
   25720:	10c00007 	ldb	r3,0(r2)
   25724:	183ffb1e 	bne	r3,zero,25714 <strlen+0x10>
   25728:	1105c83a 	sub	r2,r2,r4
   2572c:	f800283a 	ret
   25730:	2005883a 	mov	r2,r4
   25734:	11400017 	ldw	r5,0(r2)
   25738:	01ffbff4 	movhi	r7,65279
   2573c:	39ffbfc4 	addi	r7,r7,-257
   25740:	29c7883a 	add	r3,r5,r7
   25744:	01a02074 	movhi	r6,32897
   25748:	014a303a 	nor	r5,zero,r5
   2574c:	1946703a 	and	r3,r3,r5
   25750:	31a02004 	addi	r6,r6,-32640
   25754:	1986703a 	and	r3,r3,r6
   25758:	1800071e 	bne	r3,zero,25778 <strlen+0x74>
   2575c:	11400117 	ldw	r5,4(r2)
   25760:	10800104 	addi	r2,r2,4
   25764:	29c7883a 	add	r3,r5,r7
   25768:	014a303a 	nor	r5,zero,r5
   2576c:	1946703a 	and	r3,r3,r5
   25770:	1986703a 	and	r3,r3,r6
   25774:	183ff926 	beq	r3,zero,2575c <strlen+0x58>
   25778:	10c00007 	ldb	r3,0(r2)
   2577c:	183fea26 	beq	r3,zero,25728 <strlen+0x24>
   25780:	10c00047 	ldb	r3,1(r2)
   25784:	10800044 	addi	r2,r2,1
   25788:	183fe726 	beq	r3,zero,25728 <strlen+0x24>
   2578c:	10c00047 	ldb	r3,1(r2)
   25790:	10800044 	addi	r2,r2,1
   25794:	183ffa1e 	bne	r3,zero,25780 <strlen+0x7c>
   25798:	003fe306 	br	25728 <strlen+0x24>

0002579c <_setlocale_r>:
   2579c:	30000f26 	beq	r6,zero,257dc <_setlocale_r+0x40>
   257a0:	014000f4 	movhi	r5,3
   257a4:	defffe04 	addi	sp,sp,-8
   257a8:	29413604 	addi	r5,r5,1240
   257ac:	3009883a 	mov	r4,r6
   257b0:	dc000015 	stw	r16,0(sp)
   257b4:	dfc00115 	stw	ra,4(sp)
   257b8:	3021883a 	mov	r16,r6
   257bc:	0029ee80 	call	29ee8 <strcmp>
   257c0:	1000091e 	bne	r2,zero,257e8 <_setlocale_r+0x4c>
   257c4:	008000f4 	movhi	r2,3
   257c8:	10813504 	addi	r2,r2,1236
   257cc:	dfc00117 	ldw	ra,4(sp)
   257d0:	dc000017 	ldw	r16,0(sp)
   257d4:	dec00204 	addi	sp,sp,8
   257d8:	f800283a 	ret
   257dc:	008000f4 	movhi	r2,3
   257e0:	10813504 	addi	r2,r2,1236
   257e4:	f800283a 	ret
   257e8:	014000f4 	movhi	r5,3
   257ec:	29413504 	addi	r5,r5,1236
   257f0:	8009883a 	mov	r4,r16
   257f4:	0029ee80 	call	29ee8 <strcmp>
   257f8:	103ff226 	beq	r2,zero,257c4 <_setlocale_r+0x28>
   257fc:	014000f4 	movhi	r5,3
   25800:	29424b04 	addi	r5,r5,2348
   25804:	8009883a 	mov	r4,r16
   25808:	0029ee80 	call	29ee8 <strcmp>
   2580c:	103fed26 	beq	r2,zero,257c4 <_setlocale_r+0x28>
   25810:	0005883a 	mov	r2,zero
   25814:	003fed06 	br	257cc <_setlocale_r+0x30>

00025818 <__locale_mb_cur_max>:
   25818:	008000f4 	movhi	r2,3
   2581c:	10833707 	ldb	r2,3292(r2)
   25820:	f800283a 	ret

00025824 <setlocale>:
   25824:	28000f26 	beq	r5,zero,25864 <setlocale+0x40>
   25828:	defffe04 	addi	sp,sp,-8
   2582c:	dc000015 	stw	r16,0(sp)
   25830:	2821883a 	mov	r16,r5
   25834:	014000f4 	movhi	r5,3
   25838:	29413604 	addi	r5,r5,1240
   2583c:	8009883a 	mov	r4,r16
   25840:	dfc00115 	stw	ra,4(sp)
   25844:	0029ee80 	call	29ee8 <strcmp>
   25848:	1000091e 	bne	r2,zero,25870 <setlocale+0x4c>
   2584c:	008000f4 	movhi	r2,3
   25850:	10813504 	addi	r2,r2,1236
   25854:	dfc00117 	ldw	ra,4(sp)
   25858:	dc000017 	ldw	r16,0(sp)
   2585c:	dec00204 	addi	sp,sp,8
   25860:	f800283a 	ret
   25864:	008000f4 	movhi	r2,3
   25868:	10813504 	addi	r2,r2,1236
   2586c:	f800283a 	ret
   25870:	014000f4 	movhi	r5,3
   25874:	29413504 	addi	r5,r5,1236
   25878:	8009883a 	mov	r4,r16
   2587c:	0029ee80 	call	29ee8 <strcmp>
   25880:	103ff226 	beq	r2,zero,2584c <setlocale+0x28>
   25884:	014000f4 	movhi	r5,3
   25888:	29424b04 	addi	r5,r5,2348
   2588c:	8009883a 	mov	r4,r16
   25890:	0029ee80 	call	29ee8 <strcmp>
   25894:	103fed26 	beq	r2,zero,2584c <setlocale+0x28>
   25898:	0005883a 	mov	r2,zero
   2589c:	003fed06 	br	25854 <setlocale+0x30>

000258a0 <__localeconv_l>:
   258a0:	20803c04 	addi	r2,r4,240
   258a4:	f800283a 	ret

000258a8 <_localeconv_r>:
   258a8:	008000f4 	movhi	r2,3
   258ac:	10832904 	addi	r2,r2,3236
   258b0:	f800283a 	ret

000258b4 <localeconv>:
   258b4:	008000f4 	movhi	r2,3
   258b8:	10832904 	addi	r2,r2,3236
   258bc:	f800283a 	ret

000258c0 <_close_r>:
   258c0:	defffe04 	addi	sp,sp,-8
   258c4:	dc000015 	stw	r16,0(sp)
   258c8:	008000f4 	movhi	r2,3
   258cc:	2021883a 	mov	r16,r4
   258d0:	2809883a 	mov	r4,r5
   258d4:	dfc00115 	stw	ra,4(sp)
   258d8:	100f1415 	stw	zero,15440(r2)
   258dc:	002dd680 	call	2dd68 <close>
   258e0:	10ffffd8 	cmpnei	r3,r2,-1
   258e4:	18000426 	beq	r3,zero,258f8 <_close_r+0x38>
   258e8:	dfc00117 	ldw	ra,4(sp)
   258ec:	dc000017 	ldw	r16,0(sp)
   258f0:	dec00204 	addi	sp,sp,8
   258f4:	f800283a 	ret
   258f8:	00c000f4 	movhi	r3,3
   258fc:	18cf1417 	ldw	r3,15440(r3)
   25900:	183ff926 	beq	r3,zero,258e8 <_close_r+0x28>
   25904:	80c00015 	stw	r3,0(r16)
   25908:	dfc00117 	ldw	ra,4(sp)
   2590c:	dc000017 	ldw	r16,0(sp)
   25910:	dec00204 	addi	sp,sp,8
   25914:	f800283a 	ret

00025918 <_reclaim_reent>:
   25918:	008000f4 	movhi	r2,3
   2591c:	1088cd17 	ldw	r2,9012(r2)
   25920:	11002e26 	beq	r2,r4,259dc <_reclaim_reent+0xc4>
   25924:	21401117 	ldw	r5,68(r4)
   25928:	defffc04 	addi	sp,sp,-16
   2592c:	dc400115 	stw	r17,4(sp)
   25930:	dfc00315 	stw	ra,12(sp)
   25934:	dc800215 	stw	r18,8(sp)
   25938:	dc000015 	stw	r16,0(sp)
   2593c:	2023883a 	mov	r17,r4
   25940:	28000f26 	beq	r5,zero,25980 <_reclaim_reent+0x68>
   25944:	0025883a 	mov	r18,zero
   25948:	2c85883a 	add	r2,r5,r18
   2594c:	14000017 	ldw	r16,0(r2)
   25950:	80000626 	beq	r16,zero,2596c <_reclaim_reent+0x54>
   25954:	800b883a 	mov	r5,r16
   25958:	84000017 	ldw	r16,0(r16)
   2595c:	8809883a 	mov	r4,r17
   25960:	00276600 	call	27660 <_free_r>
   25964:	803ffb1e 	bne	r16,zero,25954 <_reclaim_reent+0x3c>
   25968:	89401117 	ldw	r5,68(r17)
   2596c:	94800104 	addi	r18,r18,4
   25970:	90802018 	cmpnei	r2,r18,128
   25974:	103ff41e 	bne	r2,zero,25948 <_reclaim_reent+0x30>
   25978:	8809883a 	mov	r4,r17
   2597c:	00276600 	call	27660 <_free_r>
   25980:	89400e17 	ldw	r5,56(r17)
   25984:	28000226 	beq	r5,zero,25990 <_reclaim_reent+0x78>
   25988:	8809883a 	mov	r4,r17
   2598c:	00276600 	call	27660 <_free_r>
   25990:	89401317 	ldw	r5,76(r17)
   25994:	28000226 	beq	r5,zero,259a0 <_reclaim_reent+0x88>
   25998:	8809883a 	mov	r4,r17
   2599c:	00276600 	call	27660 <_free_r>
   259a0:	88800d17 	ldw	r2,52(r17)
   259a4:	10000726 	beq	r2,zero,259c4 <_reclaim_reent+0xac>
   259a8:	8809883a 	mov	r4,r17
   259ac:	dfc00317 	ldw	ra,12(sp)
   259b0:	dc800217 	ldw	r18,8(sp)
   259b4:	dc400117 	ldw	r17,4(sp)
   259b8:	dc000017 	ldw	r16,0(sp)
   259bc:	dec00404 	addi	sp,sp,16
   259c0:	1000683a 	jmp	r2
   259c4:	dfc00317 	ldw	ra,12(sp)
   259c8:	dc800217 	ldw	r18,8(sp)
   259cc:	dc400117 	ldw	r17,4(sp)
   259d0:	dc000017 	ldw	r16,0(sp)
   259d4:	dec00404 	addi	sp,sp,16
   259d8:	f800283a 	ret
   259dc:	f800283a 	ret

000259e0 <_lseek_r>:
   259e0:	2807883a 	mov	r3,r5
   259e4:	defffe04 	addi	sp,sp,-8
   259e8:	dc000015 	stw	r16,0(sp)
   259ec:	300b883a 	mov	r5,r6
   259f0:	008000f4 	movhi	r2,3
   259f4:	380d883a 	mov	r6,r7
   259f8:	2021883a 	mov	r16,r4
   259fc:	1809883a 	mov	r4,r3
   25a00:	dfc00115 	stw	ra,4(sp)
   25a04:	100f1415 	stw	zero,15440(r2)
   25a08:	002e59c0 	call	2e59c <lseek>
   25a0c:	10ffffd8 	cmpnei	r3,r2,-1
   25a10:	18000426 	beq	r3,zero,25a24 <_lseek_r+0x44>
   25a14:	dfc00117 	ldw	ra,4(sp)
   25a18:	dc000017 	ldw	r16,0(sp)
   25a1c:	dec00204 	addi	sp,sp,8
   25a20:	f800283a 	ret
   25a24:	00c000f4 	movhi	r3,3
   25a28:	18cf1417 	ldw	r3,15440(r3)
   25a2c:	183ff926 	beq	r3,zero,25a14 <_lseek_r+0x34>
   25a30:	80c00015 	stw	r3,0(r16)
   25a34:	dfc00117 	ldw	ra,4(sp)
   25a38:	dc000017 	ldw	r16,0(sp)
   25a3c:	dec00204 	addi	sp,sp,8
   25a40:	f800283a 	ret

00025a44 <_read_r>:
   25a44:	2807883a 	mov	r3,r5
   25a48:	defffe04 	addi	sp,sp,-8
   25a4c:	dc000015 	stw	r16,0(sp)
   25a50:	300b883a 	mov	r5,r6
   25a54:	008000f4 	movhi	r2,3
   25a58:	380d883a 	mov	r6,r7
   25a5c:	2021883a 	mov	r16,r4
   25a60:	1809883a 	mov	r4,r3
   25a64:	dfc00115 	stw	ra,4(sp)
   25a68:	100f1415 	stw	zero,15440(r2)
   25a6c:	002e77c0 	call	2e77c <read>
   25a70:	10ffffd8 	cmpnei	r3,r2,-1
   25a74:	18000426 	beq	r3,zero,25a88 <_read_r+0x44>
   25a78:	dfc00117 	ldw	ra,4(sp)
   25a7c:	dc000017 	ldw	r16,0(sp)
   25a80:	dec00204 	addi	sp,sp,8
   25a84:	f800283a 	ret
   25a88:	00c000f4 	movhi	r3,3
   25a8c:	18cf1417 	ldw	r3,15440(r3)
   25a90:	183ff926 	beq	r3,zero,25a78 <_read_r+0x34>
   25a94:	80c00015 	stw	r3,0(r16)
   25a98:	dfc00117 	ldw	ra,4(sp)
   25a9c:	dc000017 	ldw	r16,0(sp)
   25aa0:	dec00204 	addi	sp,sp,8
   25aa4:	f800283a 	ret

00025aa8 <_write_r>:
   25aa8:	2807883a 	mov	r3,r5
   25aac:	defffe04 	addi	sp,sp,-8
   25ab0:	dc000015 	stw	r16,0(sp)
   25ab4:	300b883a 	mov	r5,r6
   25ab8:	008000f4 	movhi	r2,3
   25abc:	380d883a 	mov	r6,r7
   25ac0:	2021883a 	mov	r16,r4
   25ac4:	1809883a 	mov	r4,r3
   25ac8:	dfc00115 	stw	ra,4(sp)
   25acc:	100f1415 	stw	zero,15440(r2)
   25ad0:	002e9e80 	call	2e9e8 <write>
   25ad4:	10ffffd8 	cmpnei	r3,r2,-1
   25ad8:	18000426 	beq	r3,zero,25aec <_write_r+0x44>
   25adc:	dfc00117 	ldw	ra,4(sp)
   25ae0:	dc000017 	ldw	r16,0(sp)
   25ae4:	dec00204 	addi	sp,sp,8
   25ae8:	f800283a 	ret
   25aec:	00c000f4 	movhi	r3,3
   25af0:	18cf1417 	ldw	r3,15440(r3)
   25af4:	183ff926 	beq	r3,zero,25adc <_write_r+0x34>
   25af8:	80c00015 	stw	r3,0(r16)
   25afc:	dfc00117 	ldw	ra,4(sp)
   25b00:	dc000017 	ldw	r16,0(sp)
   25b04:	dec00204 	addi	sp,sp,8
   25b08:	f800283a 	ret

00025b0c <quorem>:
   25b0c:	defff204 	addi	sp,sp,-56
   25b10:	dc400515 	stw	r17,20(sp)
   25b14:	20800417 	ldw	r2,16(r4)
   25b18:	2c400417 	ldw	r17,16(r5)
   25b1c:	dfc00d15 	stw	ra,52(sp)
   25b20:	df000c15 	stw	fp,48(sp)
   25b24:	ddc00b15 	stw	r23,44(sp)
   25b28:	dd800a15 	stw	r22,40(sp)
   25b2c:	dd400915 	stw	r21,36(sp)
   25b30:	dd000815 	stw	r20,32(sp)
   25b34:	dcc00715 	stw	r19,28(sp)
   25b38:	dc800615 	stw	r18,24(sp)
   25b3c:	dc000415 	stw	r16,16(sp)
   25b40:	d9000115 	stw	r4,4(sp)
   25b44:	d9400215 	stw	r5,8(sp)
   25b48:	14407416 	blt	r2,r17,25d1c <quorem+0x210>
   25b4c:	8c7fffc4 	addi	r17,r17,-1
   25b50:	882a90ba 	slli	r21,r17,2
   25b54:	2dc00504 	addi	r23,r5,20
   25b58:	24c00504 	addi	r19,r4,20
   25b5c:	bd65883a 	add	r18,r23,r21
   25b60:	9d45883a 	add	r2,r19,r21
   25b64:	97000017 	ldw	fp,0(r18)
   25b68:	15000017 	ldw	r20,0(r2)
   25b6c:	d8800315 	stw	r2,12(sp)
   25b70:	e7000044 	addi	fp,fp,1
   25b74:	e00b883a 	mov	r5,fp
   25b78:	a009883a 	mov	r4,r20
   25b7c:	00208400 	call	20840 <__udivsi3>
   25b80:	d8800015 	stw	r2,0(sp)
   25b84:	a7002e36 	bltu	r20,fp,25c40 <quorem+0x134>
   25b88:	b829883a 	mov	r20,r23
   25b8c:	982d883a 	mov	r22,r19
   25b90:	0039883a 	mov	fp,zero
   25b94:	002b883a 	mov	r21,zero
   25b98:	a4000017 	ldw	r16,0(r20)
   25b9c:	d9400017 	ldw	r5,0(sp)
   25ba0:	b5800104 	addi	r22,r22,4
   25ba4:	813fffcc 	andi	r4,r16,65535
   25ba8:	002b47c0 	call	2b47c <__mulsi3>
   25bac:	8008d43a 	srli	r4,r16,16
   25bb0:	d9400017 	ldw	r5,0(sp)
   25bb4:	1739883a 	add	fp,r2,fp
   25bb8:	a5000104 	addi	r20,r20,4
   25bbc:	002b47c0 	call	2b47c <__mulsi3>
   25bc0:	b17fff17 	ldw	r5,-4(r22)
   25bc4:	e13fffcc 	andi	r4,fp,65535
   25bc8:	e038d43a 	srli	fp,fp,16
   25bcc:	28ffffcc 	andi	r3,r5,65535
   25bd0:	1907c83a 	sub	r3,r3,r4
   25bd4:	1d47883a 	add	r3,r3,r21
   25bd8:	1809d43a 	srai	r4,r3,16
   25bdc:	280ad43a 	srli	r5,r5,16
   25be0:	1705883a 	add	r2,r2,fp
   25be4:	11bfffcc 	andi	r6,r2,65535
   25be8:	2189c83a 	sub	r4,r4,r6
   25bec:	2149883a 	add	r4,r4,r5
   25bf0:	200a943a 	slli	r5,r4,16
   25bf4:	18ffffcc 	andi	r3,r3,65535
   25bf8:	1038d43a 	srli	fp,r2,16
   25bfc:	1946b03a 	or	r3,r3,r5
   25c00:	b0ffff15 	stw	r3,-4(r22)
   25c04:	202bd43a 	srai	r21,r4,16
   25c08:	953fe32e 	bgeu	r18,r20,25b98 <quorem+0x8c>
   25c0c:	d8c00317 	ldw	r3,12(sp)
   25c10:	18800017 	ldw	r2,0(r3)
   25c14:	10000a1e 	bne	r2,zero,25c40 <quorem+0x134>
   25c18:	1d7fff04 	addi	r21,r3,-4
   25c1c:	9d400336 	bltu	r19,r21,25c2c <quorem+0x120>
   25c20:	00000506 	br	25c38 <quorem+0x12c>
   25c24:	8c7fffc4 	addi	r17,r17,-1
   25c28:	9d40032e 	bgeu	r19,r21,25c38 <quorem+0x12c>
   25c2c:	a8800017 	ldw	r2,0(r21)
   25c30:	ad7fff04 	addi	r21,r21,-4
   25c34:	103ffb26 	beq	r2,zero,25c24 <quorem+0x118>
   25c38:	d8800117 	ldw	r2,4(sp)
   25c3c:	14400415 	stw	r17,16(r2)
   25c40:	d9400217 	ldw	r5,8(sp)
   25c44:	d9000117 	ldw	r4,4(sp)
   25c48:	0028c180 	call	28c18 <__mcmp>
   25c4c:	10002616 	blt	r2,zero,25ce8 <quorem+0x1dc>
   25c50:	980d883a 	mov	r6,r19
   25c54:	0005883a 	mov	r2,zero
   25c58:	31000017 	ldw	r4,0(r6)
   25c5c:	b9400017 	ldw	r5,0(r23)
   25c60:	31800104 	addi	r6,r6,4
   25c64:	20ffffcc 	andi	r3,r4,65535
   25c68:	29ffffcc 	andi	r7,r5,65535
   25c6c:	19c7c83a 	sub	r3,r3,r7
   25c70:	1887883a 	add	r3,r3,r2
   25c74:	1805d43a 	srai	r2,r3,16
   25c78:	280ad43a 	srli	r5,r5,16
   25c7c:	2008d43a 	srli	r4,r4,16
   25c80:	18ffffcc 	andi	r3,r3,65535
   25c84:	1145c83a 	sub	r2,r2,r5
   25c88:	1105883a 	add	r2,r2,r4
   25c8c:	1008943a 	slli	r4,r2,16
   25c90:	bdc00104 	addi	r23,r23,4
   25c94:	1005d43a 	srai	r2,r2,16
   25c98:	1906b03a 	or	r3,r3,r4
   25c9c:	30ffff15 	stw	r3,-4(r6)
   25ca0:	95ffed2e 	bgeu	r18,r23,25c58 <quorem+0x14c>
   25ca4:	880490ba 	slli	r2,r17,2
   25ca8:	9885883a 	add	r2,r19,r2
   25cac:	10c00017 	ldw	r3,0(r2)
   25cb0:	18000a1e 	bne	r3,zero,25cdc <quorem+0x1d0>
   25cb4:	10bfff04 	addi	r2,r2,-4
   25cb8:	98800336 	bltu	r19,r2,25cc8 <quorem+0x1bc>
   25cbc:	00000506 	br	25cd4 <quorem+0x1c8>
   25cc0:	8c7fffc4 	addi	r17,r17,-1
   25cc4:	9880032e 	bgeu	r19,r2,25cd4 <quorem+0x1c8>
   25cc8:	10c00017 	ldw	r3,0(r2)
   25ccc:	10bfff04 	addi	r2,r2,-4
   25cd0:	183ffb26 	beq	r3,zero,25cc0 <quorem+0x1b4>
   25cd4:	d8800117 	ldw	r2,4(sp)
   25cd8:	14400415 	stw	r17,16(r2)
   25cdc:	d8800017 	ldw	r2,0(sp)
   25ce0:	10800044 	addi	r2,r2,1
   25ce4:	d8800015 	stw	r2,0(sp)
   25ce8:	d8800017 	ldw	r2,0(sp)
   25cec:	dfc00d17 	ldw	ra,52(sp)
   25cf0:	df000c17 	ldw	fp,48(sp)
   25cf4:	ddc00b17 	ldw	r23,44(sp)
   25cf8:	dd800a17 	ldw	r22,40(sp)
   25cfc:	dd400917 	ldw	r21,36(sp)
   25d00:	dd000817 	ldw	r20,32(sp)
   25d04:	dcc00717 	ldw	r19,28(sp)
   25d08:	dc800617 	ldw	r18,24(sp)
   25d0c:	dc400517 	ldw	r17,20(sp)
   25d10:	dc000417 	ldw	r16,16(sp)
   25d14:	dec00e04 	addi	sp,sp,56
   25d18:	f800283a 	ret
   25d1c:	0005883a 	mov	r2,zero
   25d20:	003ff206 	br	25cec <quorem+0x1e0>

00025d24 <_dtoa_r>:
   25d24:	20800e17 	ldw	r2,56(r4)
   25d28:	deffe104 	addi	sp,sp,-124
   25d2c:	dd401a15 	stw	r21,104(sp)
   25d30:	dc801715 	stw	r18,92(sp)
   25d34:	dc401615 	stw	r17,88(sp)
   25d38:	dc001515 	stw	r16,84(sp)
   25d3c:	dfc01e15 	stw	ra,120(sp)
   25d40:	df001d15 	stw	fp,116(sp)
   25d44:	ddc01c15 	stw	r23,112(sp)
   25d48:	dd801b15 	stw	r22,108(sp)
   25d4c:	dd001915 	stw	r20,100(sp)
   25d50:	dcc01815 	stw	r19,96(sp)
   25d54:	d9400215 	stw	r5,8(sp)
   25d58:	d9c00115 	stw	r7,4(sp)
   25d5c:	dc402117 	ldw	r17,132(sp)
   25d60:	2021883a 	mov	r16,r4
   25d64:	3025883a 	mov	r18,r6
   25d68:	302b883a 	mov	r21,r6
   25d6c:	10000826 	beq	r2,zero,25d90 <_dtoa_r+0x6c>
   25d70:	21800f17 	ldw	r6,60(r4)
   25d74:	00c00044 	movi	r3,1
   25d78:	100b883a 	mov	r5,r2
   25d7c:	1986983a 	sll	r3,r3,r6
   25d80:	11800115 	stw	r6,4(r2)
   25d84:	10c00215 	stw	r3,8(r2)
   25d88:	00282240 	call	28224 <_Bfree>
   25d8c:	80000e15 	stw	zero,56(r16)
   25d90:	90019316 	blt	r18,zero,263e0 <_dtoa_r+0x6bc>
   25d94:	88000015 	stw	zero,0(r17)
   25d98:	909ffc2c 	andhi	r2,r18,32752
   25d9c:	00dffc34 	movhi	r3,32752
   25da0:	10c19826 	beq	r2,r3,26404 <_dtoa_r+0x6e0>
   25da4:	d9000217 	ldw	r4,8(sp)
   25da8:	000d883a 	mov	r6,zero
   25dac:	000f883a 	mov	r7,zero
   25db0:	a80b883a 	mov	r5,r21
   25db4:	002c6940 	call	2c694 <__eqdf2>
   25db8:	1000181e 	bne	r2,zero,25e1c <_dtoa_r+0xf8>
   25dbc:	d8c02017 	ldw	r3,128(sp)
   25dc0:	00800044 	movi	r2,1
   25dc4:	18800015 	stw	r2,0(r3)
   25dc8:	d8802217 	ldw	r2,136(sp)
   25dcc:	10000426 	beq	r2,zero,25de0 <_dtoa_r+0xbc>
   25dd0:	d8c02217 	ldw	r3,136(sp)
   25dd4:	008000f4 	movhi	r2,3
   25dd8:	10812444 	addi	r2,r2,1169
   25ddc:	18800015 	stw	r2,0(r3)
   25de0:	070000f4 	movhi	fp,3
   25de4:	e7012404 	addi	fp,fp,1168
   25de8:	e005883a 	mov	r2,fp
   25dec:	dfc01e17 	ldw	ra,120(sp)
   25df0:	df001d17 	ldw	fp,116(sp)
   25df4:	ddc01c17 	ldw	r23,112(sp)
   25df8:	dd801b17 	ldw	r22,108(sp)
   25dfc:	dd401a17 	ldw	r21,104(sp)
   25e00:	dd001917 	ldw	r20,100(sp)
   25e04:	dcc01817 	ldw	r19,96(sp)
   25e08:	dc801717 	ldw	r18,92(sp)
   25e0c:	dc401617 	ldw	r17,88(sp)
   25e10:	dc001517 	ldw	r16,84(sp)
   25e14:	dec01f04 	addi	sp,sp,124
   25e18:	f800283a 	ret
   25e1c:	dcc00217 	ldw	r19,8(sp)
   25e20:	d8801304 	addi	r2,sp,76
   25e24:	9022d53a 	srli	r17,r18,20
   25e28:	d8800015 	stw	r2,0(sp)
   25e2c:	d9c01404 	addi	r7,sp,80
   25e30:	980b883a 	mov	r5,r19
   25e34:	a80d883a 	mov	r6,r21
   25e38:	8009883a 	mov	r4,r16
   25e3c:	00290000 	call	29000 <__d2b>
   25e40:	102f883a 	mov	r23,r2
   25e44:	8801811e 	bne	r17,zero,2644c <_dtoa_r+0x728>
   25e48:	dd001317 	ldw	r20,76(sp)
   25e4c:	dc401417 	ldw	r17,80(sp)
   25e50:	a463883a 	add	r17,r20,r17
   25e54:	88810c84 	addi	r2,r17,1074
   25e58:	10c00850 	cmplti	r3,r2,33
   25e5c:	1803101e 	bne	r3,zero,26aa0 <_dtoa_r+0xd7c>
   25e60:	00c01004 	movi	r3,64
   25e64:	1887c83a 	sub	r3,r3,r2
   25e68:	90c8983a 	sll	r4,r18,r3
   25e6c:	d8c00217 	ldw	r3,8(sp)
   25e70:	88810484 	addi	r2,r17,1042
   25e74:	1884d83a 	srl	r2,r3,r2
   25e78:	2088b03a 	or	r4,r4,r2
   25e7c:	002dc4c0 	call	2dc4c <__floatunsidf>
   25e80:	1009883a 	mov	r4,r2
   25e84:	00bf8434 	movhi	r2,65040
   25e88:	188b883a 	add	r5,r3,r2
   25e8c:	00800044 	movi	r2,1
   25e90:	8c7fffc4 	addi	r17,r17,-1
   25e94:	d8800915 	stw	r2,36(sp)
   25e98:	000d883a 	mov	r6,zero
   25e9c:	01cffe34 	movhi	r7,16376
   25ea0:	002d1240 	call	2d124 <__subdf3>
   25ea4:	0198dbf4 	movhi	r6,25455
   25ea8:	01cff4f4 	movhi	r7,16339
   25eac:	3190d844 	addi	r6,r6,17249
   25eb0:	39e1e9c4 	addi	r7,r7,-30809
   25eb4:	1009883a 	mov	r4,r2
   25eb8:	180b883a 	mov	r5,r3
   25ebc:	002c91c0 	call	2c91c <__muldf3>
   25ec0:	01a2d874 	movhi	r6,35681
   25ec4:	01cff1f4 	movhi	r7,16327
   25ec8:	31b22cc4 	addi	r6,r6,-14157
   25ecc:	39e28a04 	addi	r7,r7,-30168
   25ed0:	180b883a 	mov	r5,r3
   25ed4:	1009883a 	mov	r4,r2
   25ed8:	002b4a40 	call	2b4a4 <__adddf3>
   25edc:	8809883a 	mov	r4,r17
   25ee0:	1027883a 	mov	r19,r2
   25ee4:	1825883a 	mov	r18,r3
   25ee8:	002db940 	call	2db94 <__floatsidf>
   25eec:	019427f4 	movhi	r6,20639
   25ef0:	01cff4f4 	movhi	r7,16339
   25ef4:	319e7ec4 	addi	r6,r6,31227
   25ef8:	39d104c4 	addi	r7,r7,17427
   25efc:	1009883a 	mov	r4,r2
   25f00:	180b883a 	mov	r5,r3
   25f04:	002c91c0 	call	2c91c <__muldf3>
   25f08:	100d883a 	mov	r6,r2
   25f0c:	180f883a 	mov	r7,r3
   25f10:	9809883a 	mov	r4,r19
   25f14:	900b883a 	mov	r5,r18
   25f18:	002b4a40 	call	2b4a4 <__adddf3>
   25f1c:	1009883a 	mov	r4,r2
   25f20:	180b883a 	mov	r5,r3
   25f24:	1027883a 	mov	r19,r2
   25f28:	1825883a 	mov	r18,r3
   25f2c:	002db140 	call	2db14 <__fixdfsi>
   25f30:	000d883a 	mov	r6,zero
   25f34:	000f883a 	mov	r7,zero
   25f38:	9809883a 	mov	r4,r19
   25f3c:	900b883a 	mov	r5,r18
   25f40:	102d883a 	mov	r22,r2
   25f44:	002c8240 	call	2c824 <__ledf2>
   25f48:	1002a616 	blt	r2,zero,269e4 <_dtoa_r+0xcc0>
   25f4c:	a469c83a 	sub	r20,r20,r17
   25f50:	a0ffffc4 	addi	r3,r20,-1
   25f54:	b08005e8 	cmpgeui	r2,r22,23
   25f58:	d8c00415 	stw	r3,16(sp)
   25f5c:	1002981e 	bne	r2,zero,269c0 <_dtoa_r+0xc9c>
   25f60:	b00490fa 	slli	r2,r22,3
   25f64:	02c000f4 	movhi	r11,3
   25f68:	5ac17504 	addi	r11,r11,1492
   25f6c:	5885883a 	add	r2,r11,r2
   25f70:	11800017 	ldw	r6,0(r2)
   25f74:	11c00117 	ldw	r7,4(r2)
   25f78:	d9000217 	ldw	r4,8(sp)
   25f7c:	a80b883a 	mov	r5,r21
   25f80:	002c8240 	call	2c824 <__ledf2>
   25f84:	1001d60e 	bge	r2,zero,266e0 <_dtoa_r+0x9bc>
   25f88:	d8000815 	stw	zero,32(sp)
   25f8c:	a0bfffc4 	addi	r2,r20,-1
   25f90:	b5bfffc4 	addi	r22,r22,-1
   25f94:	10028e16 	blt	r2,zero,269d0 <_dtoa_r+0xcac>
   25f98:	d8000515 	stw	zero,20(sp)
   25f9c:	b001d30e 	bge	r22,zero,266ec <_dtoa_r+0x9c8>
   25fa0:	d8800517 	ldw	r2,20(sp)
   25fa4:	d8c00117 	ldw	r3,4(sp)
   25fa8:	dd800615 	stw	r22,24(sp)
   25fac:	1585c83a 	sub	r2,r2,r22
   25fb0:	d8800515 	stw	r2,20(sp)
   25fb4:	0585c83a 	sub	r2,zero,r22
   25fb8:	d8800315 	stw	r2,12(sp)
   25fbc:	188002a8 	cmpgeui	r2,r3,10
   25fc0:	002d883a 	mov	r22,zero
   25fc4:	1001d11e 	bne	r2,zero,2670c <_dtoa_r+0x9e8>
   25fc8:	18800190 	cmplti	r2,r3,6
   25fcc:	1002a31e 	bne	r2,zero,26a5c <_dtoa_r+0xd38>
   25fd0:	18ffff04 	addi	r3,r3,-4
   25fd4:	d8c00115 	stw	r3,4(sp)
   25fd8:	188000e0 	cmpeqi	r2,r3,3
   25fdc:	0023883a 	mov	r17,zero
   25fe0:	1003b71e 	bne	r2,zero,26ec0 <_dtoa_r+0x119c>
   25fe4:	18800108 	cmpgei	r2,r3,4
   25fe8:	1003a626 	beq	r2,zero,26e84 <_dtoa_r+0x1160>
   25fec:	d8800117 	ldw	r2,4(sp)
   25ff0:	10800120 	cmpeqi	r2,r2,4
   25ff4:	1003611e 	bne	r2,zero,26d7c <_dtoa_r+0x1058>
   25ff8:	00800144 	movi	r2,5
   25ffc:	d8800115 	stw	r2,4(sp)
   26000:	00800044 	movi	r2,1
   26004:	d8800715 	stw	r2,28(sp)
   26008:	d8801f17 	ldw	r2,124(sp)
   2600c:	d8c00617 	ldw	r3,24(sp)
   26010:	10c5883a 	add	r2,r2,r3
   26014:	14800044 	addi	r18,r2,1
   26018:	d8800a15 	stw	r2,40(sp)
   2601c:	900d883a 	mov	r6,r18
   26020:	0485320e 	bge	zero,r18,274ec <_dtoa_r+0x17c8>
   26024:	30800608 	cmpgei	r2,r6,24
   26028:	10053026 	beq	r2,zero,274ec <_dtoa_r+0x17c8>
   2602c:	00c00044 	movi	r3,1
   26030:	00800104 	movi	r2,4
   26034:	1085883a 	add	r2,r2,r2
   26038:	11000504 	addi	r4,r2,20
   2603c:	180b883a 	mov	r5,r3
   26040:	18c00044 	addi	r3,r3,1
   26044:	313ffb2e 	bgeu	r6,r4,26034 <_dtoa_r+0x310>
   26048:	81400f15 	stw	r5,60(r16)
   2604c:	8009883a 	mov	r4,r16
   26050:	00281800 	call	28180 <_Balloc>
   26054:	1039883a 	mov	fp,r2
   26058:	10050d26 	beq	r2,zero,27490 <_dtoa_r+0x176c>
   2605c:	80800e15 	stw	r2,56(r16)
   26060:	908003e8 	cmpgeui	r2,r18,15
   26064:	1001291e 	bne	r2,zero,2650c <_dtoa_r+0x7e8>
   26068:	88012826 	beq	r17,zero,2650c <_dtoa_r+0x7e8>
   2606c:	d8c00617 	ldw	r3,24(sp)
   26070:	00c3b40e 	bge	zero,r3,26f44 <_dtoa_r+0x1220>
   26074:	188003cc 	andi	r2,r3,15
   26078:	100490fa 	slli	r2,r2,3
   2607c:	1823d13a 	srai	r17,r3,4
   26080:	02c000f4 	movhi	r11,3
   26084:	5ac17504 	addi	r11,r11,1492
   26088:	5885883a 	add	r2,r11,r2
   2608c:	88c0040c 	andi	r3,r17,16
   26090:	12400017 	ldw	r9,0(r2)
   26094:	12000117 	ldw	r8,4(r2)
   26098:	18037626 	beq	r3,zero,26e74 <_dtoa_r+0x1150>
   2609c:	008000f4 	movhi	r2,3
   260a0:	10816b04 	addi	r2,r2,1452
   260a4:	d9000217 	ldw	r4,8(sp)
   260a8:	11800817 	ldw	r6,32(r2)
   260ac:	11c00917 	ldw	r7,36(r2)
   260b0:	a80b883a 	mov	r5,r21
   260b4:	da000c15 	stw	r8,48(sp)
   260b8:	da400b15 	stw	r9,44(sp)
   260bc:	002bda80 	call	2bda8 <__divdf3>
   260c0:	da400b17 	ldw	r9,44(sp)
   260c4:	da000c17 	ldw	r8,48(sp)
   260c8:	8c4003cc 	andi	r17,r17,15
   260cc:	1009883a 	mov	r4,r2
   260d0:	180b883a 	mov	r5,r3
   260d4:	04c000c4 	movi	r19,3
   260d8:	88001c26 	beq	r17,zero,2614c <_dtoa_r+0x428>
   260dc:	050000f4 	movhi	r20,3
   260e0:	a5016b04 	addi	r20,r20,1452
   260e4:	dc800b15 	stw	r18,44(sp)
   260e8:	dc000c15 	stw	r16,48(sp)
   260ec:	9825883a 	mov	r18,r19
   260f0:	a021883a 	mov	r16,r20
   260f4:	2827883a 	mov	r19,r5
   260f8:	2029883a 	mov	r20,r4
   260fc:	400b883a 	mov	r5,r8
   26100:	4809883a 	mov	r4,r9
   26104:	8980004c 	andi	r6,r17,1
   26108:	30000626 	beq	r6,zero,26124 <_dtoa_r+0x400>
   2610c:	81800017 	ldw	r6,0(r16)
   26110:	81c00117 	ldw	r7,4(r16)
   26114:	94800044 	addi	r18,r18,1
   26118:	002c91c0 	call	2c91c <__muldf3>
   2611c:	1009883a 	mov	r4,r2
   26120:	180b883a 	mov	r5,r3
   26124:	8823d07a 	srai	r17,r17,1
   26128:	84000204 	addi	r16,r16,8
   2612c:	883ff51e 	bne	r17,zero,26104 <_dtoa_r+0x3e0>
   26130:	2811883a 	mov	r8,r5
   26134:	dc000c17 	ldw	r16,48(sp)
   26138:	980b883a 	mov	r5,r19
   2613c:	9027883a 	mov	r19,r18
   26140:	dc800b17 	ldw	r18,44(sp)
   26144:	2013883a 	mov	r9,r4
   26148:	a009883a 	mov	r4,r20
   2614c:	480d883a 	mov	r6,r9
   26150:	400f883a 	mov	r7,r8
   26154:	002bda80 	call	2bda8 <__divdf3>
   26158:	1023883a 	mov	r17,r2
   2615c:	1829883a 	mov	r20,r3
   26160:	d8800817 	ldw	r2,32(sp)
   26164:	10000626 	beq	r2,zero,26180 <_dtoa_r+0x45c>
   26168:	000d883a 	mov	r6,zero
   2616c:	01cffc34 	movhi	r7,16368
   26170:	8809883a 	mov	r4,r17
   26174:	a00b883a 	mov	r5,r20
   26178:	002c8240 	call	2c824 <__ledf2>
   2617c:	10045a16 	blt	r2,zero,272e8 <_dtoa_r+0x15c4>
   26180:	9809883a 	mov	r4,r19
   26184:	002db940 	call	2db94 <__floatsidf>
   26188:	880d883a 	mov	r6,r17
   2618c:	a00f883a 	mov	r7,r20
   26190:	1009883a 	mov	r4,r2
   26194:	180b883a 	mov	r5,r3
   26198:	002c91c0 	call	2c91c <__muldf3>
   2619c:	000d883a 	mov	r6,zero
   261a0:	01d00734 	movhi	r7,16412
   261a4:	1009883a 	mov	r4,r2
   261a8:	180b883a 	mov	r5,r3
   261ac:	002b4a40 	call	2b4a4 <__adddf3>
   261b0:	d8800b15 	stw	r2,44(sp)
   261b4:	00bf3034 	movhi	r2,64704
   261b8:	18a7883a 	add	r19,r3,r2
   261bc:	9000c026 	beq	r18,zero,264c0 <_dtoa_r+0x79c>
   261c0:	d8800617 	ldw	r2,24(sp)
   261c4:	dc800c15 	stw	r18,48(sp)
   261c8:	d8801115 	stw	r2,68(sp)
   261cc:	d8800c17 	ldw	r2,48(sp)
   261d0:	02c000f4 	movhi	r11,3
   261d4:	5ac17504 	addi	r11,r11,1492
   261d8:	10bfffc4 	addi	r2,r2,-1
   261dc:	100490fa 	slli	r2,r2,3
   261e0:	8809883a 	mov	r4,r17
   261e4:	a00b883a 	mov	r5,r20
   261e8:	5885883a 	add	r2,r11,r2
   261ec:	10c00017 	ldw	r3,0(r2)
   261f0:	10800117 	ldw	r2,4(r2)
   261f4:	dac00d15 	stw	r11,52(sp)
   261f8:	d8c00f15 	stw	r3,60(sp)
   261fc:	d8801015 	stw	r2,64(sp)
   26200:	002db140 	call	2db14 <__fixdfsi>
   26204:	11400c04 	addi	r5,r2,48
   26208:	1009883a 	mov	r4,r2
   2620c:	d9400e15 	stw	r5,56(sp)
   26210:	002db940 	call	2db94 <__floatsidf>
   26214:	8809883a 	mov	r4,r17
   26218:	a00b883a 	mov	r5,r20
   2621c:	100d883a 	mov	r6,r2
   26220:	180f883a 	mov	r7,r3
   26224:	002d1240 	call	2d124 <__subdf3>
   26228:	d9000717 	ldw	r4,28(sp)
   2622c:	dac00d17 	ldw	r11,52(sp)
   26230:	e2000044 	addi	r8,fp,1
   26234:	1029883a 	mov	r20,r2
   26238:	1823883a 	mov	r17,r3
   2623c:	2003ce26 	beq	r4,zero,27178 <_dtoa_r+0x1454>
   26240:	d9800f17 	ldw	r6,60(sp)
   26244:	d9c01017 	ldw	r7,64(sp)
   26248:	0009883a 	mov	r4,zero
   2624c:	014ff834 	movhi	r5,16352
   26250:	da001215 	stw	r8,72(sp)
   26254:	002bda80 	call	2bda8 <__divdf3>
   26258:	d9800b17 	ldw	r6,44(sp)
   2625c:	980f883a 	mov	r7,r19
   26260:	1009883a 	mov	r4,r2
   26264:	180b883a 	mov	r5,r3
   26268:	002d1240 	call	2d124 <__subdf3>
   2626c:	1009883a 	mov	r4,r2
   26270:	d8800e17 	ldw	r2,56(sp)
   26274:	180b883a 	mov	r5,r3
   26278:	a00d883a 	mov	r6,r20
   2627c:	e0800005 	stb	r2,0(fp)
   26280:	880f883a 	mov	r7,r17
   26284:	d9000d15 	stw	r4,52(sp)
   26288:	d8c00b15 	stw	r3,44(sp)
   2628c:	002c7280 	call	2c728 <__gedf2>
   26290:	d9400b17 	ldw	r5,44(sp)
   26294:	d9000d17 	ldw	r4,52(sp)
   26298:	da001217 	ldw	r8,72(sp)
   2629c:	00840b16 	blt	zero,r2,272cc <_dtoa_r+0x15a8>
   262a0:	0005883a 	mov	r2,zero
   262a4:	dc800d15 	stw	r18,52(sp)
   262a8:	dd800e15 	stw	r22,56(sp)
   262ac:	ddc00b15 	stw	r23,44(sp)
   262b0:	dd400f15 	stw	r21,60(sp)
   262b4:	ddc00c17 	ldw	r23,48(sp)
   262b8:	402d883a 	mov	r22,r8
   262bc:	dc000c15 	stw	r16,48(sp)
   262c0:	2025883a 	mov	r18,r4
   262c4:	2827883a 	mov	r19,r5
   262c8:	102b883a 	mov	r21,r2
   262cc:	00002606 	br	26368 <_dtoa_r+0x644>
   262d0:	ad400044 	addi	r21,r21,1
   262d4:	adc4460e 	bge	r21,r23,273f0 <_dtoa_r+0x16cc>
   262d8:	9009883a 	mov	r4,r18
   262dc:	980b883a 	mov	r5,r19
   262e0:	000d883a 	mov	r6,zero
   262e4:	01d00934 	movhi	r7,16420
   262e8:	002c91c0 	call	2c91c <__muldf3>
   262ec:	000d883a 	mov	r6,zero
   262f0:	01d00934 	movhi	r7,16420
   262f4:	a009883a 	mov	r4,r20
   262f8:	880b883a 	mov	r5,r17
   262fc:	1025883a 	mov	r18,r2
   26300:	1827883a 	mov	r19,r3
   26304:	002c91c0 	call	2c91c <__muldf3>
   26308:	180b883a 	mov	r5,r3
   2630c:	1009883a 	mov	r4,r2
   26310:	1823883a 	mov	r17,r3
   26314:	1029883a 	mov	r20,r2
   26318:	002db140 	call	2db14 <__fixdfsi>
   2631c:	1009883a 	mov	r4,r2
   26320:	1021883a 	mov	r16,r2
   26324:	002db940 	call	2db94 <__floatsidf>
   26328:	a009883a 	mov	r4,r20
   2632c:	880b883a 	mov	r5,r17
   26330:	100d883a 	mov	r6,r2
   26334:	180f883a 	mov	r7,r3
   26338:	002d1240 	call	2d124 <__subdf3>
   2633c:	b5800044 	addi	r22,r22,1
   26340:	82000c04 	addi	r8,r16,48
   26344:	b23fffc5 	stb	r8,-1(r22)
   26348:	900d883a 	mov	r6,r18
   2634c:	980f883a 	mov	r7,r19
   26350:	1009883a 	mov	r4,r2
   26354:	180b883a 	mov	r5,r3
   26358:	1029883a 	mov	r20,r2
   2635c:	1823883a 	mov	r17,r3
   26360:	002c8240 	call	2c824 <__ledf2>
   26364:	10041e16 	blt	r2,zero,273e0 <_dtoa_r+0x16bc>
   26368:	a00d883a 	mov	r6,r20
   2636c:	880f883a 	mov	r7,r17
   26370:	0009883a 	mov	r4,zero
   26374:	014ffc34 	movhi	r5,16368
   26378:	002d1240 	call	2d124 <__subdf3>
   2637c:	900d883a 	mov	r6,r18
   26380:	980f883a 	mov	r7,r19
   26384:	1009883a 	mov	r4,r2
   26388:	180b883a 	mov	r5,r3
   2638c:	002c8240 	call	2c824 <__ledf2>
   26390:	103fcf0e 	bge	r2,zero,262d0 <_dtoa_r+0x5ac>
   26394:	d8801117 	ldw	r2,68(sp)
   26398:	b027883a 	mov	r19,r22
   2639c:	ddc00b17 	ldw	r23,44(sp)
   263a0:	dc000c17 	ldw	r16,48(sp)
   263a4:	15800044 	addi	r22,r2,1
   263a8:	00000106 	br	263b0 <_dtoa_r+0x68c>
   263ac:	e4c3ed26 	beq	fp,r19,27364 <_dtoa_r+0x1640>
   263b0:	98ffffc3 	ldbu	r3,-1(r19)
   263b4:	9811883a 	mov	r8,r19
   263b8:	9cffffc4 	addi	r19,r19,-1
   263bc:	18803fcc 	andi	r2,r3,255
   263c0:	1080201c 	xori	r2,r2,128
   263c4:	10bfe004 	addi	r2,r2,-128
   263c8:	10800e60 	cmpeqi	r2,r2,57
   263cc:	103ff71e 	bne	r2,zero,263ac <_dtoa_r+0x688>
   263d0:	18c00044 	addi	r3,r3,1
   263d4:	98c00005 	stb	r3,0(r19)
   263d8:	b02b883a 	mov	r21,r22
   263dc:	00015a06 	br	26948 <_dtoa_r+0xc24>
   263e0:	00a00034 	movhi	r2,32768
   263e4:	10bfffc4 	addi	r2,r2,-1
   263e8:	90aa703a 	and	r21,r18,r2
   263ec:	a825883a 	mov	r18,r21
   263f0:	00800044 	movi	r2,1
   263f4:	88800015 	stw	r2,0(r17)
   263f8:	00dffc34 	movhi	r3,32752
   263fc:	909ffc2c 	andhi	r2,r18,32752
   26400:	10fe681e 	bne	r2,r3,25da4 <_dtoa_r+0x80>
   26404:	d9002017 	ldw	r4,128(sp)
   26408:	00c9c3c4 	movi	r3,9999
   2640c:	00800434 	movhi	r2,16
   26410:	20c00015 	stw	r3,0(r4)
   26414:	d8c00217 	ldw	r3,8(sp)
   26418:	10bfffc4 	addi	r2,r2,-1
   2641c:	9084703a 	and	r2,r18,r2
   26420:	10c4b03a 	or	r2,r2,r3
   26424:	1000121e 	bne	r2,zero,26470 <_dtoa_r+0x74c>
   26428:	d8802217 	ldw	r2,136(sp)
   2642c:	070000f4 	movhi	fp,3
   26430:	10041e26 	beq	r2,zero,274ac <_dtoa_r+0x1788>
   26434:	008000f4 	movhi	r2,3
   26438:	e7013904 	addi	fp,fp,1252
   2643c:	10813b04 	addi	r2,r2,1260
   26440:	d8c02217 	ldw	r3,136(sp)
   26444:	18800015 	stw	r2,0(r3)
   26448:	003e6706 	br	25de8 <_dtoa_r+0xc4>
   2644c:	01400434 	movhi	r5,16
   26450:	297fffc4 	addi	r5,r5,-1
   26454:	a94a703a 	and	r5,r21,r5
   26458:	dd001317 	ldw	r20,76(sp)
   2645c:	9809883a 	mov	r4,r19
   26460:	294ffc34 	orhi	r5,r5,16368
   26464:	8c7f0044 	addi	r17,r17,-1023
   26468:	d8000915 	stw	zero,36(sp)
   2646c:	003e8a06 	br	25e98 <_dtoa_r+0x174>
   26470:	d8802217 	ldw	r2,136(sp)
   26474:	070000f4 	movhi	fp,3
   26478:	10023c1e 	bne	r2,zero,26d6c <_dtoa_r+0x1048>
   2647c:	e7013c04 	addi	fp,fp,1264
   26480:	003e5906 	br	25de8 <_dtoa_r+0xc4>
   26484:	9809883a 	mov	r4,r19
   26488:	002db940 	call	2db94 <__floatsidf>
   2648c:	880d883a 	mov	r6,r17
   26490:	a00f883a 	mov	r7,r20
   26494:	1009883a 	mov	r4,r2
   26498:	180b883a 	mov	r5,r3
   2649c:	002c91c0 	call	2c91c <__muldf3>
   264a0:	000d883a 	mov	r6,zero
   264a4:	01d00734 	movhi	r7,16412
   264a8:	1009883a 	mov	r4,r2
   264ac:	180b883a 	mov	r5,r3
   264b0:	002b4a40 	call	2b4a4 <__adddf3>
   264b4:	d8800b15 	stw	r2,44(sp)
   264b8:	00bf3034 	movhi	r2,64704
   264bc:	18a7883a 	add	r19,r3,r2
   264c0:	8809883a 	mov	r4,r17
   264c4:	a00b883a 	mov	r5,r20
   264c8:	000d883a 	mov	r6,zero
   264cc:	01d00534 	movhi	r7,16404
   264d0:	002d1240 	call	2d124 <__subdf3>
   264d4:	d9800b17 	ldw	r6,44(sp)
   264d8:	980f883a 	mov	r7,r19
   264dc:	1009883a 	mov	r4,r2
   264e0:	180b883a 	mov	r5,r3
   264e4:	1029883a 	mov	r20,r2
   264e8:	1823883a 	mov	r17,r3
   264ec:	002c7280 	call	2c728 <__gedf2>
   264f0:	0083a716 	blt	zero,r2,27390 <_dtoa_r+0x166c>
   264f4:	d9800b17 	ldw	r6,44(sp)
   264f8:	99e0003c 	xorhi	r7,r19,32768
   264fc:	a009883a 	mov	r4,r20
   26500:	880b883a 	mov	r5,r17
   26504:	002c8240 	call	2c824 <__ledf2>
   26508:	10001d16 	blt	r2,zero,26580 <_dtoa_r+0x85c>
   2650c:	d8801417 	ldw	r2,80(sp)
   26510:	10008816 	blt	r2,zero,26734 <_dtoa_r+0xa10>
   26514:	d8c00617 	ldw	r3,24(sp)
   26518:	18c003d0 	cmplti	r3,r3,15
   2651c:	18008526 	beq	r3,zero,26734 <_dtoa_r+0xa10>
   26520:	02c000f4 	movhi	r11,3
   26524:	5ac17504 	addi	r11,r11,1492
   26528:	d8800617 	ldw	r2,24(sp)
   2652c:	100490fa 	slli	r2,r2,3
   26530:	5885883a 	add	r2,r11,r2
   26534:	10c00017 	ldw	r3,0(r2)
   26538:	10800117 	ldw	r2,4(r2)
   2653c:	d8c00115 	stw	r3,4(sp)
   26540:	d8800315 	stw	r2,12(sp)
   26544:	d8801f17 	ldw	r2,124(sp)
   26548:	1000130e 	bge	r2,zero,26598 <_dtoa_r+0x874>
   2654c:	04801216 	blt	zero,r18,26598 <_dtoa_r+0x874>
   26550:	90000b1e 	bne	r18,zero,26580 <_dtoa_r+0x85c>
   26554:	d9000117 	ldw	r4,4(sp)
   26558:	d9400317 	ldw	r5,12(sp)
   2655c:	000d883a 	mov	r6,zero
   26560:	01d00534 	movhi	r7,16404
   26564:	002c91c0 	call	2c91c <__muldf3>
   26568:	d9000217 	ldw	r4,8(sp)
   2656c:	100d883a 	mov	r6,r2
   26570:	180f883a 	mov	r7,r3
   26574:	a80b883a 	mov	r5,r21
   26578:	002c8240 	call	2c824 <__ledf2>
   2657c:	00838416 	blt	zero,r2,27390 <_dtoa_r+0x166c>
   26580:	e011883a 	mov	r8,fp
   26584:	d8000315 	stw	zero,12(sp)
   26588:	0023883a 	mov	r17,zero
   2658c:	d8801f17 	ldw	r2,124(sp)
   26590:	00a4303a 	nor	r18,zero,r2
   26594:	0001da06 	br	26d00 <_dtoa_r+0xfdc>
   26598:	dcc00117 	ldw	r19,4(sp)
   2659c:	dd000317 	ldw	r20,12(sp)
   265a0:	dd800217 	ldw	r22,8(sp)
   265a4:	980d883a 	mov	r6,r19
   265a8:	a00f883a 	mov	r7,r20
   265ac:	b009883a 	mov	r4,r22
   265b0:	a80b883a 	mov	r5,r21
   265b4:	002bda80 	call	2bda8 <__divdf3>
   265b8:	180b883a 	mov	r5,r3
   265bc:	1009883a 	mov	r4,r2
   265c0:	002db140 	call	2db14 <__fixdfsi>
   265c4:	1009883a 	mov	r4,r2
   265c8:	1023883a 	mov	r17,r2
   265cc:	002db940 	call	2db94 <__floatsidf>
   265d0:	980d883a 	mov	r6,r19
   265d4:	a00f883a 	mov	r7,r20
   265d8:	1009883a 	mov	r4,r2
   265dc:	180b883a 	mov	r5,r3
   265e0:	002c91c0 	call	2c91c <__muldf3>
   265e4:	100d883a 	mov	r6,r2
   265e8:	b009883a 	mov	r4,r22
   265ec:	a80b883a 	mov	r5,r21
   265f0:	180f883a 	mov	r7,r3
   265f4:	002d1240 	call	2d124 <__subdf3>
   265f8:	89000c04 	addi	r4,r17,48
   265fc:	e1000005 	stb	r4,0(fp)
   26600:	91800060 	cmpeqi	r6,r18,1
   26604:	1009883a 	mov	r4,r2
   26608:	180b883a 	mov	r5,r3
   2660c:	e4c00044 	addi	r19,fp,1
   26610:	3002891e 	bne	r6,zero,27038 <_dtoa_r+0x1314>
   26614:	ddc00215 	stw	r23,8(sp)
   26618:	05800044 	movi	r22,1
   2661c:	ddc00117 	ldw	r23,4(sp)
   26620:	dc000415 	stw	r16,16(sp)
   26624:	a023883a 	mov	r17,r20
   26628:	00001c06 	br	2669c <_dtoa_r+0x978>
   2662c:	b80d883a 	mov	r6,r23
   26630:	880f883a 	mov	r7,r17
   26634:	a809883a 	mov	r4,r21
   26638:	a00b883a 	mov	r5,r20
   2663c:	002bda80 	call	2bda8 <__divdf3>
   26640:	180b883a 	mov	r5,r3
   26644:	1009883a 	mov	r4,r2
   26648:	002db140 	call	2db14 <__fixdfsi>
   2664c:	1009883a 	mov	r4,r2
   26650:	1021883a 	mov	r16,r2
   26654:	002db940 	call	2db94 <__floatsidf>
   26658:	b80d883a 	mov	r6,r23
   2665c:	880f883a 	mov	r7,r17
   26660:	1009883a 	mov	r4,r2
   26664:	180b883a 	mov	r5,r3
   26668:	002c91c0 	call	2c91c <__muldf3>
   2666c:	a809883a 	mov	r4,r21
   26670:	a00b883a 	mov	r5,r20
   26674:	100d883a 	mov	r6,r2
   26678:	180f883a 	mov	r7,r3
   2667c:	002d1240 	call	2d124 <__subdf3>
   26680:	81000c04 	addi	r4,r16,48
   26684:	99000005 	stb	r4,0(r19)
   26688:	b5800044 	addi	r22,r22,1
   2668c:	9cc00044 	addi	r19,r19,1
   26690:	1009883a 	mov	r4,r2
   26694:	180b883a 	mov	r5,r3
   26698:	b4826426 	beq	r22,r18,2702c <_dtoa_r+0x1308>
   2669c:	000d883a 	mov	r6,zero
   266a0:	01d00934 	movhi	r7,16420
   266a4:	002c91c0 	call	2c91c <__muldf3>
   266a8:	000d883a 	mov	r6,zero
   266ac:	000f883a 	mov	r7,zero
   266b0:	1009883a 	mov	r4,r2
   266b4:	180b883a 	mov	r5,r3
   266b8:	102b883a 	mov	r21,r2
   266bc:	1829883a 	mov	r20,r3
   266c0:	002c6940 	call	2c694 <__eqdf2>
   266c4:	103fd91e 	bne	r2,zero,2662c <_dtoa_r+0x908>
   266c8:	d8800617 	ldw	r2,24(sp)
   266cc:	ddc00217 	ldw	r23,8(sp)
   266d0:	dc000417 	ldw	r16,16(sp)
   266d4:	15400044 	addi	r21,r2,1
   266d8:	9811883a 	mov	r8,r19
   266dc:	00009a06 	br	26948 <_dtoa_r+0xc24>
   266e0:	0502120e 	bge	zero,r20,26f2c <_dtoa_r+0x1208>
   266e4:	d8000815 	stw	zero,32(sp)
   266e8:	d8000515 	stw	zero,20(sp)
   266ec:	d8800417 	ldw	r2,16(sp)
   266f0:	d8c00117 	ldw	r3,4(sp)
   266f4:	dd800615 	stw	r22,24(sp)
   266f8:	1585883a 	add	r2,r2,r22
   266fc:	d8800415 	stw	r2,16(sp)
   26700:	d8000315 	stw	zero,12(sp)
   26704:	188002a8 	cmpgeui	r2,r3,10
   26708:	103e2f26 	beq	r2,zero,25fc8 <_dtoa_r+0x2a4>
   2670c:	00800044 	movi	r2,1
   26710:	04400044 	movi	r17,1
   26714:	d8000115 	stw	zero,4(sp)
   26718:	d8800715 	stw	r2,28(sp)
   2671c:	04bfffc4 	movi	r18,-1
   26720:	d8001f15 	stw	zero,124(sp)
   26724:	80000f15 	stw	zero,60(r16)
   26728:	dc800a15 	stw	r18,40(sp)
   2672c:	000b883a 	mov	r5,zero
   26730:	003e4606 	br	2604c <_dtoa_r+0x328>
   26734:	d8c00717 	ldw	r3,28(sp)
   26738:	1800b41e 	bne	r3,zero,26a0c <_dtoa_r+0xce8>
   2673c:	dd000317 	ldw	r20,12(sp)
   26740:	dcc00517 	ldw	r19,20(sp)
   26744:	d8000715 	stw	zero,28(sp)
   26748:	0023883a 	mov	r17,zero
   2674c:	98000b26 	beq	r19,zero,2677c <_dtoa_r+0xa58>
   26750:	d8c00417 	ldw	r3,16(sp)
   26754:	00c0090e 	bge	zero,r3,2677c <_dtoa_r+0xa58>
   26758:	9805883a 	mov	r2,r19
   2675c:	1cc1ab16 	blt	r3,r19,26e0c <_dtoa_r+0x10e8>
   26760:	d8c00517 	ldw	r3,20(sp)
   26764:	98a7c83a 	sub	r19,r19,r2
   26768:	1887c83a 	sub	r3,r3,r2
   2676c:	d8c00515 	stw	r3,20(sp)
   26770:	d8c00417 	ldw	r3,16(sp)
   26774:	1885c83a 	sub	r2,r3,r2
   26778:	d8800415 	stw	r2,16(sp)
   2677c:	d8800317 	ldw	r2,12(sp)
   26780:	10000826 	beq	r2,zero,267a4 <_dtoa_r+0xa80>
   26784:	d8800717 	ldw	r2,28(sp)
   26788:	10000126 	beq	r2,zero,26790 <_dtoa_r+0xa6c>
   2678c:	a0025a1e 	bne	r20,zero,270f8 <_dtoa_r+0x13d4>
   26790:	d9800317 	ldw	r6,12(sp)
   26794:	b80b883a 	mov	r5,r23
   26798:	8009883a 	mov	r4,r16
   2679c:	00289500 	call	28950 <__pow5mult>
   267a0:	102f883a 	mov	r23,r2
   267a4:	01400044 	movi	r5,1
   267a8:	8009883a 	mov	r4,r16
   267ac:	00285f80 	call	285f8 <__i2b>
   267b0:	d8800315 	stw	r2,12(sp)
   267b4:	b0015a1e 	bne	r22,zero,26d20 <_dtoa_r+0xffc>
   267b8:	d8800117 	ldw	r2,4(sp)
   267bc:	10800090 	cmplti	r2,r2,2
   267c0:	1001751e 	bne	r2,zero,26d98 <_dtoa_r+0x1074>
   267c4:	00800044 	movi	r2,1
   267c8:	d9400417 	ldw	r5,16(sp)
   267cc:	1145883a 	add	r2,r2,r5
   267d0:	108007cc 	andi	r2,r2,31
   267d4:	10009826 	beq	r2,zero,26a38 <_dtoa_r+0xd14>
   267d8:	00c00804 	movi	r3,32
   267dc:	1887c83a 	sub	r3,r3,r2
   267e0:	19000150 	cmplti	r4,r3,5
   267e4:	20017e1e 	bne	r4,zero,26de0 <_dtoa_r+0x10bc>
   267e8:	00c00704 	movi	r3,28
   267ec:	1885c83a 	sub	r2,r3,r2
   267f0:	d8c00517 	ldw	r3,20(sp)
   267f4:	98a7883a 	add	r19,r19,r2
   267f8:	1887883a 	add	r3,r3,r2
   267fc:	2885883a 	add	r2,r5,r2
   26800:	d8c00515 	stw	r3,20(sp)
   26804:	d8800415 	stw	r2,16(sp)
   26808:	d8800517 	ldw	r2,20(sp)
   2680c:	0080050e 	bge	zero,r2,26824 <_dtoa_r+0xb00>
   26810:	b80b883a 	mov	r5,r23
   26814:	100d883a 	mov	r6,r2
   26818:	8009883a 	mov	r4,r16
   2681c:	0028a900 	call	28a90 <__lshift>
   26820:	102f883a 	mov	r23,r2
   26824:	d8800417 	ldw	r2,16(sp)
   26828:	0080050e 	bge	zero,r2,26840 <_dtoa_r+0xb1c>
   2682c:	d9400317 	ldw	r5,12(sp)
   26830:	100d883a 	mov	r6,r2
   26834:	8009883a 	mov	r4,r16
   26838:	0028a900 	call	28a90 <__lshift>
   2683c:	d8800315 	stw	r2,12(sp)
   26840:	d8800817 	ldw	r2,32(sp)
   26844:	10004c1e 	bne	r2,zero,26978 <_dtoa_r+0xc54>
   26848:	04811a0e 	bge	zero,r18,26cb4 <_dtoa_r+0xf90>
   2684c:	d8800717 	ldw	r2,28(sp)
   26850:	1000a11e 	bne	r2,zero,26ad8 <_dtoa_r+0xdb4>
   26854:	d8800617 	ldw	r2,24(sp)
   26858:	15400044 	addi	r21,r2,1
   2685c:	dd800317 	ldw	r22,12(sp)
   26860:	04c00044 	movi	r19,1
   26864:	00000706 	br	26884 <_dtoa_r+0xb60>
   26868:	b80b883a 	mov	r5,r23
   2686c:	000f883a 	mov	r7,zero
   26870:	01800284 	movi	r6,10
   26874:	8009883a 	mov	r4,r16
   26878:	00282480 	call	28248 <__multadd>
   2687c:	102f883a 	mov	r23,r2
   26880:	9cc00044 	addi	r19,r19,1
   26884:	b00b883a 	mov	r5,r22
   26888:	b809883a 	mov	r4,r23
   2688c:	0025b0c0 	call	25b0c <quorem>
   26890:	15000c04 	addi	r20,r2,48
   26894:	e4c5883a 	add	r2,fp,r19
   26898:	153fffc5 	stb	r20,-1(r2)
   2689c:	9cbff216 	blt	r19,r18,26868 <_dtoa_r+0xb44>
   268a0:	04800116 	blt	zero,r18,268a8 <_dtoa_r+0xb84>
   268a4:	04800044 	movi	r18,1
   268a8:	e4a5883a 	add	r18,fp,r18
   268ac:	d8000215 	stw	zero,8(sp)
   268b0:	b80b883a 	mov	r5,r23
   268b4:	8009883a 	mov	r4,r16
   268b8:	01800044 	movi	r6,1
   268bc:	0028a900 	call	28a90 <__lshift>
   268c0:	d9400317 	ldw	r5,12(sp)
   268c4:	1009883a 	mov	r4,r2
   268c8:	102f883a 	mov	r23,r2
   268cc:	0028c180 	call	28c18 <__mcmp>
   268d0:	00800216 	blt	zero,r2,268dc <_dtoa_r+0xbb8>
   268d4:	00017c06 	br	26ec8 <_dtoa_r+0x11a4>
   268d8:	e4819026 	beq	fp,r18,26f1c <_dtoa_r+0x11f8>
   268dc:	90ffffc3 	ldbu	r3,-1(r18)
   268e0:	9011883a 	mov	r8,r18
   268e4:	94bfffc4 	addi	r18,r18,-1
   268e8:	18803fcc 	andi	r2,r3,255
   268ec:	1080201c 	xori	r2,r2,128
   268f0:	10bfe004 	addi	r2,r2,-128
   268f4:	10800e60 	cmpeqi	r2,r2,57
   268f8:	103ff71e 	bne	r2,zero,268d8 <_dtoa_r+0xbb4>
   268fc:	18c00044 	addi	r3,r3,1
   26900:	90c00005 	stb	r3,0(r18)
   26904:	d9400317 	ldw	r5,12(sp)
   26908:	8009883a 	mov	r4,r16
   2690c:	da000115 	stw	r8,4(sp)
   26910:	00282240 	call	28224 <_Bfree>
   26914:	da000117 	ldw	r8,4(sp)
   26918:	88000b26 	beq	r17,zero,26948 <_dtoa_r+0xc24>
   2691c:	d9400217 	ldw	r5,8(sp)
   26920:	28000426 	beq	r5,zero,26934 <_dtoa_r+0xc10>
   26924:	2c400326 	beq	r5,r17,26934 <_dtoa_r+0xc10>
   26928:	8009883a 	mov	r4,r16
   2692c:	00282240 	call	28224 <_Bfree>
   26930:	da000117 	ldw	r8,4(sp)
   26934:	880b883a 	mov	r5,r17
   26938:	8009883a 	mov	r4,r16
   2693c:	da000115 	stw	r8,4(sp)
   26940:	00282240 	call	28224 <_Bfree>
   26944:	da000117 	ldw	r8,4(sp)
   26948:	b80b883a 	mov	r5,r23
   2694c:	8009883a 	mov	r4,r16
   26950:	da000115 	stw	r8,4(sp)
   26954:	00282240 	call	28224 <_Bfree>
   26958:	da000117 	ldw	r8,4(sp)
   2695c:	d8802017 	ldw	r2,128(sp)
   26960:	40000005 	stb	zero,0(r8)
   26964:	15400015 	stw	r21,0(r2)
   26968:	d8802217 	ldw	r2,136(sp)
   2696c:	103d1e26 	beq	r2,zero,25de8 <_dtoa_r+0xc4>
   26970:	12000015 	stw	r8,0(r2)
   26974:	003d1c06 	br	25de8 <_dtoa_r+0xc4>
   26978:	d9400317 	ldw	r5,12(sp)
   2697c:	b809883a 	mov	r4,r23
   26980:	0028c180 	call	28c18 <__mcmp>
   26984:	103fb00e 	bge	r2,zero,26848 <_dtoa_r+0xb24>
   26988:	b80b883a 	mov	r5,r23
   2698c:	000f883a 	mov	r7,zero
   26990:	01800284 	movi	r6,10
   26994:	8009883a 	mov	r4,r16
   26998:	00282480 	call	28248 <__multadd>
   2699c:	d8c00617 	ldw	r3,24(sp)
   269a0:	102f883a 	mov	r23,r2
   269a4:	d8800717 	ldw	r2,28(sp)
   269a8:	1d7fffc4 	addi	r21,r3,-1
   269ac:	1000411e 	bne	r2,zero,26ab4 <_dtoa_r+0xd90>
   269b0:	dc800a17 	ldw	r18,40(sp)
   269b4:	0482940e 	bge	zero,r18,27408 <_dtoa_r+0x16e4>
   269b8:	dd400617 	ldw	r21,24(sp)
   269bc:	003fa706 	br	2685c <_dtoa_r+0xb38>
   269c0:	00800044 	movi	r2,1
   269c4:	d8800815 	stw	r2,32(sp)
   269c8:	a0bfffc4 	addi	r2,r20,-1
   269cc:	103d720e 	bge	r2,zero,25f98 <_dtoa_r+0x274>
   269d0:	00800044 	movi	r2,1
   269d4:	1505c83a 	sub	r2,r2,r20
   269d8:	d8800515 	stw	r2,20(sp)
   269dc:	d8000415 	stw	zero,16(sp)
   269e0:	003d6e06 	br	25f9c <_dtoa_r+0x278>
   269e4:	b009883a 	mov	r4,r22
   269e8:	002db940 	call	2db94 <__floatsidf>
   269ec:	980d883a 	mov	r6,r19
   269f0:	900f883a 	mov	r7,r18
   269f4:	1009883a 	mov	r4,r2
   269f8:	180b883a 	mov	r5,r3
   269fc:	002c6940 	call	2c694 <__eqdf2>
   26a00:	103d5226 	beq	r2,zero,25f4c <_dtoa_r+0x228>
   26a04:	b5bfffc4 	addi	r22,r22,-1
   26a08:	003d5006 	br	25f4c <_dtoa_r+0x228>
   26a0c:	d8c00117 	ldw	r3,4(sp)
   26a10:	18c00088 	cmpgei	r3,r3,2
   26a14:	18013526 	beq	r3,zero,26eec <_dtoa_r+0x11c8>
   26a18:	d8800317 	ldw	r2,12(sp)
   26a1c:	953fffc4 	addi	r20,r18,-1
   26a20:	1500fc16 	blt	r2,r20,26e14 <_dtoa_r+0x10f0>
   26a24:	1529c83a 	sub	r20,r2,r20
   26a28:	d8800517 	ldw	r2,20(sp)
   26a2c:	9002620e 	bge	r18,zero,273b8 <_dtoa_r+0x1694>
   26a30:	14a7c83a 	sub	r19,r2,r18
   26a34:	00010306 	br	26e44 <_dtoa_r+0x1120>
   26a38:	00800704 	movi	r2,28
   26a3c:	d8c00517 	ldw	r3,20(sp)
   26a40:	98a7883a 	add	r19,r19,r2
   26a44:	1887883a 	add	r3,r3,r2
   26a48:	d8c00515 	stw	r3,20(sp)
   26a4c:	d8c00417 	ldw	r3,16(sp)
   26a50:	1885883a 	add	r2,r3,r2
   26a54:	d8800415 	stw	r2,16(sp)
   26a58:	003f6b06 	br	26808 <_dtoa_r+0xae4>
   26a5c:	d8c00117 	ldw	r3,4(sp)
   26a60:	188000e0 	cmpeqi	r2,r3,3
   26a64:	1001151e 	bne	r2,zero,26ebc <_dtoa_r+0x1198>
   26a68:	18800108 	cmpgei	r2,r3,4
   26a6c:	10000226 	beq	r2,zero,26a78 <_dtoa_r+0xd54>
   26a70:	04400044 	movi	r17,1
   26a74:	003d5d06 	br	25fec <_dtoa_r+0x2c8>
   26a78:	188000a0 	cmpeqi	r2,r3,2
   26a7c:	10028d26 	beq	r2,zero,274b4 <_dtoa_r+0x1790>
   26a80:	04400044 	movi	r17,1
   26a84:	d8000715 	stw	zero,28(sp)
   26a88:	d8801f17 	ldw	r2,124(sp)
   26a8c:	0080be0e 	bge	zero,r2,26d88 <_dtoa_r+0x1064>
   26a90:	d8800a15 	stw	r2,40(sp)
   26a94:	1025883a 	mov	r18,r2
   26a98:	100d883a 	mov	r6,r2
   26a9c:	003d6106 	br	26024 <_dtoa_r+0x300>
   26aa0:	01000804 	movi	r4,32
   26aa4:	2089c83a 	sub	r4,r4,r2
   26aa8:	d8800217 	ldw	r2,8(sp)
   26aac:	1108983a 	sll	r4,r2,r4
   26ab0:	003cf206 	br	25e7c <_dtoa_r+0x158>
   26ab4:	880b883a 	mov	r5,r17
   26ab8:	000f883a 	mov	r7,zero
   26abc:	01800284 	movi	r6,10
   26ac0:	8009883a 	mov	r4,r16
   26ac4:	00282480 	call	28248 <__multadd>
   26ac8:	dc800a17 	ldw	r18,40(sp)
   26acc:	1023883a 	mov	r17,r2
   26ad0:	04825d0e 	bge	zero,r18,27448 <_dtoa_r+0x1724>
   26ad4:	dd400615 	stw	r21,24(sp)
   26ad8:	04c0c616 	blt	zero,r19,26df4 <_dtoa_r+0x10d0>
   26adc:	b0016e1e 	bne	r22,zero,27098 <_dtoa_r+0x1374>
   26ae0:	8827883a 	mov	r19,r17
   26ae4:	e0bfffc4 	addi	r2,fp,-1
   26ae8:	1485883a 	add	r2,r2,r18
   26aec:	d8800515 	stw	r2,20(sp)
   26af0:	d8800217 	ldw	r2,8(sp)
   26af4:	e02d883a 	mov	r22,fp
   26af8:	df000815 	stw	fp,32(sp)
   26afc:	1080004c 	andi	r2,r2,1
   26b00:	d8800715 	stw	r2,28(sp)
   26b04:	dc800317 	ldw	r18,12(sp)
   26b08:	b809883a 	mov	r4,r23
   26b0c:	900b883a 	mov	r5,r18
   26b10:	0025b0c0 	call	25b0c <quorem>
   26b14:	880b883a 	mov	r5,r17
   26b18:	b809883a 	mov	r4,r23
   26b1c:	102b883a 	mov	r21,r2
   26b20:	0028c180 	call	28c18 <__mcmp>
   26b24:	900b883a 	mov	r5,r18
   26b28:	980d883a 	mov	r6,r19
   26b2c:	8009883a 	mov	r4,r16
   26b30:	1025883a 	mov	r18,r2
   26b34:	0028c700 	call	28c70 <__mdiff>
   26b38:	100b883a 	mov	r5,r2
   26b3c:	10800317 	ldw	r2,12(r2)
   26b40:	af000c04 	addi	fp,r21,48
   26b44:	1000261e 	bne	r2,zero,26be0 <_dtoa_r+0xebc>
   26b48:	b809883a 	mov	r4,r23
   26b4c:	d9400415 	stw	r5,16(sp)
   26b50:	0028c180 	call	28c18 <__mcmp>
   26b54:	d9400417 	ldw	r5,16(sp)
   26b58:	1029883a 	mov	r20,r2
   26b5c:	8009883a 	mov	r4,r16
   26b60:	00282240 	call	28224 <_Bfree>
   26b64:	a000401e 	bne	r20,zero,26c68 <_dtoa_r+0xf44>
   26b68:	d8800117 	ldw	r2,4(sp)
   26b6c:	1000021e 	bne	r2,zero,26b78 <_dtoa_r+0xe54>
   26b70:	d8800717 	ldw	r2,28(sp)
   26b74:	1000cb26 	beq	r2,zero,26ea4 <_dtoa_r+0x1180>
   26b78:	90020816 	blt	r18,zero,2739c <_dtoa_r+0x1678>
   26b7c:	d8800517 	ldw	r2,20(sp)
   26b80:	b7000005 	stb	fp,0(r22)
   26b84:	b4800044 	addi	r18,r22,1
   26b88:	15815426 	beq	r2,r22,270dc <_dtoa_r+0x13b8>
   26b8c:	b80b883a 	mov	r5,r23
   26b90:	000f883a 	mov	r7,zero
   26b94:	01800284 	movi	r6,10
   26b98:	8009883a 	mov	r4,r16
   26b9c:	00282480 	call	28248 <__multadd>
   26ba0:	102f883a 	mov	r23,r2
   26ba4:	880b883a 	mov	r5,r17
   26ba8:	000f883a 	mov	r7,zero
   26bac:	01800284 	movi	r6,10
   26bb0:	8009883a 	mov	r4,r16
   26bb4:	8cc02826 	beq	r17,r19,26c58 <_dtoa_r+0xf34>
   26bb8:	00282480 	call	28248 <__multadd>
   26bbc:	980b883a 	mov	r5,r19
   26bc0:	000f883a 	mov	r7,zero
   26bc4:	01800284 	movi	r6,10
   26bc8:	8009883a 	mov	r4,r16
   26bcc:	1023883a 	mov	r17,r2
   26bd0:	00282480 	call	28248 <__multadd>
   26bd4:	1027883a 	mov	r19,r2
   26bd8:	902d883a 	mov	r22,r18
   26bdc:	003fc906 	br	26b04 <_dtoa_r+0xde0>
   26be0:	8009883a 	mov	r4,r16
   26be4:	e029883a 	mov	r20,fp
   26be8:	df000817 	ldw	fp,32(sp)
   26bec:	00282240 	call	28224 <_Bfree>
   26bf0:	90000616 	blt	r18,zero,26c0c <_dtoa_r+0xee8>
   26bf4:	d8800217 	ldw	r2,8(sp)
   26bf8:	d8c00117 	ldw	r3,4(sp)
   26bfc:	1080004c 	andi	r2,r2,1
   26c00:	1ca4b03a 	or	r18,r3,r18
   26c04:	1484b03a 	or	r2,r2,r18
   26c08:	1000201e 	bne	r2,zero,26c8c <_dtoa_r+0xf68>
   26c0c:	b80b883a 	mov	r5,r23
   26c10:	8009883a 	mov	r4,r16
   26c14:	01800044 	movi	r6,1
   26c18:	0028a900 	call	28a90 <__lshift>
   26c1c:	d9400317 	ldw	r5,12(sp)
   26c20:	1009883a 	mov	r4,r2
   26c24:	102f883a 	mov	r23,r2
   26c28:	0028c180 	call	28c18 <__mcmp>
   26c2c:	0080990e 	bge	zero,r2,26e94 <_dtoa_r+0x1170>
   26c30:	a0c00e60 	cmpeqi	r3,r20,57
   26c34:	1801ce1e 	bne	r3,zero,27370 <_dtoa_r+0x164c>
   26c38:	ad000c44 	addi	r20,r21,49
   26c3c:	d8800617 	ldw	r2,24(sp)
   26c40:	dc400215 	stw	r17,8(sp)
   26c44:	b2000044 	addi	r8,r22,1
   26c48:	b5000005 	stb	r20,0(r22)
   26c4c:	15400044 	addi	r21,r2,1
   26c50:	9823883a 	mov	r17,r19
   26c54:	003f2b06 	br	26904 <_dtoa_r+0xbe0>
   26c58:	00282480 	call	28248 <__multadd>
   26c5c:	1023883a 	mov	r17,r2
   26c60:	1027883a 	mov	r19,r2
   26c64:	003fdc06 	br	26bd8 <_dtoa_r+0xeb4>
   26c68:	90022316 	blt	r18,zero,274f8 <_dtoa_r+0x17d4>
   26c6c:	d8800117 	ldw	r2,4(sp)
   26c70:	14a4b03a 	or	r18,r2,r18
   26c74:	d8800717 	ldw	r2,28(sp)
   26c78:	14a4b03a 	or	r18,r2,r18
   26c7c:	90021e26 	beq	r18,zero,274f8 <_dtoa_r+0x17d4>
   26c80:	053fbe0e 	bge	zero,r20,26b7c <_dtoa_r+0xe58>
   26c84:	e029883a 	mov	r20,fp
   26c88:	df000817 	ldw	fp,32(sp)
   26c8c:	a0800e60 	cmpeqi	r2,r20,57
   26c90:	1001b71e 	bne	r2,zero,27370 <_dtoa_r+0x164c>
   26c94:	d8800617 	ldw	r2,24(sp)
   26c98:	a0c00044 	addi	r3,r20,1
   26c9c:	dc400215 	stw	r17,8(sp)
   26ca0:	b2000044 	addi	r8,r22,1
   26ca4:	15400044 	addi	r21,r2,1
   26ca8:	b0c00005 	stb	r3,0(r22)
   26cac:	9823883a 	mov	r17,r19
   26cb0:	003f1406 	br	26904 <_dtoa_r+0xbe0>
   26cb4:	d8800117 	ldw	r2,4(sp)
   26cb8:	108000d0 	cmplti	r2,r2,3
   26cbc:	103ee31e 	bne	r2,zero,2684c <_dtoa_r+0xb28>
   26cc0:	9000d81e 	bne	r18,zero,27024 <_dtoa_r+0x1300>
   26cc4:	d9400317 	ldw	r5,12(sp)
   26cc8:	8009883a 	mov	r4,r16
   26ccc:	000f883a 	mov	r7,zero
   26cd0:	01800144 	movi	r6,5
   26cd4:	00282480 	call	28248 <__multadd>
   26cd8:	100b883a 	mov	r5,r2
   26cdc:	b809883a 	mov	r4,r23
   26ce0:	d8800315 	stw	r2,12(sp)
   26ce4:	0028c180 	call	28c18 <__mcmp>
   26ce8:	0080ce0e 	bge	zero,r2,27024 <_dtoa_r+0x1300>
   26cec:	00800c44 	movi	r2,49
   26cf0:	e0800005 	stb	r2,0(fp)
   26cf4:	d8800617 	ldw	r2,24(sp)
   26cf8:	e2000044 	addi	r8,fp,1
   26cfc:	14800044 	addi	r18,r2,1
   26d00:	d9400317 	ldw	r5,12(sp)
   26d04:	8009883a 	mov	r4,r16
   26d08:	da000115 	stw	r8,4(sp)
   26d0c:	00282240 	call	28224 <_Bfree>
   26d10:	da000117 	ldw	r8,4(sp)
   26d14:	95400044 	addi	r21,r18,1
   26d18:	883f061e 	bne	r17,zero,26934 <_dtoa_r+0xc10>
   26d1c:	003f0a06 	br	26948 <_dtoa_r+0xc24>
   26d20:	100b883a 	mov	r5,r2
   26d24:	b00d883a 	mov	r6,r22
   26d28:	8009883a 	mov	r4,r16
   26d2c:	00289500 	call	28950 <__pow5mult>
   26d30:	d8c00117 	ldw	r3,4(sp)
   26d34:	d8800315 	stw	r2,12(sp)
   26d38:	18c00090 	cmplti	r3,r3,2
   26d3c:	1800461e 	bne	r3,zero,26e58 <_dtoa_r+0x1134>
   26d40:	002d883a 	mov	r22,zero
   26d44:	d8c00317 	ldw	r3,12(sp)
   26d48:	18800417 	ldw	r2,16(r3)
   26d4c:	10800104 	addi	r2,r2,4
   26d50:	100490ba 	slli	r2,r2,2
   26d54:	1885883a 	add	r2,r3,r2
   26d58:	11000017 	ldw	r4,0(r2)
   26d5c:	00284d40 	call	284d4 <__hi0bits>
   26d60:	00c00804 	movi	r3,32
   26d64:	1885c83a 	sub	r2,r3,r2
   26d68:	003e9706 	br	267c8 <_dtoa_r+0xaa4>
   26d6c:	008000f4 	movhi	r2,3
   26d70:	e7013c04 	addi	fp,fp,1264
   26d74:	10813cc4 	addi	r2,r2,1267
   26d78:	003db106 	br	26440 <_dtoa_r+0x71c>
   26d7c:	00800044 	movi	r2,1
   26d80:	d8800715 	stw	r2,28(sp)
   26d84:	003f4006 	br	26a88 <_dtoa_r+0xd64>
   26d88:	00800044 	movi	r2,1
   26d8c:	04800044 	movi	r18,1
   26d90:	d8801f15 	stw	r2,124(sp)
   26d94:	003e6306 	br	26724 <_dtoa_r+0xa00>
   26d98:	d8800217 	ldw	r2,8(sp)
   26d9c:	103e891e 	bne	r2,zero,267c4 <_dtoa_r+0xaa0>
   26da0:	00800434 	movhi	r2,16
   26da4:	10bfffc4 	addi	r2,r2,-1
   26da8:	a884703a 	and	r2,r21,r2
   26dac:	103e851e 	bne	r2,zero,267c4 <_dtoa_r+0xaa0>
   26db0:	a89ffc2c 	andhi	r2,r21,32752
   26db4:	10017c26 	beq	r2,zero,273a8 <_dtoa_r+0x1684>
   26db8:	d8800517 	ldw	r2,20(sp)
   26dbc:	10800044 	addi	r2,r2,1
   26dc0:	d8800515 	stw	r2,20(sp)
   26dc4:	d8800417 	ldw	r2,16(sp)
   26dc8:	10800044 	addi	r2,r2,1
   26dcc:	d8800415 	stw	r2,16(sp)
   26dd0:	00800044 	movi	r2,1
   26dd4:	b001761e 	bne	r22,zero,273b0 <_dtoa_r+0x168c>
   26dd8:	102d883a 	mov	r22,r2
   26ddc:	003e7906 	br	267c4 <_dtoa_r+0xaa0>
   26de0:	18c00120 	cmpeqi	r3,r3,4
   26de4:	183e881e 	bne	r3,zero,26808 <_dtoa_r+0xae4>
   26de8:	00c00f04 	movi	r3,60
   26dec:	1885c83a 	sub	r2,r3,r2
   26df0:	003f1206 	br	26a3c <_dtoa_r+0xd18>
   26df4:	880b883a 	mov	r5,r17
   26df8:	980d883a 	mov	r6,r19
   26dfc:	8009883a 	mov	r4,r16
   26e00:	0028a900 	call	28a90 <__lshift>
   26e04:	1023883a 	mov	r17,r2
   26e08:	003f3406 	br	26adc <_dtoa_r+0xdb8>
   26e0c:	1805883a 	mov	r2,r3
   26e10:	003e5306 	br	26760 <_dtoa_r+0xa3c>
   26e14:	d8800317 	ldw	r2,12(sp)
   26e18:	d8c00517 	ldw	r3,20(sp)
   26e1c:	dd000315 	stw	r20,12(sp)
   26e20:	a085c83a 	sub	r2,r20,r2
   26e24:	b0ad883a 	add	r22,r22,r2
   26e28:	d8800417 	ldw	r2,16(sp)
   26e2c:	1827883a 	mov	r19,r3
   26e30:	0029883a 	mov	r20,zero
   26e34:	1485883a 	add	r2,r2,r18
   26e38:	d8800415 	stw	r2,16(sp)
   26e3c:	1c85883a 	add	r2,r3,r18
   26e40:	d8800515 	stw	r2,20(sp)
   26e44:	01400044 	movi	r5,1
   26e48:	8009883a 	mov	r4,r16
   26e4c:	00285f80 	call	285f8 <__i2b>
   26e50:	1023883a 	mov	r17,r2
   26e54:	003e3d06 	br	2674c <_dtoa_r+0xa28>
   26e58:	d8800217 	ldw	r2,8(sp)
   26e5c:	103fb81e 	bne	r2,zero,26d40 <_dtoa_r+0x101c>
   26e60:	00800434 	movhi	r2,16
   26e64:	10bfffc4 	addi	r2,r2,-1
   26e68:	a884703a 	and	r2,r21,r2
   26e6c:	103fb41e 	bne	r2,zero,26d40 <_dtoa_r+0x101c>
   26e70:	003fcf06 	br	26db0 <_dtoa_r+0x108c>
   26e74:	d9000217 	ldw	r4,8(sp)
   26e78:	a80b883a 	mov	r5,r21
   26e7c:	04c00084 	movi	r19,2
   26e80:	003c9506 	br	260d8 <_dtoa_r+0x3b4>
   26e84:	00800084 	movi	r2,2
   26e88:	d8800115 	stw	r2,4(sp)
   26e8c:	d8000715 	stw	zero,28(sp)
   26e90:	003efd06 	br	26a88 <_dtoa_r+0xd64>
   26e94:	103f691e 	bne	r2,zero,26c3c <_dtoa_r+0xf18>
   26e98:	a080004c 	andi	r2,r20,1
   26e9c:	103f641e 	bne	r2,zero,26c30 <_dtoa_r+0xf0c>
   26ea0:	003f6606 	br	26c3c <_dtoa_r+0xf18>
   26ea4:	e029883a 	mov	r20,fp
   26ea8:	a0800e60 	cmpeqi	r2,r20,57
   26eac:	df000817 	ldw	fp,32(sp)
   26eb0:	10012f1e 	bne	r2,zero,27370 <_dtoa_r+0x164c>
   26eb4:	04bf6016 	blt	zero,r18,26c38 <_dtoa_r+0xf14>
   26eb8:	003f6006 	br	26c3c <_dtoa_r+0xf18>
   26ebc:	04400044 	movi	r17,1
   26ec0:	d8000715 	stw	zero,28(sp)
   26ec4:	003c5006 	br	26008 <_dtoa_r+0x2e4>
   26ec8:	1000021e 	bne	r2,zero,26ed4 <_dtoa_r+0x11b0>
   26ecc:	a0c0004c 	andi	r3,r20,1
   26ed0:	183e821e 	bne	r3,zero,268dc <_dtoa_r+0xbb8>
   26ed4:	90bfffc7 	ldb	r2,-1(r18)
   26ed8:	9011883a 	mov	r8,r18
   26edc:	94bfffc4 	addi	r18,r18,-1
   26ee0:	10800c20 	cmpeqi	r2,r2,48
   26ee4:	103ffb1e 	bne	r2,zero,26ed4 <_dtoa_r+0x11b0>
   26ee8:	003e8606 	br	26904 <_dtoa_r+0xbe0>
   26eec:	d8c00917 	ldw	r3,36(sp)
   26ef0:	18009526 	beq	r3,zero,27148 <_dtoa_r+0x1424>
   26ef4:	d8c00517 	ldw	r3,20(sp)
   26ef8:	d9000417 	ldw	r4,16(sp)
   26efc:	10810cc4 	addi	r2,r2,1075
   26f00:	dd000317 	ldw	r20,12(sp)
   26f04:	2089883a 	add	r4,r4,r2
   26f08:	1885883a 	add	r2,r3,r2
   26f0c:	1827883a 	mov	r19,r3
   26f10:	d9000415 	stw	r4,16(sp)
   26f14:	d8800515 	stw	r2,20(sp)
   26f18:	003fca06 	br	26e44 <_dtoa_r+0x1120>
   26f1c:	00800c44 	movi	r2,49
   26f20:	e0800005 	stb	r2,0(fp)
   26f24:	ad400044 	addi	r21,r21,1
   26f28:	003e7606 	br	26904 <_dtoa_r+0xbe0>
   26f2c:	00800044 	movi	r2,1
   26f30:	1505c83a 	sub	r2,r2,r20
   26f34:	d8800515 	stw	r2,20(sp)
   26f38:	d8000415 	stw	zero,16(sp)
   26f3c:	d8000815 	stw	zero,32(sp)
   26f40:	003dea06 	br	266ec <_dtoa_r+0x9c8>
   26f44:	d8800617 	ldw	r2,24(sp)
   26f48:	1000e326 	beq	r2,zero,272d8 <_dtoa_r+0x15b4>
   26f4c:	0091c83a 	sub	r8,zero,r2
   26f50:	408003cc 	andi	r2,r8,15
   26f54:	100490fa 	slli	r2,r2,3
   26f58:	02c000f4 	movhi	r11,3
   26f5c:	5ac17504 	addi	r11,r11,1492
   26f60:	5885883a 	add	r2,r11,r2
   26f64:	4011d13a 	srai	r8,r8,4
   26f68:	11800017 	ldw	r6,0(r2)
   26f6c:	11c00117 	ldw	r7,4(r2)
   26f70:	d9000217 	ldw	r4,8(sp)
   26f74:	a80b883a 	mov	r5,r21
   26f78:	da000b15 	stw	r8,44(sp)
   26f7c:	002c91c0 	call	2c91c <__muldf3>
   26f80:	da000b17 	ldw	r8,44(sp)
   26f84:	40013726 	beq	r8,zero,27464 <_dtoa_r+0x1740>
   26f88:	024000f4 	movhi	r9,3
   26f8c:	000b883a 	mov	r5,zero
   26f90:	04c00084 	movi	r19,2
   26f94:	4a416b04 	addi	r9,r9,1452
   26f98:	dc800b15 	stw	r18,44(sp)
   26f9c:	1009883a 	mov	r4,r2
   26fa0:	9825883a 	mov	r18,r19
   26fa4:	d8800c15 	stw	r2,48(sp)
   26fa8:	8027883a 	mov	r19,r16
   26fac:	2805883a 	mov	r2,r5
   26fb0:	1829883a 	mov	r20,r3
   26fb4:	4021883a 	mov	r16,r8
   26fb8:	4823883a 	mov	r17,r9
   26fbc:	180b883a 	mov	r5,r3
   26fc0:	8180004c 	andi	r6,r16,1
   26fc4:	30000726 	beq	r6,zero,26fe4 <_dtoa_r+0x12c0>
   26fc8:	89800017 	ldw	r6,0(r17)
   26fcc:	89c00117 	ldw	r7,4(r17)
   26fd0:	94800044 	addi	r18,r18,1
   26fd4:	002c91c0 	call	2c91c <__muldf3>
   26fd8:	1009883a 	mov	r4,r2
   26fdc:	180b883a 	mov	r5,r3
   26fe0:	00800044 	movi	r2,1
   26fe4:	8021d07a 	srai	r16,r16,1
   26fe8:	8c400204 	addi	r17,r17,8
   26fec:	803ff41e 	bne	r16,zero,26fc0 <_dtoa_r+0x129c>
   26ff0:	a007883a 	mov	r3,r20
   26ff4:	2829883a 	mov	r20,r5
   26ff8:	100b883a 	mov	r5,r2
   26ffc:	29403fcc 	andi	r5,r5,255
   27000:	9821883a 	mov	r16,r19
   27004:	d8800c17 	ldw	r2,48(sp)
   27008:	9027883a 	mov	r19,r18
   2700c:	2023883a 	mov	r17,r4
   27010:	dc800b17 	ldw	r18,44(sp)
   27014:	283c521e 	bne	r5,zero,26160 <_dtoa_r+0x43c>
   27018:	1023883a 	mov	r17,r2
   2701c:	1829883a 	mov	r20,r3
   27020:	003c4f06 	br	26160 <_dtoa_r+0x43c>
   27024:	e011883a 	mov	r8,fp
   27028:	003d5806 	br	2658c <_dtoa_r+0x868>
   2702c:	8023883a 	mov	r17,r16
   27030:	ddc00217 	ldw	r23,8(sp)
   27034:	dc000417 	ldw	r16,16(sp)
   27038:	200d883a 	mov	r6,r4
   2703c:	280f883a 	mov	r7,r5
   27040:	002b4a40 	call	2b4a4 <__adddf3>
   27044:	1009883a 	mov	r4,r2
   27048:	d9800117 	ldw	r6,4(sp)
   2704c:	d9c00317 	ldw	r7,12(sp)
   27050:	1029883a 	mov	r20,r2
   27054:	d8800617 	ldw	r2,24(sp)
   27058:	180b883a 	mov	r5,r3
   2705c:	1825883a 	mov	r18,r3
   27060:	15400044 	addi	r21,r2,1
   27064:	002c7280 	call	2c728 <__gedf2>
   27068:	a82d883a 	mov	r22,r21
   2706c:	00bcd016 	blt	zero,r2,263b0 <_dtoa_r+0x68c>
   27070:	d9800117 	ldw	r6,4(sp)
   27074:	d9c00317 	ldw	r7,12(sp)
   27078:	a009883a 	mov	r4,r20
   2707c:	900b883a 	mov	r5,r18
   27080:	002c6940 	call	2c694 <__eqdf2>
   27084:	1000021e 	bne	r2,zero,27090 <_dtoa_r+0x136c>
   27088:	8880004c 	andi	r2,r17,1
   2708c:	103cc81e 	bne	r2,zero,263b0 <_dtoa_r+0x68c>
   27090:	9811883a 	mov	r8,r19
   27094:	003e2c06 	br	26948 <_dtoa_r+0xc24>
   27098:	89400117 	ldw	r5,4(r17)
   2709c:	8009883a 	mov	r4,r16
   270a0:	00281800 	call	28180 <_Balloc>
   270a4:	1027883a 	mov	r19,r2
   270a8:	1000f226 	beq	r2,zero,27474 <_dtoa_r+0x1750>
   270ac:	89800417 	ldw	r6,16(r17)
   270b0:	89400304 	addi	r5,r17,12
   270b4:	11000304 	addi	r4,r2,12
   270b8:	31800084 	addi	r6,r6,2
   270bc:	300c90ba 	slli	r6,r6,2
   270c0:	002539c0 	call	2539c <memcpy>
   270c4:	980b883a 	mov	r5,r19
   270c8:	01800044 	movi	r6,1
   270cc:	8009883a 	mov	r4,r16
   270d0:	0028a900 	call	28a90 <__lshift>
   270d4:	1027883a 	mov	r19,r2
   270d8:	003e8206 	br	26ae4 <_dtoa_r+0xdc0>
   270dc:	d8800617 	ldw	r2,24(sp)
   270e0:	e029883a 	mov	r20,fp
   270e4:	dc400215 	stw	r17,8(sp)
   270e8:	df000817 	ldw	fp,32(sp)
   270ec:	15400044 	addi	r21,r2,1
   270f0:	9823883a 	mov	r17,r19
   270f4:	003dee06 	br	268b0 <_dtoa_r+0xb8c>
   270f8:	880b883a 	mov	r5,r17
   270fc:	a00d883a 	mov	r6,r20
   27100:	8009883a 	mov	r4,r16
   27104:	00289500 	call	28950 <__pow5mult>
   27108:	b80d883a 	mov	r6,r23
   2710c:	100b883a 	mov	r5,r2
   27110:	8009883a 	mov	r4,r16
   27114:	1023883a 	mov	r17,r2
   27118:	00286a80 	call	286a8 <__multiply>
   2711c:	d8800915 	stw	r2,36(sp)
   27120:	d8800317 	ldw	r2,12(sp)
   27124:	b80b883a 	mov	r5,r23
   27128:	8009883a 	mov	r4,r16
   2712c:	1529c83a 	sub	r20,r2,r20
   27130:	dd000315 	stw	r20,12(sp)
   27134:	00282240 	call	28224 <_Bfree>
   27138:	d8800917 	ldw	r2,36(sp)
   2713c:	102f883a 	mov	r23,r2
   27140:	a03d9826 	beq	r20,zero,267a4 <_dtoa_r+0xa80>
   27144:	003d9206 	br	26790 <_dtoa_r+0xa6c>
   27148:	d8c01317 	ldw	r3,76(sp)
   2714c:	00800d84 	movi	r2,54
   27150:	d9000517 	ldw	r4,20(sp)
   27154:	10c5c83a 	sub	r2,r2,r3
   27158:	d8c00417 	ldw	r3,16(sp)
   2715c:	dd000317 	ldw	r20,12(sp)
   27160:	2027883a 	mov	r19,r4
   27164:	1887883a 	add	r3,r3,r2
   27168:	2085883a 	add	r2,r4,r2
   2716c:	d8c00415 	stw	r3,16(sp)
   27170:	d8800515 	stw	r2,20(sp)
   27174:	003f3306 	br	26e44 <_dtoa_r+0x1120>
   27178:	d9000b17 	ldw	r4,44(sp)
   2717c:	d9800f17 	ldw	r6,60(sp)
   27180:	d9c01017 	ldw	r7,64(sp)
   27184:	980b883a 	mov	r5,r19
   27188:	dac01215 	stw	r11,72(sp)
   2718c:	da000d15 	stw	r8,52(sp)
   27190:	002c91c0 	call	2c91c <__muldf3>
   27194:	d9000e17 	ldw	r4,56(sp)
   27198:	d9400c17 	ldw	r5,48(sp)
   2719c:	d8800715 	stw	r2,28(sp)
   271a0:	e1000005 	stb	r4,0(fp)
   271a4:	d8c00915 	stw	r3,36(sp)
   271a8:	29000058 	cmpnei	r4,r5,1
   271ac:	da000d17 	ldw	r8,52(sp)
   271b0:	dac01217 	ldw	r11,72(sp)
   271b4:	e167883a 	add	r19,fp,r5
   271b8:	2000a126 	beq	r4,zero,27440 <_dtoa_r+0x171c>
   271bc:	dc000c15 	stw	r16,48(sp)
   271c0:	dc800b15 	stw	r18,44(sp)
   271c4:	4021883a 	mov	r16,r8
   271c8:	a009883a 	mov	r4,r20
   271cc:	880b883a 	mov	r5,r17
   271d0:	dac00d15 	stw	r11,52(sp)
   271d4:	000d883a 	mov	r6,zero
   271d8:	01d00934 	movhi	r7,16420
   271dc:	002c91c0 	call	2c91c <__muldf3>
   271e0:	180b883a 	mov	r5,r3
   271e4:	1009883a 	mov	r4,r2
   271e8:	1825883a 	mov	r18,r3
   271ec:	1029883a 	mov	r20,r2
   271f0:	002db140 	call	2db14 <__fixdfsi>
   271f4:	1009883a 	mov	r4,r2
   271f8:	1023883a 	mov	r17,r2
   271fc:	002db940 	call	2db94 <__floatsidf>
   27200:	a009883a 	mov	r4,r20
   27204:	900b883a 	mov	r5,r18
   27208:	100d883a 	mov	r6,r2
   2720c:	180f883a 	mov	r7,r3
   27210:	84000044 	addi	r16,r16,1
   27214:	8c400c04 	addi	r17,r17,48
   27218:	002d1240 	call	2d124 <__subdf3>
   2721c:	847fffc5 	stb	r17,-1(r16)
   27220:	1009883a 	mov	r4,r2
   27224:	180b883a 	mov	r5,r3
   27228:	9c3fea1e 	bne	r19,r16,271d4 <_dtoa_r+0x14b0>
   2722c:	dc800b17 	ldw	r18,44(sp)
   27230:	dc000c17 	ldw	r16,48(sp)
   27234:	dac00d17 	ldw	r11,52(sp)
   27238:	1029883a 	mov	r20,r2
   2723c:	1823883a 	mov	r17,r3
   27240:	d9000717 	ldw	r4,28(sp)
   27244:	d9400917 	ldw	r5,36(sp)
   27248:	000d883a 	mov	r6,zero
   2724c:	01cff834 	movhi	r7,16352
   27250:	dac00b15 	stw	r11,44(sp)
   27254:	002b4a40 	call	2b4a4 <__adddf3>
   27258:	100d883a 	mov	r6,r2
   2725c:	180f883a 	mov	r7,r3
   27260:	a009883a 	mov	r4,r20
   27264:	880b883a 	mov	r5,r17
   27268:	002c7280 	call	2c728 <__gedf2>
   2726c:	00805916 	blt	zero,r2,273d4 <_dtoa_r+0x16b0>
   27270:	d9800717 	ldw	r6,28(sp)
   27274:	d9c00917 	ldw	r7,36(sp)
   27278:	0009883a 	mov	r4,zero
   2727c:	014ff834 	movhi	r5,16352
   27280:	002d1240 	call	2d124 <__subdf3>
   27284:	100d883a 	mov	r6,r2
   27288:	180f883a 	mov	r7,r3
   2728c:	a009883a 	mov	r4,r20
   27290:	880b883a 	mov	r5,r17
   27294:	002c8240 	call	2c824 <__ledf2>
   27298:	dac00b17 	ldw	r11,44(sp)
   2729c:	10000616 	blt	r2,zero,272b8 <_dtoa_r+0x1594>
   272a0:	d8801417 	ldw	r2,80(sp)
   272a4:	103d2516 	blt	r2,zero,2673c <_dtoa_r+0xa18>
   272a8:	d8800617 	ldw	r2,24(sp)
   272ac:	108003c8 	cmpgei	r2,r2,15
   272b0:	103d221e 	bne	r2,zero,2673c <_dtoa_r+0xa18>
   272b4:	003c9c06 	br	26528 <_dtoa_r+0x804>
   272b8:	98bfffc7 	ldb	r2,-1(r19)
   272bc:	9811883a 	mov	r8,r19
   272c0:	9cffffc4 	addi	r19,r19,-1
   272c4:	10800c20 	cmpeqi	r2,r2,48
   272c8:	103ffb1e 	bne	r2,zero,272b8 <_dtoa_r+0x1594>
   272cc:	d8801117 	ldw	r2,68(sp)
   272d0:	15400044 	addi	r21,r2,1
   272d4:	003d9c06 	br	26948 <_dtoa_r+0xc24>
   272d8:	dc400217 	ldw	r17,8(sp)
   272dc:	a829883a 	mov	r20,r21
   272e0:	04c00084 	movi	r19,2
   272e4:	003b9e06 	br	26160 <_dtoa_r+0x43c>
   272e8:	903c6626 	beq	r18,zero,26484 <_dtoa_r+0x760>
   272ec:	d8800a17 	ldw	r2,40(sp)
   272f0:	00bc860e 	bge	zero,r2,2650c <_dtoa_r+0x7e8>
   272f4:	a00b883a 	mov	r5,r20
   272f8:	8809883a 	mov	r4,r17
   272fc:	000d883a 	mov	r6,zero
   27300:	01d00934 	movhi	r7,16420
   27304:	002c91c0 	call	2c91c <__muldf3>
   27308:	99000044 	addi	r4,r19,1
   2730c:	1023883a 	mov	r17,r2
   27310:	1829883a 	mov	r20,r3
   27314:	002db940 	call	2db94 <__floatsidf>
   27318:	880d883a 	mov	r6,r17
   2731c:	a00f883a 	mov	r7,r20
   27320:	1009883a 	mov	r4,r2
   27324:	180b883a 	mov	r5,r3
   27328:	002c91c0 	call	2c91c <__muldf3>
   2732c:	1009883a 	mov	r4,r2
   27330:	000d883a 	mov	r6,zero
   27334:	01d00734 	movhi	r7,16412
   27338:	180b883a 	mov	r5,r3
   2733c:	002b4a40 	call	2b4a4 <__adddf3>
   27340:	d9000617 	ldw	r4,24(sp)
   27344:	d8800b15 	stw	r2,44(sp)
   27348:	00bf3034 	movhi	r2,64704
   2734c:	18a7883a 	add	r19,r3,r2
   27350:	d8800a17 	ldw	r2,40(sp)
   27354:	213fffc4 	addi	r4,r4,-1
   27358:	d9001115 	stw	r4,68(sp)
   2735c:	d8800c15 	stw	r2,48(sp)
   27360:	003b9a06 	br	261cc <_dtoa_r+0x4a8>
   27364:	00c00c44 	movi	r3,49
   27368:	b5800044 	addi	r22,r22,1
   2736c:	003c1906 	br	263d4 <_dtoa_r+0x6b0>
   27370:	00800e44 	movi	r2,57
   27374:	b0800005 	stb	r2,0(r22)
   27378:	d8800617 	ldw	r2,24(sp)
   2737c:	dc400215 	stw	r17,8(sp)
   27380:	b4800044 	addi	r18,r22,1
   27384:	15400044 	addi	r21,r2,1
   27388:	9823883a 	mov	r17,r19
   2738c:	003d5306 	br	268dc <_dtoa_r+0xbb8>
   27390:	d8000315 	stw	zero,12(sp)
   27394:	0023883a 	mov	r17,zero
   27398:	003e5406 	br	26cec <_dtoa_r+0xfc8>
   2739c:	e029883a 	mov	r20,fp
   273a0:	df000817 	ldw	fp,32(sp)
   273a4:	003e2506 	br	26c3c <_dtoa_r+0xf18>
   273a8:	0005883a 	mov	r2,zero
   273ac:	003e8906 	br	26dd4 <_dtoa_r+0x10b0>
   273b0:	102d883a 	mov	r22,r2
   273b4:	003e6306 	br	26d44 <_dtoa_r+0x1020>
   273b8:	d8c00417 	ldw	r3,16(sp)
   273bc:	1027883a 	mov	r19,r2
   273c0:	1485883a 	add	r2,r2,r18
   273c4:	1c87883a 	add	r3,r3,r18
   273c8:	d8c00415 	stw	r3,16(sp)
   273cc:	d8800515 	stw	r2,20(sp)
   273d0:	003e9c06 	br	26e44 <_dtoa_r+0x1120>
   273d4:	d8801117 	ldw	r2,68(sp)
   273d8:	15800044 	addi	r22,r2,1
   273dc:	003bf406 	br	263b0 <_dtoa_r+0x68c>
   273e0:	ddc00b17 	ldw	r23,44(sp)
   273e4:	dc000c17 	ldw	r16,48(sp)
   273e8:	b011883a 	mov	r8,r22
   273ec:	003fb706 	br	272cc <_dtoa_r+0x15a8>
   273f0:	dc800d17 	ldw	r18,52(sp)
   273f4:	dd800e17 	ldw	r22,56(sp)
   273f8:	ddc00b17 	ldw	r23,44(sp)
   273fc:	dc000c17 	ldw	r16,48(sp)
   27400:	dd400f17 	ldw	r21,60(sp)
   27404:	003c4106 	br	2650c <_dtoa_r+0x7e8>
   27408:	d8800117 	ldw	r2,4(sp)
   2740c:	108000c8 	cmpgei	r2,r2,3
   27410:	1000081e 	bne	r2,zero,27434 <_dtoa_r+0x1710>
   27414:	d9400317 	ldw	r5,12(sp)
   27418:	b809883a 	mov	r4,r23
   2741c:	0025b0c0 	call	25b0c <quorem>
   27420:	15000c04 	addi	r20,r2,48
   27424:	dd400617 	ldw	r21,24(sp)
   27428:	dc800a17 	ldw	r18,40(sp)
   2742c:	e5000005 	stb	r20,0(fp)
   27430:	003d1b06 	br	268a0 <_dtoa_r+0xb7c>
   27434:	dc800a17 	ldw	r18,40(sp)
   27438:	dd400615 	stw	r21,24(sp)
   2743c:	003e2006 	br	26cc0 <_dtoa_r+0xf9c>
   27440:	4027883a 	mov	r19,r8
   27444:	003f7e06 	br	27240 <_dtoa_r+0x151c>
   27448:	d8800117 	ldw	r2,4(sp)
   2744c:	108000c8 	cmpgei	r2,r2,3
   27450:	103ff81e 	bne	r2,zero,27434 <_dtoa_r+0x1710>
   27454:	dd400615 	stw	r21,24(sp)
   27458:	dc800a17 	ldw	r18,40(sp)
   2745c:	04fd9f0e 	bge	zero,r19,26adc <_dtoa_r+0xdb8>
   27460:	003e6406 	br	26df4 <_dtoa_r+0x10d0>
   27464:	1023883a 	mov	r17,r2
   27468:	1829883a 	mov	r20,r3
   2746c:	04c00084 	movi	r19,2
   27470:	003b3b06 	br	26160 <_dtoa_r+0x43c>
   27474:	01c000f4 	movhi	r7,3
   27478:	010000f4 	movhi	r4,3
   2747c:	39c13d04 	addi	r7,r7,1268
   27480:	000d883a 	mov	r6,zero
   27484:	0140bbc4 	movi	r5,751
   27488:	21014204 	addi	r4,r4,1288
   2748c:	002a1c80 	call	2a1c8 <__assert_func>
   27490:	01c000f4 	movhi	r7,3
   27494:	010000f4 	movhi	r4,3
   27498:	39c13d04 	addi	r7,r7,1268
   2749c:	000d883a 	mov	r6,zero
   274a0:	01406bc4 	movi	r5,431
   274a4:	21014204 	addi	r4,r4,1288
   274a8:	002a1c80 	call	2a1c8 <__assert_func>
   274ac:	e7013904 	addi	fp,fp,1252
   274b0:	003a4d06 	br	25de8 <_dtoa_r+0xc4>
   274b4:	80000f15 	stw	zero,60(r16)
   274b8:	000b883a 	mov	r5,zero
   274bc:	8009883a 	mov	r4,r16
   274c0:	00281800 	call	28180 <_Balloc>
   274c4:	1039883a 	mov	fp,r2
   274c8:	103ff126 	beq	r2,zero,27490 <_dtoa_r+0x176c>
   274cc:	80800e15 	stw	r2,56(r16)
   274d0:	00bfffc4 	movi	r2,-1
   274d4:	d8800a15 	stw	r2,40(sp)
   274d8:	00800044 	movi	r2,1
   274dc:	04bfffc4 	movi	r18,-1
   274e0:	d8800715 	stw	r2,28(sp)
   274e4:	d8001f15 	stw	zero,124(sp)
   274e8:	003c0806 	br	2650c <_dtoa_r+0x7e8>
   274ec:	80000f15 	stw	zero,60(r16)
   274f0:	000b883a 	mov	r5,zero
   274f4:	003ad506 	br	2604c <_dtoa_r+0x328>
   274f8:	a005883a 	mov	r2,r20
   274fc:	e029883a 	mov	r20,fp
   27500:	df000817 	ldw	fp,32(sp)
   27504:	00bdcd0e 	bge	zero,r2,26c3c <_dtoa_r+0xf18>
   27508:	003dc006 	br	26c0c <_dtoa_r+0xee8>

0002750c <exit>:
   2750c:	defffe04 	addi	sp,sp,-8
   27510:	000b883a 	mov	r5,zero
   27514:	dc000015 	stw	r16,0(sp)
   27518:	dfc00115 	stw	ra,4(sp)
   2751c:	2021883a 	mov	r16,r4
   27520:	002a0b00 	call	2a0b0 <__call_exitprocs>
   27524:	008000f4 	movhi	r2,3
   27528:	108f1517 	ldw	r2,15444(r2)
   2752c:	10000126 	beq	r2,zero,27534 <exit+0x28>
   27530:	103ee83a 	callr	r2
   27534:	8009883a 	mov	r4,r16
   27538:	002de700 	call	2de70 <_exit>

0002753c <_malloc_trim_r>:
   2753c:	defffa04 	addi	sp,sp,-24
   27540:	dcc00315 	stw	r19,12(sp)
   27544:	04c000f4 	movhi	r19,3
   27548:	dd000415 	stw	r20,16(sp)
   2754c:	dc800215 	stw	r18,8(sp)
   27550:	dc400115 	stw	r17,4(sp)
   27554:	dc000015 	stw	r16,0(sp)
   27558:	2829883a 	mov	r20,r5
   2755c:	dfc00515 	stw	ra,20(sp)
   27560:	9cc34804 	addi	r19,r19,3360
   27564:	2025883a 	mov	r18,r4
   27568:	002e6f80 	call	2e6f8 <__malloc_lock>
   2756c:	98800217 	ldw	r2,8(r19)
   27570:	14400117 	ldw	r17,4(r2)
   27574:	00bfff04 	movi	r2,-4
   27578:	88a2703a 	and	r17,r17,r2
   2757c:	8c03fbc4 	addi	r16,r17,4079
   27580:	8521c83a 	sub	r16,r16,r20
   27584:	8020d33a 	srli	r16,r16,12
   27588:	843fffc4 	addi	r16,r16,-1
   2758c:	8020933a 	slli	r16,r16,12
   27590:	80840008 	cmpgei	r2,r16,4096
   27594:	10000626 	beq	r2,zero,275b0 <_malloc_trim_r+0x74>
   27598:	000b883a 	mov	r5,zero
   2759c:	9009883a 	mov	r4,r18
   275a0:	002a0580 	call	2a058 <_sbrk_r>
   275a4:	98c00217 	ldw	r3,8(r19)
   275a8:	1c47883a 	add	r3,r3,r17
   275ac:	10c00b26 	beq	r2,r3,275dc <_malloc_trim_r+0xa0>
   275b0:	9009883a 	mov	r4,r18
   275b4:	002e71c0 	call	2e71c <__malloc_unlock>
   275b8:	0005883a 	mov	r2,zero
   275bc:	dfc00517 	ldw	ra,20(sp)
   275c0:	dd000417 	ldw	r20,16(sp)
   275c4:	dcc00317 	ldw	r19,12(sp)
   275c8:	dc800217 	ldw	r18,8(sp)
   275cc:	dc400117 	ldw	r17,4(sp)
   275d0:	dc000017 	ldw	r16,0(sp)
   275d4:	dec00604 	addi	sp,sp,24
   275d8:	f800283a 	ret
   275dc:	040bc83a 	sub	r5,zero,r16
   275e0:	9009883a 	mov	r4,r18
   275e4:	002a0580 	call	2a058 <_sbrk_r>
   275e8:	10bfffd8 	cmpnei	r2,r2,-1
   275ec:	10000d26 	beq	r2,zero,27624 <_malloc_trim_r+0xe8>
   275f0:	008000f4 	movhi	r2,3
   275f4:	108f7017 	ldw	r2,15808(r2)
   275f8:	98c00217 	ldw	r3,8(r19)
   275fc:	8c23c83a 	sub	r17,r17,r16
   27600:	8c400054 	ori	r17,r17,1
   27604:	1405c83a 	sub	r2,r2,r16
   27608:	1c400115 	stw	r17,4(r3)
   2760c:	9009883a 	mov	r4,r18
   27610:	00c000f4 	movhi	r3,3
   27614:	188f7015 	stw	r2,15808(r3)
   27618:	002e71c0 	call	2e71c <__malloc_unlock>
   2761c:	00800044 	movi	r2,1
   27620:	003fe606 	br	275bc <_malloc_trim_r+0x80>
   27624:	000b883a 	mov	r5,zero
   27628:	9009883a 	mov	r4,r18
   2762c:	002a0580 	call	2a058 <_sbrk_r>
   27630:	99000217 	ldw	r4,8(r19)
   27634:	1107c83a 	sub	r3,r2,r4
   27638:	19400410 	cmplti	r5,r3,16
   2763c:	283fdc1e 	bne	r5,zero,275b0 <_malloc_trim_r+0x74>
   27640:	014000f4 	movhi	r5,3
   27644:	2948ce17 	ldw	r5,9016(r5)
   27648:	18c00054 	ori	r3,r3,1
   2764c:	20c00115 	stw	r3,4(r4)
   27650:	1145c83a 	sub	r2,r2,r5
   27654:	014000f4 	movhi	r5,3
   27658:	288f7015 	stw	r2,15808(r5)
   2765c:	003fd406 	br	275b0 <_malloc_trim_r+0x74>

00027660 <_free_r>:
   27660:	28005f26 	beq	r5,zero,277e0 <_free_r+0x180>
   27664:	defffd04 	addi	sp,sp,-12
   27668:	dc400115 	stw	r17,4(sp)
   2766c:	dc000015 	stw	r16,0(sp)
   27670:	2023883a 	mov	r17,r4
   27674:	2821883a 	mov	r16,r5
   27678:	dfc00215 	stw	ra,8(sp)
   2767c:	002e6f80 	call	2e6f8 <__malloc_lock>
   27680:	81ffff17 	ldw	r7,-4(r16)
   27684:	00bfff84 	movi	r2,-2
   27688:	80fffe04 	addi	r3,r16,-8
   2768c:	3884703a 	and	r2,r7,r2
   27690:	018000f4 	movhi	r6,3
   27694:	1889883a 	add	r4,r3,r2
   27698:	31834804 	addi	r6,r6,3360
   2769c:	21400117 	ldw	r5,4(r4)
   276a0:	32000217 	ldw	r8,8(r6)
   276a4:	027fff04 	movi	r9,-4
   276a8:	2a4a703a 	and	r5,r5,r9
   276ac:	41006526 	beq	r8,r4,27844 <_free_r+0x1e4>
   276b0:	21400115 	stw	r5,4(r4)
   276b4:	39c0004c 	andi	r7,r7,1
   276b8:	2151883a 	add	r8,r4,r5
   276bc:	3800281e 	bne	r7,zero,27760 <_free_r+0x100>
   276c0:	82bffe17 	ldw	r10,-8(r16)
   276c4:	42000117 	ldw	r8,4(r8)
   276c8:	01c000f4 	movhi	r7,3
   276cc:	1a87c83a 	sub	r3,r3,r10
   276d0:	1a400217 	ldw	r9,8(r3)
   276d4:	39c34a04 	addi	r7,r7,3368
   276d8:	1285883a 	add	r2,r2,r10
   276dc:	4200004c 	andi	r8,r8,1
   276e0:	49c04d26 	beq	r9,r7,27818 <_free_r+0x1b8>
   276e4:	1a800317 	ldw	r10,12(r3)
   276e8:	4a800315 	stw	r10,12(r9)
   276ec:	52400215 	stw	r9,8(r10)
   276f0:	40006926 	beq	r8,zero,27898 <_free_r+0x238>
   276f4:	11400054 	ori	r5,r2,1
   276f8:	19400115 	stw	r5,4(r3)
   276fc:	20800015 	stw	r2,0(r4)
   27700:	11008028 	cmpgeui	r4,r2,512
   27704:	20001e1e 	bne	r4,zero,27780 <_free_r+0x120>
   27708:	1008d0fa 	srli	r4,r2,3
   2770c:	100ad17a 	srli	r5,r2,5
   27710:	31c00117 	ldw	r7,4(r6)
   27714:	20800044 	addi	r2,r4,1
   27718:	100490fa 	slli	r2,r2,3
   2771c:	01000044 	movi	r4,1
   27720:	2148983a 	sll	r4,r4,r5
   27724:	3085883a 	add	r2,r6,r2
   27728:	11400017 	ldw	r5,0(r2)
   2772c:	21c8b03a 	or	r4,r4,r7
   27730:	11fffe04 	addi	r7,r2,-8
   27734:	19c00315 	stw	r7,12(r3)
   27738:	19400215 	stw	r5,8(r3)
   2773c:	31000115 	stw	r4,4(r6)
   27740:	10c00015 	stw	r3,0(r2)
   27744:	28c00315 	stw	r3,12(r5)
   27748:	8809883a 	mov	r4,r17
   2774c:	dfc00217 	ldw	ra,8(sp)
   27750:	dc400117 	ldw	r17,4(sp)
   27754:	dc000017 	ldw	r16,0(sp)
   27758:	dec00304 	addi	sp,sp,12
   2775c:	002e71c1 	jmpi	2e71c <__malloc_unlock>
   27760:	41c00117 	ldw	r7,4(r8)
   27764:	39c0004c 	andi	r7,r7,1
   27768:	38001e26 	beq	r7,zero,277e4 <_free_r+0x184>
   2776c:	11400054 	ori	r5,r2,1
   27770:	817fff15 	stw	r5,-4(r16)
   27774:	20800015 	stw	r2,0(r4)
   27778:	11008028 	cmpgeui	r4,r2,512
   2777c:	203fe226 	beq	r4,zero,27708 <_free_r+0xa8>
   27780:	1008d27a 	srli	r4,r2,9
   27784:	21400168 	cmpgeui	r5,r4,5
   27788:	2800451e 	bne	r5,zero,278a0 <_free_r+0x240>
   2778c:	1008d1ba 	srli	r4,r2,6
   27790:	21c00e44 	addi	r7,r4,57
   27794:	380e90fa 	slli	r7,r7,3
   27798:	21000e04 	addi	r4,r4,56
   2779c:	31cf883a 	add	r7,r6,r7
   277a0:	39400017 	ldw	r5,0(r7)
   277a4:	39fffe04 	addi	r7,r7,-8
   277a8:	39405326 	beq	r7,r5,278f8 <_free_r+0x298>
   277ac:	01bfff04 	movi	r6,-4
   277b0:	00000206 	br	277bc <_free_r+0x15c>
   277b4:	29400217 	ldw	r5,8(r5)
   277b8:	39400326 	beq	r7,r5,277c8 <_free_r+0x168>
   277bc:	29000117 	ldw	r4,4(r5)
   277c0:	2188703a 	and	r4,r4,r6
   277c4:	113ffb36 	bltu	r2,r4,277b4 <_free_r+0x154>
   277c8:	29c00317 	ldw	r7,12(r5)
   277cc:	19c00315 	stw	r7,12(r3)
   277d0:	19400215 	stw	r5,8(r3)
   277d4:	38c00215 	stw	r3,8(r7)
   277d8:	28c00315 	stw	r3,12(r5)
   277dc:	003fda06 	br	27748 <_free_r+0xe8>
   277e0:	f800283a 	ret
   277e4:	01c000f4 	movhi	r7,3
   277e8:	1145883a 	add	r2,r2,r5
   277ec:	39c34a04 	addi	r7,r7,3368
   277f0:	21400217 	ldw	r5,8(r4)
   277f4:	29c03726 	beq	r5,r7,278d4 <_free_r+0x274>
   277f8:	22000317 	ldw	r8,12(r4)
   277fc:	11c00054 	ori	r7,r2,1
   27800:	1889883a 	add	r4,r3,r2
   27804:	2a000315 	stw	r8,12(r5)
   27808:	41400215 	stw	r5,8(r8)
   2780c:	19c00115 	stw	r7,4(r3)
   27810:	20800015 	stw	r2,0(r4)
   27814:	003fba06 	br	27700 <_free_r+0xa0>
   27818:	40004f1e 	bne	r8,zero,27958 <_free_r+0x2f8>
   2781c:	21800217 	ldw	r6,8(r4)
   27820:	21000317 	ldw	r4,12(r4)
   27824:	288b883a 	add	r5,r5,r2
   27828:	28800054 	ori	r2,r5,1
   2782c:	31000315 	stw	r4,12(r6)
   27830:	21800215 	stw	r6,8(r4)
   27834:	18800115 	stw	r2,4(r3)
   27838:	1947883a 	add	r3,r3,r5
   2783c:	19400015 	stw	r5,0(r3)
   27840:	003fc106 	br	27748 <_free_r+0xe8>
   27844:	39c0004c 	andi	r7,r7,1
   27848:	114b883a 	add	r5,r2,r5
   2784c:	3800071e 	bne	r7,zero,2786c <_free_r+0x20c>
   27850:	81fffe17 	ldw	r7,-8(r16)
   27854:	19c7c83a 	sub	r3,r3,r7
   27858:	18800317 	ldw	r2,12(r3)
   2785c:	19000217 	ldw	r4,8(r3)
   27860:	29cb883a 	add	r5,r5,r7
   27864:	20800315 	stw	r2,12(r4)
   27868:	11000215 	stw	r4,8(r2)
   2786c:	008000f4 	movhi	r2,3
   27870:	29000054 	ori	r4,r5,1
   27874:	1088cf17 	ldw	r2,9020(r2)
   27878:	19000115 	stw	r4,4(r3)
   2787c:	30c00215 	stw	r3,8(r6)
   27880:	28bfb136 	bltu	r5,r2,27748 <_free_r+0xe8>
   27884:	008000f4 	movhi	r2,3
   27888:	114f1817 	ldw	r5,15456(r2)
   2788c:	8809883a 	mov	r4,r17
   27890:	002753c0 	call	2753c <_malloc_trim_r>
   27894:	003fac06 	br	27748 <_free_r+0xe8>
   27898:	1145883a 	add	r2,r2,r5
   2789c:	003fd406 	br	277f0 <_free_r+0x190>
   278a0:	21400568 	cmpgeui	r5,r4,21
   278a4:	28000726 	beq	r5,zero,278c4 <_free_r+0x264>
   278a8:	21401568 	cmpgeui	r5,r4,85
   278ac:	2800191e 	bne	r5,zero,27914 <_free_r+0x2b4>
   278b0:	1008d33a 	srli	r4,r2,12
   278b4:	21c01bc4 	addi	r7,r4,111
   278b8:	380e90fa 	slli	r7,r7,3
   278bc:	21001b84 	addi	r4,r4,110
   278c0:	003fb606 	br	2779c <_free_r+0x13c>
   278c4:	21c01704 	addi	r7,r4,92
   278c8:	380e90fa 	slli	r7,r7,3
   278cc:	210016c4 	addi	r4,r4,91
   278d0:	003fb206 	br	2779c <_free_r+0x13c>
   278d4:	30c00515 	stw	r3,20(r6)
   278d8:	30c00415 	stw	r3,16(r6)
   278dc:	11000054 	ori	r4,r2,1
   278e0:	19c00315 	stw	r7,12(r3)
   278e4:	19c00215 	stw	r7,8(r3)
   278e8:	19000115 	stw	r4,4(r3)
   278ec:	1887883a 	add	r3,r3,r2
   278f0:	18800015 	stw	r2,0(r3)
   278f4:	003f9406 	br	27748 <_free_r+0xe8>
   278f8:	2009d0ba 	srai	r4,r4,2
   278fc:	00800044 	movi	r2,1
   27900:	32000117 	ldw	r8,4(r6)
   27904:	1104983a 	sll	r2,r2,r4
   27908:	1204b03a 	or	r2,r2,r8
   2790c:	30800115 	stw	r2,4(r6)
   27910:	003fae06 	br	277cc <_free_r+0x16c>
   27914:	21405568 	cmpgeui	r5,r4,341
   27918:	2800051e 	bne	r5,zero,27930 <_free_r+0x2d0>
   2791c:	1008d3fa 	srli	r4,r2,15
   27920:	21c01e04 	addi	r7,r4,120
   27924:	380e90fa 	slli	r7,r7,3
   27928:	21001dc4 	addi	r4,r4,119
   2792c:	003f9b06 	br	2779c <_free_r+0x13c>
   27930:	21015568 	cmpgeui	r4,r4,1365
   27934:	2000051e 	bne	r4,zero,2794c <_free_r+0x2ec>
   27938:	1008d4ba 	srli	r4,r2,18
   2793c:	21c01f44 	addi	r7,r4,125
   27940:	380e90fa 	slli	r7,r7,3
   27944:	21001f04 	addi	r4,r4,124
   27948:	003f9406 	br	2779c <_free_r+0x13c>
   2794c:	01c0fe04 	movi	r7,1016
   27950:	01001f84 	movi	r4,126
   27954:	003f9106 	br	2779c <_free_r+0x13c>
   27958:	11400054 	ori	r5,r2,1
   2795c:	19400115 	stw	r5,4(r3)
   27960:	20800015 	stw	r2,0(r4)
   27964:	003f7806 	br	27748 <_free_r+0xe8>

00027968 <_malloc_r>:
   27968:	defff604 	addi	sp,sp,-40
   2796c:	dc400115 	stw	r17,4(sp)
   27970:	2c4002c4 	addi	r17,r5,11
   27974:	dc800215 	stw	r18,8(sp)
   27978:	dfc00915 	stw	ra,36(sp)
   2797c:	df000815 	stw	fp,32(sp)
   27980:	ddc00715 	stw	r23,28(sp)
   27984:	dd800615 	stw	r22,24(sp)
   27988:	dd400515 	stw	r21,20(sp)
   2798c:	dd000415 	stw	r20,16(sp)
   27990:	dcc00315 	stw	r19,12(sp)
   27994:	dc000015 	stw	r16,0(sp)
   27998:	888005e8 	cmpgeui	r2,r17,23
   2799c:	2025883a 	mov	r18,r4
   279a0:	1000261e 	bne	r2,zero,27a3c <_malloc_r+0xd4>
   279a4:	29400468 	cmpgeui	r5,r5,17
   279a8:	28008e1e 	bne	r5,zero,27be4 <_malloc_r+0x27c>
   279ac:	002e6f80 	call	2e6f8 <__malloc_lock>
   279b0:	04400404 	movi	r17,16
   279b4:	00800604 	movi	r2,24
   279b8:	01c00084 	movi	r7,2
   279bc:	04c000f4 	movhi	r19,3
   279c0:	9cc34804 	addi	r19,r19,3360
   279c4:	9885883a 	add	r2,r19,r2
   279c8:	14000117 	ldw	r16,4(r2)
   279cc:	10fffe04 	addi	r3,r2,-8
   279d0:	80c0d026 	beq	r16,r3,27d14 <_malloc_r+0x3ac>
   279d4:	80800117 	ldw	r2,4(r16)
   279d8:	81000317 	ldw	r4,12(r16)
   279dc:	81400217 	ldw	r5,8(r16)
   279e0:	00ffff04 	movi	r3,-4
   279e4:	10c4703a 	and	r2,r2,r3
   279e8:	8085883a 	add	r2,r16,r2
   279ec:	10c00117 	ldw	r3,4(r2)
   279f0:	29000315 	stw	r4,12(r5)
   279f4:	21400215 	stw	r5,8(r4)
   279f8:	18c00054 	ori	r3,r3,1
   279fc:	10c00115 	stw	r3,4(r2)
   27a00:	9009883a 	mov	r4,r18
   27a04:	002e71c0 	call	2e71c <__malloc_unlock>
   27a08:	80800204 	addi	r2,r16,8
   27a0c:	dfc00917 	ldw	ra,36(sp)
   27a10:	df000817 	ldw	fp,32(sp)
   27a14:	ddc00717 	ldw	r23,28(sp)
   27a18:	dd800617 	ldw	r22,24(sp)
   27a1c:	dd400517 	ldw	r21,20(sp)
   27a20:	dd000417 	ldw	r20,16(sp)
   27a24:	dcc00317 	ldw	r19,12(sp)
   27a28:	dc800217 	ldw	r18,8(sp)
   27a2c:	dc400117 	ldw	r17,4(sp)
   27a30:	dc000017 	ldw	r16,0(sp)
   27a34:	dec00a04 	addi	sp,sp,40
   27a38:	f800283a 	ret
   27a3c:	00bffe04 	movi	r2,-8
   27a40:	88a2703a 	and	r17,r17,r2
   27a44:	88006716 	blt	r17,zero,27be4 <_malloc_r+0x27c>
   27a48:	89406636 	bltu	r17,r5,27be4 <_malloc_r+0x27c>
   27a4c:	002e6f80 	call	2e6f8 <__malloc_lock>
   27a50:	88807e28 	cmpgeui	r2,r17,504
   27a54:	1000f426 	beq	r2,zero,27e28 <_malloc_r+0x4c0>
   27a58:	8804d27a 	srli	r2,r17,9
   27a5c:	10006526 	beq	r2,zero,27bf4 <_malloc_r+0x28c>
   27a60:	10c00168 	cmpgeui	r3,r2,5
   27a64:	1800c81e 	bne	r3,zero,27d88 <_malloc_r+0x420>
   27a68:	8804d1ba 	srli	r2,r17,6
   27a6c:	11c00e44 	addi	r7,r2,57
   27a70:	380890fa 	slli	r4,r7,3
   27a74:	12000e04 	addi	r8,r2,56
   27a78:	04c000f4 	movhi	r19,3
   27a7c:	9cc34804 	addi	r19,r19,3360
   27a80:	9909883a 	add	r4,r19,r4
   27a84:	24000117 	ldw	r16,4(r4)
   27a88:	213ffe04 	addi	r4,r4,-8
   27a8c:	24000c26 	beq	r4,r16,27ac0 <_malloc_r+0x158>
   27a90:	01bfff04 	movi	r6,-4
   27a94:	00000406 	br	27aa8 <_malloc_r+0x140>
   27a98:	81400317 	ldw	r5,12(r16)
   27a9c:	1800970e 	bge	r3,zero,27cfc <_malloc_r+0x394>
   27aa0:	21400726 	beq	r4,r5,27ac0 <_malloc_r+0x158>
   27aa4:	2821883a 	mov	r16,r5
   27aa8:	80800117 	ldw	r2,4(r16)
   27aac:	1184703a 	and	r2,r2,r6
   27ab0:	1447c83a 	sub	r3,r2,r17
   27ab4:	19400408 	cmpgei	r5,r3,16
   27ab8:	283ff726 	beq	r5,zero,27a98 <_malloc_r+0x130>
   27abc:	400f883a 	mov	r7,r8
   27ac0:	9c000417 	ldw	r16,16(r19)
   27ac4:	024000f4 	movhi	r9,3
   27ac8:	4a434a04 	addi	r9,r9,3368
   27acc:	82407f26 	beq	r16,r9,27ccc <_malloc_r+0x364>
   27ad0:	80800117 	ldw	r2,4(r16)
   27ad4:	00ffff04 	movi	r3,-4
   27ad8:	10c4703a 	and	r2,r2,r3
   27adc:	1447c83a 	sub	r3,r2,r17
   27ae0:	19000410 	cmplti	r4,r3,16
   27ae4:	2000d326 	beq	r4,zero,27e34 <_malloc_r+0x4cc>
   27ae8:	9a400515 	stw	r9,20(r19)
   27aec:	9a400415 	stw	r9,16(r19)
   27af0:	1800c50e 	bge	r3,zero,27e08 <_malloc_r+0x4a0>
   27af4:	10c08028 	cmpgeui	r3,r2,512
   27af8:	99400117 	ldw	r5,4(r19)
   27afc:	1800891e 	bne	r3,zero,27d24 <_malloc_r+0x3bc>
   27b00:	1006d0fa 	srli	r3,r2,3
   27b04:	1008d17a 	srli	r4,r2,5
   27b08:	18800044 	addi	r2,r3,1
   27b0c:	100490fa 	slli	r2,r2,3
   27b10:	00c00044 	movi	r3,1
   27b14:	1906983a 	sll	r3,r3,r4
   27b18:	9885883a 	add	r2,r19,r2
   27b1c:	11000017 	ldw	r4,0(r2)
   27b20:	28cab03a 	or	r5,r5,r3
   27b24:	10fffe04 	addi	r3,r2,-8
   27b28:	80c00315 	stw	r3,12(r16)
   27b2c:	81000215 	stw	r4,8(r16)
   27b30:	99400115 	stw	r5,4(r19)
   27b34:	14000015 	stw	r16,0(r2)
   27b38:	24000315 	stw	r16,12(r4)
   27b3c:	3805d0ba 	srai	r2,r7,2
   27b40:	01000044 	movi	r4,1
   27b44:	2088983a 	sll	r4,r4,r2
   27b48:	29002e36 	bltu	r5,r4,27c04 <_malloc_r+0x29c>
   27b4c:	2144703a 	and	r2,r4,r5
   27b50:	10000a1e 	bne	r2,zero,27b7c <_malloc_r+0x214>
   27b54:	2109883a 	add	r4,r4,r4
   27b58:	00bfff04 	movi	r2,-4
   27b5c:	3884703a 	and	r2,r7,r2
   27b60:	2146703a 	and	r3,r4,r5
   27b64:	11c00104 	addi	r7,r2,4
   27b68:	1800041e 	bne	r3,zero,27b7c <_malloc_r+0x214>
   27b6c:	2109883a 	add	r4,r4,r4
   27b70:	2144703a 	and	r2,r4,r5
   27b74:	39c00104 	addi	r7,r7,4
   27b78:	103ffc26 	beq	r2,zero,27b6c <_malloc_r+0x204>
   27b7c:	02bfff04 	movi	r10,-4
   27b80:	381690fa 	slli	r11,r7,3
   27b84:	3819883a 	mov	r12,r7
   27b88:	9ad7883a 	add	r11,r19,r11
   27b8c:	5811883a 	mov	r8,r11
   27b90:	40800317 	ldw	r2,12(r8)
   27b94:	40808526 	beq	r8,r2,27dac <_malloc_r+0x444>
   27b98:	10c00117 	ldw	r3,4(r2)
   27b9c:	1021883a 	mov	r16,r2
   27ba0:	10800317 	ldw	r2,12(r2)
   27ba4:	1a86703a 	and	r3,r3,r10
   27ba8:	1c4bc83a 	sub	r5,r3,r17
   27bac:	29800410 	cmplti	r6,r5,16
   27bb0:	30008326 	beq	r6,zero,27dc0 <_malloc_r+0x458>
   27bb4:	283ff716 	blt	r5,zero,27b94 <_malloc_r+0x22c>
   27bb8:	80c7883a 	add	r3,r16,r3
   27bbc:	19400117 	ldw	r5,4(r3)
   27bc0:	81800217 	ldw	r6,8(r16)
   27bc4:	9009883a 	mov	r4,r18
   27bc8:	29400054 	ori	r5,r5,1
   27bcc:	19400115 	stw	r5,4(r3)
   27bd0:	30800315 	stw	r2,12(r6)
   27bd4:	11800215 	stw	r6,8(r2)
   27bd8:	002e71c0 	call	2e71c <__malloc_unlock>
   27bdc:	80800204 	addi	r2,r16,8
   27be0:	003f8a06 	br	27a0c <_malloc_r+0xa4>
   27be4:	00800304 	movi	r2,12
   27be8:	90800015 	stw	r2,0(r18)
   27bec:	0005883a 	mov	r2,zero
   27bf0:	003f8606 	br	27a0c <_malloc_r+0xa4>
   27bf4:	01008004 	movi	r4,512
   27bf8:	01c01004 	movi	r7,64
   27bfc:	02000fc4 	movi	r8,63
   27c00:	003f9d06 	br	27a78 <_malloc_r+0x110>
   27c04:	9c000217 	ldw	r16,8(r19)
   27c08:	00bfff04 	movi	r2,-4
   27c0c:	80c00117 	ldw	r3,4(r16)
   27c10:	18aa703a 	and	r21,r3,r2
   27c14:	ac400336 	bltu	r21,r17,27c24 <_malloc_r+0x2bc>
   27c18:	ac47c83a 	sub	r3,r21,r17
   27c1c:	18800408 	cmpgei	r2,r3,16
   27c20:	10002c1e 	bne	r2,zero,27cd4 <_malloc_r+0x36c>
   27c24:	008000f4 	movhi	r2,3
   27c28:	1088ce17 	ldw	r2,9016(r2)
   27c2c:	00c000f4 	movhi	r3,3
   27c30:	1d0f1817 	ldw	r20,15456(r3)
   27c34:	10bfffd8 	cmpnei	r2,r2,-1
   27c38:	856f883a 	add	r23,r16,r21
   27c3c:	8d29883a 	add	r20,r17,r20
   27c40:	1000eb26 	beq	r2,zero,27ff0 <_malloc_r+0x688>
   27c44:	a50403c4 	addi	r20,r20,4111
   27c48:	00bc0004 	movi	r2,-4096
   27c4c:	a0a8703a 	and	r20,r20,r2
   27c50:	a00b883a 	mov	r5,r20
   27c54:	9009883a 	mov	r4,r18
   27c58:	002a0580 	call	2a058 <_sbrk_r>
   27c5c:	102d883a 	mov	r22,r2
   27c60:	10bfffd8 	cmpnei	r2,r2,-1
   27c64:	10008826 	beq	r2,zero,27e88 <_malloc_r+0x520>
   27c68:	b5c08636 	bltu	r22,r23,27e84 <_malloc_r+0x51c>
   27c6c:	008000f4 	movhi	r2,3
   27c70:	110f7017 	ldw	r4,15808(r2)
   27c74:	a109883a 	add	r4,r20,r4
   27c78:	110f7015 	stw	r4,15808(r2)
   27c7c:	2007883a 	mov	r3,r4
   27c80:	bd80a91e 	bne	r23,r22,27f28 <_malloc_r+0x5c0>
   27c84:	b083ffcc 	andi	r2,r22,4095
   27c88:	1000a71e 	bne	r2,zero,27f28 <_malloc_r+0x5c0>
   27c8c:	9d800217 	ldw	r22,8(r19)
   27c90:	ad07883a 	add	r3,r21,r20
   27c94:	18c00054 	ori	r3,r3,1
   27c98:	b0c00115 	stw	r3,4(r22)
   27c9c:	008000f4 	movhi	r2,3
   27ca0:	108f1717 	ldw	r2,15452(r2)
   27ca4:	1100022e 	bgeu	r2,r4,27cb0 <_malloc_r+0x348>
   27ca8:	008000f4 	movhi	r2,3
   27cac:	110f1715 	stw	r4,15452(r2)
   27cb0:	008000f4 	movhi	r2,3
   27cb4:	108f1617 	ldw	r2,15448(r2)
   27cb8:	1100022e 	bgeu	r2,r4,27cc4 <_malloc_r+0x35c>
   27cbc:	008000f4 	movhi	r2,3
   27cc0:	110f1615 	stw	r4,15448(r2)
   27cc4:	b021883a 	mov	r16,r22
   27cc8:	00007106 	br	27e90 <_malloc_r+0x528>
   27ccc:	99400117 	ldw	r5,4(r19)
   27cd0:	003f9a06 	br	27b3c <_malloc_r+0x1d4>
   27cd4:	88800054 	ori	r2,r17,1
   27cd8:	80800115 	stw	r2,4(r16)
   27cdc:	8463883a 	add	r17,r16,r17
   27ce0:	9c400215 	stw	r17,8(r19)
   27ce4:	18c00054 	ori	r3,r3,1
   27ce8:	88c00115 	stw	r3,4(r17)
   27cec:	9009883a 	mov	r4,r18
   27cf0:	002e71c0 	call	2e71c <__malloc_unlock>
   27cf4:	80800204 	addi	r2,r16,8
   27cf8:	003f4406 	br	27a0c <_malloc_r+0xa4>
   27cfc:	81000217 	ldw	r4,8(r16)
   27d00:	8085883a 	add	r2,r16,r2
   27d04:	10c00117 	ldw	r3,4(r2)
   27d08:	21400315 	stw	r5,12(r4)
   27d0c:	29000215 	stw	r4,8(r5)
   27d10:	003f3906 	br	279f8 <_malloc_r+0x90>
   27d14:	14000317 	ldw	r16,12(r2)
   27d18:	143f2e1e 	bne	r2,r16,279d4 <_malloc_r+0x6c>
   27d1c:	39c00084 	addi	r7,r7,2
   27d20:	003f6706 	br	27ac0 <_malloc_r+0x158>
   27d24:	1006d27a 	srli	r3,r2,9
   27d28:	19000168 	cmpgeui	r4,r3,5
   27d2c:	20005026 	beq	r4,zero,27e70 <_malloc_r+0x508>
   27d30:	19000568 	cmpgeui	r4,r3,21
   27d34:	2000c01e 	bne	r4,zero,28038 <_malloc_r+0x6d0>
   27d38:	19801704 	addi	r6,r3,92
   27d3c:	300c90fa 	slli	r6,r6,3
   27d40:	190016c4 	addi	r4,r3,91
   27d44:	998d883a 	add	r6,r19,r6
   27d48:	30c00017 	ldw	r3,0(r6)
   27d4c:	31bffe04 	addi	r6,r6,-8
   27d50:	30c0a926 	beq	r6,r3,27ff8 <_malloc_r+0x690>
   27d54:	023fff04 	movi	r8,-4
   27d58:	00000206 	br	27d64 <_malloc_r+0x3fc>
   27d5c:	18c00217 	ldw	r3,8(r3)
   27d60:	30c00326 	beq	r6,r3,27d70 <_malloc_r+0x408>
   27d64:	19000117 	ldw	r4,4(r3)
   27d68:	2208703a 	and	r4,r4,r8
   27d6c:	113ffb36 	bltu	r2,r4,27d5c <_malloc_r+0x3f4>
   27d70:	19800317 	ldw	r6,12(r3)
   27d74:	81800315 	stw	r6,12(r16)
   27d78:	80c00215 	stw	r3,8(r16)
   27d7c:	34000215 	stw	r16,8(r6)
   27d80:	1c000315 	stw	r16,12(r3)
   27d84:	003f6d06 	br	27b3c <_malloc_r+0x1d4>
   27d88:	10c00568 	cmpgeui	r3,r2,21
   27d8c:	18004926 	beq	r3,zero,27eb4 <_malloc_r+0x54c>
   27d90:	10c01568 	cmpgeui	r3,r2,85
   27d94:	1800af1e 	bne	r3,zero,28054 <_malloc_r+0x6ec>
   27d98:	8804d33a 	srli	r2,r17,12
   27d9c:	11c01bc4 	addi	r7,r2,111
   27da0:	380890fa 	slli	r4,r7,3
   27da4:	12001b84 	addi	r8,r2,110
   27da8:	003f3306 	br	27a78 <_malloc_r+0x110>
   27dac:	63000044 	addi	r12,r12,1
   27db0:	608000cc 	andi	r2,r12,3
   27db4:	42000204 	addi	r8,r8,8
   27db8:	103f751e 	bne	r2,zero,27b90 <_malloc_r+0x228>
   27dbc:	00004406 	br	27ed0 <_malloc_r+0x568>
   27dc0:	81000217 	ldw	r4,8(r16)
   27dc4:	89800054 	ori	r6,r17,1
   27dc8:	81800115 	stw	r6,4(r16)
   27dcc:	20800315 	stw	r2,12(r4)
   27dd0:	11000215 	stw	r4,8(r2)
   27dd4:	8463883a 	add	r17,r16,r17
   27dd8:	9c400515 	stw	r17,20(r19)
   27ddc:	9c400415 	stw	r17,16(r19)
   27de0:	28800054 	ori	r2,r5,1
   27de4:	88800115 	stw	r2,4(r17)
   27de8:	8a400315 	stw	r9,12(r17)
   27dec:	8a400215 	stw	r9,8(r17)
   27df0:	80c7883a 	add	r3,r16,r3
   27df4:	19400015 	stw	r5,0(r3)
   27df8:	9009883a 	mov	r4,r18
   27dfc:	002e71c0 	call	2e71c <__malloc_unlock>
   27e00:	80800204 	addi	r2,r16,8
   27e04:	003f0106 	br	27a0c <_malloc_r+0xa4>
   27e08:	8085883a 	add	r2,r16,r2
   27e0c:	10c00117 	ldw	r3,4(r2)
   27e10:	9009883a 	mov	r4,r18
   27e14:	18c00054 	ori	r3,r3,1
   27e18:	10c00115 	stw	r3,4(r2)
   27e1c:	002e71c0 	call	2e71c <__malloc_unlock>
   27e20:	80800204 	addi	r2,r16,8
   27e24:	003ef906 	br	27a0c <_malloc_r+0xa4>
   27e28:	880ed0fa 	srli	r7,r17,3
   27e2c:	88800204 	addi	r2,r17,8
   27e30:	003ee206 	br	279bc <_malloc_r+0x54>
   27e34:	89000054 	ori	r4,r17,1
   27e38:	81000115 	stw	r4,4(r16)
   27e3c:	8463883a 	add	r17,r16,r17
   27e40:	9c400515 	stw	r17,20(r19)
   27e44:	9c400415 	stw	r17,16(r19)
   27e48:	19000054 	ori	r4,r3,1
   27e4c:	89000115 	stw	r4,4(r17)
   27e50:	8085883a 	add	r2,r16,r2
   27e54:	8a400315 	stw	r9,12(r17)
   27e58:	8a400215 	stw	r9,8(r17)
   27e5c:	10c00015 	stw	r3,0(r2)
   27e60:	9009883a 	mov	r4,r18
   27e64:	002e71c0 	call	2e71c <__malloc_unlock>
   27e68:	80800204 	addi	r2,r16,8
   27e6c:	003ee706 	br	27a0c <_malloc_r+0xa4>
   27e70:	1006d1ba 	srli	r3,r2,6
   27e74:	19800e44 	addi	r6,r3,57
   27e78:	300c90fa 	slli	r6,r6,3
   27e7c:	19000e04 	addi	r4,r3,56
   27e80:	003fb006 	br	27d44 <_malloc_r+0x3dc>
   27e84:	84c02426 	beq	r16,r19,27f18 <_malloc_r+0x5b0>
   27e88:	9c000217 	ldw	r16,8(r19)
   27e8c:	80c00117 	ldw	r3,4(r16)
   27e90:	00bfff04 	movi	r2,-4
   27e94:	1884703a 	and	r2,r3,r2
   27e98:	1447c83a 	sub	r3,r2,r17
   27e9c:	14400236 	bltu	r2,r17,27ea8 <_malloc_r+0x540>
   27ea0:	18800408 	cmpgei	r2,r3,16
   27ea4:	103f8b1e 	bne	r2,zero,27cd4 <_malloc_r+0x36c>
   27ea8:	9009883a 	mov	r4,r18
   27eac:	002e71c0 	call	2e71c <__malloc_unlock>
   27eb0:	003f4e06 	br	27bec <_malloc_r+0x284>
   27eb4:	11c01704 	addi	r7,r2,92
   27eb8:	380890fa 	slli	r4,r7,3
   27ebc:	120016c4 	addi	r8,r2,91
   27ec0:	003eed06 	br	27a78 <_malloc_r+0x110>
   27ec4:	58800217 	ldw	r2,8(r11)
   27ec8:	39ffffc4 	addi	r7,r7,-1
   27ecc:	12c0961e 	bne	r2,r11,28128 <_malloc_r+0x7c0>
   27ed0:	388000cc 	andi	r2,r7,3
   27ed4:	5afffe04 	addi	r11,r11,-8
   27ed8:	103ffa1e 	bne	r2,zero,27ec4 <_malloc_r+0x55c>
   27edc:	98c00117 	ldw	r3,4(r19)
   27ee0:	0104303a 	nor	r2,zero,r4
   27ee4:	10c4703a 	and	r2,r2,r3
   27ee8:	98800115 	stw	r2,4(r19)
   27eec:	2109883a 	add	r4,r4,r4
   27ef0:	113f4436 	bltu	r2,r4,27c04 <_malloc_r+0x29c>
   27ef4:	203f4326 	beq	r4,zero,27c04 <_malloc_r+0x29c>
   27ef8:	2086703a 	and	r3,r4,r2
   27efc:	1800041e 	bne	r3,zero,27f10 <_malloc_r+0x5a8>
   27f00:	2109883a 	add	r4,r4,r4
   27f04:	2086703a 	and	r3,r4,r2
   27f08:	63000104 	addi	r12,r12,4
   27f0c:	183ffc26 	beq	r3,zero,27f00 <_malloc_r+0x598>
   27f10:	600f883a 	mov	r7,r12
   27f14:	003f1a06 	br	27b80 <_malloc_r+0x218>
   27f18:	008000f4 	movhi	r2,3
   27f1c:	10cf7017 	ldw	r3,15808(r2)
   27f20:	a0c7883a 	add	r3,r20,r3
   27f24:	10cf7015 	stw	r3,15808(r2)
   27f28:	008000f4 	movhi	r2,3
   27f2c:	1088ce17 	ldw	r2,9016(r2)
   27f30:	10bfffd8 	cmpnei	r2,r2,-1
   27f34:	10004e26 	beq	r2,zero,28070 <_malloc_r+0x708>
   27f38:	b5c5c83a 	sub	r2,r22,r23
   27f3c:	10c5883a 	add	r2,r2,r3
   27f40:	00c000f4 	movhi	r3,3
   27f44:	188f7015 	stw	r2,15808(r3)
   27f48:	b70001cc 	andi	fp,r22,7
   27f4c:	e0003026 	beq	fp,zero,28010 <_malloc_r+0x6a8>
   27f50:	b72dc83a 	sub	r22,r22,fp
   27f54:	b5800204 	addi	r22,r22,8
   27f58:	01040204 	movi	r4,4104
   27f5c:	2709c83a 	sub	r4,r4,fp
   27f60:	b529883a 	add	r20,r22,r20
   27f64:	2509c83a 	sub	r4,r4,r20
   27f68:	25c3ffcc 	andi	r23,r4,4095
   27f6c:	b80b883a 	mov	r5,r23
   27f70:	9009883a 	mov	r4,r18
   27f74:	002a0580 	call	2a058 <_sbrk_r>
   27f78:	10ffffe0 	cmpeqi	r3,r2,-1
   27f7c:	1800501e 	bne	r3,zero,280c0 <_malloc_r+0x758>
   27f80:	1585c83a 	sub	r2,r2,r22
   27f84:	15e9883a 	add	r20,r2,r23
   27f88:	008000f4 	movhi	r2,3
   27f8c:	108f7017 	ldw	r2,15808(r2)
   27f90:	9d800215 	stw	r22,8(r19)
   27f94:	a0c00054 	ori	r3,r20,1
   27f98:	b889883a 	add	r4,r23,r2
   27f9c:	008000f4 	movhi	r2,3
   27fa0:	110f7015 	stw	r4,15808(r2)
   27fa4:	b0c00115 	stw	r3,4(r22)
   27fa8:	84ff3c26 	beq	r16,r19,27c9c <_malloc_r+0x334>
   27fac:	a8800428 	cmpgeui	r2,r21,16
   27fb0:	10003226 	beq	r2,zero,2807c <_malloc_r+0x714>
   27fb4:	80800117 	ldw	r2,4(r16)
   27fb8:	017ffe04 	movi	r5,-8
   27fbc:	a8fffd04 	addi	r3,r21,-12
   27fc0:	1946703a 	and	r3,r3,r5
   27fc4:	1080004c 	andi	r2,r2,1
   27fc8:	10c4b03a 	or	r2,r2,r3
   27fcc:	80800115 	stw	r2,4(r16)
   27fd0:	01400144 	movi	r5,5
   27fd4:	80c5883a 	add	r2,r16,r3
   27fd8:	11400115 	stw	r5,4(r2)
   27fdc:	11400215 	stw	r5,8(r2)
   27fe0:	18c00428 	cmpgeui	r3,r3,16
   27fe4:	18003b1e 	bne	r3,zero,280d4 <_malloc_r+0x76c>
   27fe8:	b0c00117 	ldw	r3,4(r22)
   27fec:	003f2b06 	br	27c9c <_malloc_r+0x334>
   27ff0:	a5000404 	addi	r20,r20,16
   27ff4:	003f1606 	br	27c50 <_malloc_r+0x2e8>
   27ff8:	2009d0ba 	srai	r4,r4,2
   27ffc:	00800044 	movi	r2,1
   28000:	1104983a 	sll	r2,r2,r4
   28004:	288ab03a 	or	r5,r5,r2
   28008:	99400115 	stw	r5,4(r19)
   2800c:	003f5906 	br	27d74 <_malloc_r+0x40c>
   28010:	b509883a 	add	r4,r22,r20
   28014:	0109c83a 	sub	r4,zero,r4
   28018:	25c3ffcc 	andi	r23,r4,4095
   2801c:	b80b883a 	mov	r5,r23
   28020:	9009883a 	mov	r4,r18
   28024:	002a0580 	call	2a058 <_sbrk_r>
   28028:	10ffffe0 	cmpeqi	r3,r2,-1
   2802c:	183fd426 	beq	r3,zero,27f80 <_malloc_r+0x618>
   28030:	002f883a 	mov	r23,zero
   28034:	003fd406 	br	27f88 <_malloc_r+0x620>
   28038:	19001568 	cmpgeui	r4,r3,85
   2803c:	2000121e 	bne	r4,zero,28088 <_malloc_r+0x720>
   28040:	1006d33a 	srli	r3,r2,12
   28044:	19801bc4 	addi	r6,r3,111
   28048:	300c90fa 	slli	r6,r6,3
   2804c:	19001b84 	addi	r4,r3,110
   28050:	003f3c06 	br	27d44 <_malloc_r+0x3dc>
   28054:	10c05568 	cmpgeui	r3,r2,341
   28058:	1800121e 	bne	r3,zero,280a4 <_malloc_r+0x73c>
   2805c:	8804d3fa 	srli	r2,r17,15
   28060:	11c01e04 	addi	r7,r2,120
   28064:	380890fa 	slli	r4,r7,3
   28068:	12001dc4 	addi	r8,r2,119
   2806c:	003e8206 	br	27a78 <_malloc_r+0x110>
   28070:	008000f4 	movhi	r2,3
   28074:	1588ce15 	stw	r22,9016(r2)
   28078:	003fb306 	br	27f48 <_malloc_r+0x5e0>
   2807c:	00800044 	movi	r2,1
   28080:	b0800115 	stw	r2,4(r22)
   28084:	003f8806 	br	27ea8 <_malloc_r+0x540>
   28088:	19005568 	cmpgeui	r4,r3,341
   2808c:	2000181e 	bne	r4,zero,280f0 <_malloc_r+0x788>
   28090:	1006d3fa 	srli	r3,r2,15
   28094:	19801e04 	addi	r6,r3,120
   28098:	300c90fa 	slli	r6,r6,3
   2809c:	19001dc4 	addi	r4,r3,119
   280a0:	003f2806 	br	27d44 <_malloc_r+0x3dc>
   280a4:	10815568 	cmpgeui	r2,r2,1365
   280a8:	1000181e 	bne	r2,zero,2810c <_malloc_r+0x7a4>
   280ac:	8804d4ba 	srli	r2,r17,18
   280b0:	11c01f44 	addi	r7,r2,125
   280b4:	380890fa 	slli	r4,r7,3
   280b8:	12001f04 	addi	r8,r2,124
   280bc:	003e6e06 	br	27a78 <_malloc_r+0x110>
   280c0:	e73ffe04 	addi	fp,fp,-8
   280c4:	a729883a 	add	r20,r20,fp
   280c8:	a5a9c83a 	sub	r20,r20,r22
   280cc:	002f883a 	mov	r23,zero
   280d0:	003fad06 	br	27f88 <_malloc_r+0x620>
   280d4:	9009883a 	mov	r4,r18
   280d8:	81400204 	addi	r5,r16,8
   280dc:	00276600 	call	27660 <_free_r>
   280e0:	008000f4 	movhi	r2,3
   280e4:	9d800217 	ldw	r22,8(r19)
   280e8:	110f7017 	ldw	r4,15808(r2)
   280ec:	003fbe06 	br	27fe8 <_malloc_r+0x680>
   280f0:	18c15568 	cmpgeui	r3,r3,1365
   280f4:	1800091e 	bne	r3,zero,2811c <_malloc_r+0x7b4>
   280f8:	1006d4ba 	srli	r3,r2,18
   280fc:	19801f44 	addi	r6,r3,125
   28100:	300c90fa 	slli	r6,r6,3
   28104:	19001f04 	addi	r4,r3,124
   28108:	003f0e06 	br	27d44 <_malloc_r+0x3dc>
   2810c:	0100fe04 	movi	r4,1016
   28110:	01c01fc4 	movi	r7,127
   28114:	02001f84 	movi	r8,126
   28118:	003e5706 	br	27a78 <_malloc_r+0x110>
   2811c:	0180fe04 	movi	r6,1016
   28120:	01001f84 	movi	r4,126
   28124:	003f0706 	br	27d44 <_malloc_r+0x3dc>
   28128:	98800117 	ldw	r2,4(r19)
   2812c:	003f6f06 	br	27eec <_malloc_r+0x584>

00028130 <_mbtowc_r>:
   28130:	008000f4 	movhi	r2,3
   28134:	10832617 	ldw	r2,3224(r2)
   28138:	1000683a 	jmp	r2

0002813c <__ascii_mbtowc>:
   2813c:	deffff04 	addi	sp,sp,-4
   28140:	28000826 	beq	r5,zero,28164 <__ascii_mbtowc+0x28>
   28144:	30000926 	beq	r6,zero,2816c <__ascii_mbtowc+0x30>
   28148:	38000b26 	beq	r7,zero,28178 <__ascii_mbtowc+0x3c>
   2814c:	30800003 	ldbu	r2,0(r6)
   28150:	28800015 	stw	r2,0(r5)
   28154:	30800003 	ldbu	r2,0(r6)
   28158:	1004c03a 	cmpne	r2,r2,zero
   2815c:	dec00104 	addi	sp,sp,4
   28160:	f800283a 	ret
   28164:	d80b883a 	mov	r5,sp
   28168:	303ff71e 	bne	r6,zero,28148 <__ascii_mbtowc+0xc>
   2816c:	0005883a 	mov	r2,zero
   28170:	dec00104 	addi	sp,sp,4
   28174:	f800283a 	ret
   28178:	00bfff84 	movi	r2,-2
   2817c:	003ff706 	br	2815c <__ascii_mbtowc+0x20>

00028180 <_Balloc>:
   28180:	20801117 	ldw	r2,68(r4)
   28184:	defffc04 	addi	sp,sp,-16
   28188:	dc400115 	stw	r17,4(sp)
   2818c:	dc000015 	stw	r16,0(sp)
   28190:	dfc00315 	stw	ra,12(sp)
   28194:	dc800215 	stw	r18,8(sp)
   28198:	2021883a 	mov	r16,r4
   2819c:	2823883a 	mov	r17,r5
   281a0:	10000e26 	beq	r2,zero,281dc <_Balloc+0x5c>
   281a4:	880690ba 	slli	r3,r17,2
   281a8:	10c7883a 	add	r3,r2,r3
   281ac:	18800017 	ldw	r2,0(r3)
   281b0:	10001126 	beq	r2,zero,281f8 <_Balloc+0x78>
   281b4:	11000017 	ldw	r4,0(r2)
   281b8:	19000015 	stw	r4,0(r3)
   281bc:	10000415 	stw	zero,16(r2)
   281c0:	10000315 	stw	zero,12(r2)
   281c4:	dfc00317 	ldw	ra,12(sp)
   281c8:	dc800217 	ldw	r18,8(sp)
   281cc:	dc400117 	ldw	r17,4(sp)
   281d0:	dc000017 	ldw	r16,0(sp)
   281d4:	dec00404 	addi	sp,sp,16
   281d8:	f800283a 	ret
   281dc:	01800844 	movi	r6,33
   281e0:	01400104 	movi	r5,4
   281e4:	002a2400 	call	2a240 <_calloc_r>
   281e8:	80801115 	stw	r2,68(r16)
   281ec:	103fed1e 	bne	r2,zero,281a4 <_Balloc+0x24>
   281f0:	0005883a 	mov	r2,zero
   281f4:	003ff306 	br	281c4 <_Balloc+0x44>
   281f8:	04800044 	movi	r18,1
   281fc:	9464983a 	sll	r18,r18,r17
   28200:	01400044 	movi	r5,1
   28204:	8009883a 	mov	r4,r16
   28208:	91800144 	addi	r6,r18,5
   2820c:	300c90ba 	slli	r6,r6,2
   28210:	002a2400 	call	2a240 <_calloc_r>
   28214:	103ff626 	beq	r2,zero,281f0 <_Balloc+0x70>
   28218:	14400115 	stw	r17,4(r2)
   2821c:	14800215 	stw	r18,8(r2)
   28220:	003fe606 	br	281bc <_Balloc+0x3c>

00028224 <_Bfree>:
   28224:	28000726 	beq	r5,zero,28244 <_Bfree+0x20>
   28228:	28c00117 	ldw	r3,4(r5)
   2822c:	20801117 	ldw	r2,68(r4)
   28230:	180690ba 	slli	r3,r3,2
   28234:	10c5883a 	add	r2,r2,r3
   28238:	10c00017 	ldw	r3,0(r2)
   2823c:	28c00015 	stw	r3,0(r5)
   28240:	11400015 	stw	r5,0(r2)
   28244:	f800283a 	ret

00028248 <__multadd>:
   28248:	defff704 	addi	sp,sp,-36
   2824c:	dcc00315 	stw	r19,12(sp)
   28250:	2cc00417 	ldw	r19,16(r5)
   28254:	ddc00715 	stw	r23,28(sp)
   28258:	dd800615 	stw	r22,24(sp)
   2825c:	dd400515 	stw	r21,20(sp)
   28260:	dd000415 	stw	r20,16(sp)
   28264:	dc800215 	stw	r18,8(sp)
   28268:	dc400115 	stw	r17,4(sp)
   2826c:	dfc00815 	stw	ra,32(sp)
   28270:	dc000015 	stw	r16,0(sp)
   28274:	2829883a 	mov	r20,r5
   28278:	202b883a 	mov	r21,r4
   2827c:	3025883a 	mov	r18,r6
   28280:	3823883a 	mov	r17,r7
   28284:	2d800504 	addi	r22,r5,20
   28288:	002f883a 	mov	r23,zero
   2828c:	b4000017 	ldw	r16,0(r22)
   28290:	900b883a 	mov	r5,r18
   28294:	b5800104 	addi	r22,r22,4
   28298:	813fffcc 	andi	r4,r16,65535
   2829c:	002b47c0 	call	2b47c <__mulsi3>
   282a0:	8008d43a 	srli	r4,r16,16
   282a4:	900b883a 	mov	r5,r18
   282a8:	1461883a 	add	r16,r2,r17
   282ac:	002b47c0 	call	2b47c <__mulsi3>
   282b0:	8006d43a 	srli	r3,r16,16
   282b4:	843fffcc 	andi	r16,r16,65535
   282b8:	bdc00044 	addi	r23,r23,1
   282bc:	10c5883a 	add	r2,r2,r3
   282c0:	1006943a 	slli	r3,r2,16
   282c4:	1022d43a 	srli	r17,r2,16
   282c8:	1c05883a 	add	r2,r3,r16
   282cc:	b0bfff15 	stw	r2,-4(r22)
   282d0:	bcffee16 	blt	r23,r19,2828c <__multadd+0x44>
   282d4:	88000826 	beq	r17,zero,282f8 <__multadd+0xb0>
   282d8:	a0800217 	ldw	r2,8(r20)
   282dc:	9880120e 	bge	r19,r2,28328 <__multadd+0xe0>
   282e0:	98800144 	addi	r2,r19,5
   282e4:	100490ba 	slli	r2,r2,2
   282e8:	9cc00044 	addi	r19,r19,1
   282ec:	a085883a 	add	r2,r20,r2
   282f0:	14400015 	stw	r17,0(r2)
   282f4:	a4c00415 	stw	r19,16(r20)
   282f8:	a005883a 	mov	r2,r20
   282fc:	dfc00817 	ldw	ra,32(sp)
   28300:	ddc00717 	ldw	r23,28(sp)
   28304:	dd800617 	ldw	r22,24(sp)
   28308:	dd400517 	ldw	r21,20(sp)
   2830c:	dd000417 	ldw	r20,16(sp)
   28310:	dcc00317 	ldw	r19,12(sp)
   28314:	dc800217 	ldw	r18,8(sp)
   28318:	dc400117 	ldw	r17,4(sp)
   2831c:	dc000017 	ldw	r16,0(sp)
   28320:	dec00904 	addi	sp,sp,36
   28324:	f800283a 	ret
   28328:	a1400117 	ldw	r5,4(r20)
   2832c:	a809883a 	mov	r4,r21
   28330:	29400044 	addi	r5,r5,1
   28334:	00281800 	call	28180 <_Balloc>
   28338:	1021883a 	mov	r16,r2
   2833c:	10001026 	beq	r2,zero,28380 <__multadd+0x138>
   28340:	a1800417 	ldw	r6,16(r20)
   28344:	a1400304 	addi	r5,r20,12
   28348:	11000304 	addi	r4,r2,12
   2834c:	31800084 	addi	r6,r6,2
   28350:	300c90ba 	slli	r6,r6,2
   28354:	002539c0 	call	2539c <memcpy>
   28358:	a0000726 	beq	r20,zero,28378 <__multadd+0x130>
   2835c:	a0c00117 	ldw	r3,4(r20)
   28360:	a8801117 	ldw	r2,68(r21)
   28364:	180690ba 	slli	r3,r3,2
   28368:	10c5883a 	add	r2,r2,r3
   2836c:	10c00017 	ldw	r3,0(r2)
   28370:	a0c00015 	stw	r3,0(r20)
   28374:	15000015 	stw	r20,0(r2)
   28378:	8029883a 	mov	r20,r16
   2837c:	003fd806 	br	282e0 <__multadd+0x98>
   28380:	01c000f4 	movhi	r7,3
   28384:	010000f4 	movhi	r4,3
   28388:	39c13d04 	addi	r7,r7,1268
   2838c:	000d883a 	mov	r6,zero
   28390:	01402e84 	movi	r5,186
   28394:	21015004 	addi	r4,r4,1344
   28398:	002a1c80 	call	2a1c8 <__assert_func>

0002839c <__s2b>:
   2839c:	defff904 	addi	sp,sp,-28
   283a0:	dc800215 	stw	r18,8(sp)
   283a4:	dc000015 	stw	r16,0(sp)
   283a8:	2025883a 	mov	r18,r4
   283ac:	2821883a 	mov	r16,r5
   283b0:	39000204 	addi	r4,r7,8
   283b4:	01400244 	movi	r5,9
   283b8:	dcc00315 	stw	r19,12(sp)
   283bc:	dc400115 	stw	r17,4(sp)
   283c0:	dfc00615 	stw	ra,24(sp)
   283c4:	3823883a 	mov	r17,r7
   283c8:	dd400515 	stw	r21,20(sp)
   283cc:	dd000415 	stw	r20,16(sp)
   283d0:	3027883a 	mov	r19,r6
   283d4:	002074c0 	call	2074c <__divsi3>
   283d8:	88c00290 	cmplti	r3,r17,10
   283dc:	1800341e 	bne	r3,zero,284b0 <__s2b+0x114>
   283e0:	00c00044 	movi	r3,1
   283e4:	000b883a 	mov	r5,zero
   283e8:	18c7883a 	add	r3,r3,r3
   283ec:	29400044 	addi	r5,r5,1
   283f0:	18bffd16 	blt	r3,r2,283e8 <__s2b+0x4c>
   283f4:	9009883a 	mov	r4,r18
   283f8:	00281800 	call	28180 <_Balloc>
   283fc:	100b883a 	mov	r5,r2
   28400:	10002d26 	beq	r2,zero,284b8 <__s2b+0x11c>
   28404:	d8800717 	ldw	r2,28(sp)
   28408:	28800515 	stw	r2,20(r5)
   2840c:	00800044 	movi	r2,1
   28410:	28800415 	stw	r2,16(r5)
   28414:	98800290 	cmplti	r2,r19,10
   28418:	1000221e 	bne	r2,zero,284a4 <__s2b+0x108>
   2841c:	85400244 	addi	r21,r16,9
   28420:	a829883a 	mov	r20,r21
   28424:	84e1883a 	add	r16,r16,r19
   28428:	a1c00007 	ldb	r7,0(r20)
   2842c:	01800284 	movi	r6,10
   28430:	9009883a 	mov	r4,r18
   28434:	39fff404 	addi	r7,r7,-48
   28438:	00282480 	call	28248 <__multadd>
   2843c:	a5000044 	addi	r20,r20,1
   28440:	100b883a 	mov	r5,r2
   28444:	a43ff81e 	bne	r20,r16,28428 <__s2b+0x8c>
   28448:	9c3ffe04 	addi	r16,r19,-8
   2844c:	ac21883a 	add	r16,r21,r16
   28450:	9c400a0e 	bge	r19,r17,2847c <__s2b+0xe0>
   28454:	8ce3c83a 	sub	r17,r17,r19
   28458:	8463883a 	add	r17,r16,r17
   2845c:	81c00007 	ldb	r7,0(r16)
   28460:	01800284 	movi	r6,10
   28464:	9009883a 	mov	r4,r18
   28468:	39fff404 	addi	r7,r7,-48
   2846c:	00282480 	call	28248 <__multadd>
   28470:	84000044 	addi	r16,r16,1
   28474:	100b883a 	mov	r5,r2
   28478:	8c3ff81e 	bne	r17,r16,2845c <__s2b+0xc0>
   2847c:	2805883a 	mov	r2,r5
   28480:	dfc00617 	ldw	ra,24(sp)
   28484:	dd400517 	ldw	r21,20(sp)
   28488:	dd000417 	ldw	r20,16(sp)
   2848c:	dcc00317 	ldw	r19,12(sp)
   28490:	dc800217 	ldw	r18,8(sp)
   28494:	dc400117 	ldw	r17,4(sp)
   28498:	dc000017 	ldw	r16,0(sp)
   2849c:	dec00704 	addi	sp,sp,28
   284a0:	f800283a 	ret
   284a4:	84000284 	addi	r16,r16,10
   284a8:	04c00244 	movi	r19,9
   284ac:	003fe806 	br	28450 <__s2b+0xb4>
   284b0:	000b883a 	mov	r5,zero
   284b4:	003fcf06 	br	283f4 <__s2b+0x58>
   284b8:	01c000f4 	movhi	r7,3
   284bc:	010000f4 	movhi	r4,3
   284c0:	39c13d04 	addi	r7,r7,1268
   284c4:	000d883a 	mov	r6,zero
   284c8:	014034c4 	movi	r5,211
   284cc:	21015004 	addi	r4,r4,1344
   284d0:	002a1c80 	call	2a1c8 <__assert_func>

000284d4 <__hi0bits>:
   284d4:	00bfffd4 	movui	r2,65535
   284d8:	11001536 	bltu	r2,r4,28530 <__hi0bits+0x5c>
   284dc:	2008943a 	slli	r4,r4,16
   284e0:	00800404 	movi	r2,16
   284e4:	00c04034 	movhi	r3,256
   284e8:	20c0022e 	bgeu	r4,r3,284f4 <__hi0bits+0x20>
   284ec:	2008923a 	slli	r4,r4,8
   284f0:	10800204 	addi	r2,r2,8
   284f4:	00c40034 	movhi	r3,4096
   284f8:	20c0022e 	bgeu	r4,r3,28504 <__hi0bits+0x30>
   284fc:	2008913a 	slli	r4,r4,4
   28500:	10800104 	addi	r2,r2,4
   28504:	00d00034 	movhi	r3,16384
   28508:	20c00336 	bltu	r4,r3,28518 <__hi0bits+0x44>
   2850c:	20000716 	blt	r4,zero,2852c <__hi0bits+0x58>
   28510:	10800044 	addi	r2,r2,1
   28514:	f800283a 	ret
   28518:	200890ba 	slli	r4,r4,2
   2851c:	20000616 	blt	r4,zero,28538 <__hi0bits+0x64>
   28520:	2110002c 	andhi	r4,r4,16384
   28524:	2000061e 	bne	r4,zero,28540 <__hi0bits+0x6c>
   28528:	00800804 	movi	r2,32
   2852c:	f800283a 	ret
   28530:	0005883a 	mov	r2,zero
   28534:	003feb06 	br	284e4 <__hi0bits+0x10>
   28538:	10800084 	addi	r2,r2,2
   2853c:	f800283a 	ret
   28540:	108000c4 	addi	r2,r2,3
   28544:	f800283a 	ret

00028548 <__lo0bits>:
   28548:	20c00017 	ldw	r3,0(r4)
   2854c:	188001cc 	andi	r2,r3,7
   28550:	10000826 	beq	r2,zero,28574 <__lo0bits+0x2c>
   28554:	1880004c 	andi	r2,r3,1
   28558:	10001f1e 	bne	r2,zero,285d8 <__lo0bits+0x90>
   2855c:	1880008c 	andi	r2,r3,2
   28560:	10002126 	beq	r2,zero,285e8 <__lo0bits+0xa0>
   28564:	1806d07a 	srli	r3,r3,1
   28568:	00800044 	movi	r2,1
   2856c:	20c00015 	stw	r3,0(r4)
   28570:	f800283a 	ret
   28574:	18bfffcc 	andi	r2,r3,65535
   28578:	10001426 	beq	r2,zero,285cc <__lo0bits+0x84>
   2857c:	0005883a 	mov	r2,zero
   28580:	19403fcc 	andi	r5,r3,255
   28584:	2800021e 	bne	r5,zero,28590 <__lo0bits+0x48>
   28588:	1806d23a 	srli	r3,r3,8
   2858c:	10800204 	addi	r2,r2,8
   28590:	194003cc 	andi	r5,r3,15
   28594:	2800021e 	bne	r5,zero,285a0 <__lo0bits+0x58>
   28598:	1806d13a 	srli	r3,r3,4
   2859c:	10800104 	addi	r2,r2,4
   285a0:	194000cc 	andi	r5,r3,3
   285a4:	2800021e 	bne	r5,zero,285b0 <__lo0bits+0x68>
   285a8:	1806d0ba 	srli	r3,r3,2
   285ac:	10800084 	addi	r2,r2,2
   285b0:	1940004c 	andi	r5,r3,1
   285b4:	2800031e 	bne	r5,zero,285c4 <__lo0bits+0x7c>
   285b8:	1806d07a 	srli	r3,r3,1
   285bc:	10800044 	addi	r2,r2,1
   285c0:	18000726 	beq	r3,zero,285e0 <__lo0bits+0x98>
   285c4:	20c00015 	stw	r3,0(r4)
   285c8:	f800283a 	ret
   285cc:	1806d43a 	srli	r3,r3,16
   285d0:	00800404 	movi	r2,16
   285d4:	003fea06 	br	28580 <__lo0bits+0x38>
   285d8:	0005883a 	mov	r2,zero
   285dc:	f800283a 	ret
   285e0:	00800804 	movi	r2,32
   285e4:	f800283a 	ret
   285e8:	1806d0ba 	srli	r3,r3,2
   285ec:	00800084 	movi	r2,2
   285f0:	20c00015 	stw	r3,0(r4)
   285f4:	f800283a 	ret

000285f8 <__i2b>:
   285f8:	20c01117 	ldw	r3,68(r4)
   285fc:	defffd04 	addi	sp,sp,-12
   28600:	dc400115 	stw	r17,4(sp)
   28604:	dc000015 	stw	r16,0(sp)
   28608:	dfc00215 	stw	ra,8(sp)
   2860c:	2021883a 	mov	r16,r4
   28610:	2823883a 	mov	r17,r5
   28614:	18000d26 	beq	r3,zero,2864c <__i2b+0x54>
   28618:	18800117 	ldw	r2,4(r3)
   2861c:	10001826 	beq	r2,zero,28680 <__i2b+0x88>
   28620:	11000017 	ldw	r4,0(r2)
   28624:	19000115 	stw	r4,4(r3)
   28628:	00c00044 	movi	r3,1
   2862c:	10000315 	stw	zero,12(r2)
   28630:	14400515 	stw	r17,20(r2)
   28634:	10c00415 	stw	r3,16(r2)
   28638:	dfc00217 	ldw	ra,8(sp)
   2863c:	dc400117 	ldw	r17,4(sp)
   28640:	dc000017 	ldw	r16,0(sp)
   28644:	dec00304 	addi	sp,sp,12
   28648:	f800283a 	ret
   2864c:	01800844 	movi	r6,33
   28650:	01400104 	movi	r5,4
   28654:	002a2400 	call	2a240 <_calloc_r>
   28658:	80801115 	stw	r2,68(r16)
   2865c:	1007883a 	mov	r3,r2
   28660:	103fed1e 	bne	r2,zero,28618 <__i2b+0x20>
   28664:	01c000f4 	movhi	r7,3
   28668:	010000f4 	movhi	r4,3
   2866c:	39c13d04 	addi	r7,r7,1268
   28670:	000d883a 	mov	r6,zero
   28674:	01405144 	movi	r5,325
   28678:	21015004 	addi	r4,r4,1344
   2867c:	002a1c80 	call	2a1c8 <__assert_func>
   28680:	01800704 	movi	r6,28
   28684:	01400044 	movi	r5,1
   28688:	8009883a 	mov	r4,r16
   2868c:	002a2400 	call	2a240 <_calloc_r>
   28690:	103ff426 	beq	r2,zero,28664 <__i2b+0x6c>
   28694:	00c00044 	movi	r3,1
   28698:	10c00115 	stw	r3,4(r2)
   2869c:	00c00084 	movi	r3,2
   286a0:	10c00215 	stw	r3,8(r2)
   286a4:	003fe006 	br	28628 <__i2b+0x30>

000286a8 <__multiply>:
   286a8:	defff004 	addi	sp,sp,-64
   286ac:	dd800c15 	stw	r22,48(sp)
   286b0:	dc400715 	stw	r17,28(sp)
   286b4:	2d800417 	ldw	r22,16(r5)
   286b8:	34400417 	ldw	r17,16(r6)
   286bc:	dc800815 	stw	r18,32(sp)
   286c0:	dc000615 	stw	r16,24(sp)
   286c4:	dfc00f15 	stw	ra,60(sp)
   286c8:	df000e15 	stw	fp,56(sp)
   286cc:	ddc00d15 	stw	r23,52(sp)
   286d0:	dd400b15 	stw	r21,44(sp)
   286d4:	dd000a15 	stw	r20,40(sp)
   286d8:	dcc00915 	stw	r19,36(sp)
   286dc:	2825883a 	mov	r18,r5
   286e0:	3021883a 	mov	r16,r6
   286e4:	b4400516 	blt	r22,r17,286fc <__multiply+0x54>
   286e8:	8807883a 	mov	r3,r17
   286ec:	2821883a 	mov	r16,r5
   286f0:	b023883a 	mov	r17,r22
   286f4:	3025883a 	mov	r18,r6
   286f8:	182d883a 	mov	r22,r3
   286fc:	80800217 	ldw	r2,8(r16)
   28700:	8d87883a 	add	r3,r17,r22
   28704:	d8c00115 	stw	r3,4(sp)
   28708:	81400117 	ldw	r5,4(r16)
   2870c:	10c0010e 	bge	r2,r3,28714 <__multiply+0x6c>
   28710:	29400044 	addi	r5,r5,1
   28714:	00281800 	call	28180 <_Balloc>
   28718:	d8800515 	stw	r2,20(sp)
   2871c:	10008526 	beq	r2,zero,28934 <__multiply+0x28c>
   28720:	d8800117 	ldw	r2,4(sp)
   28724:	102690ba 	slli	r19,r2,2
   28728:	d8800517 	ldw	r2,20(sp)
   2872c:	10c00504 	addi	r3,r2,20
   28730:	d8c00015 	stw	r3,0(sp)
   28734:	1ce7883a 	add	r19,r3,r19
   28738:	1805883a 	mov	r2,r3
   2873c:	1cc0032e 	bgeu	r3,r19,2874c <__multiply+0xa4>
   28740:	10000015 	stw	zero,0(r2)
   28744:	10800104 	addi	r2,r2,4
   28748:	14fffd36 	bltu	r2,r19,28740 <__multiply+0x98>
   2874c:	b02c90ba 	slli	r22,r22,2
   28750:	882290ba 	slli	r17,r17,2
   28754:	94800504 	addi	r18,r18,20
   28758:	80800504 	addi	r2,r16,20
   2875c:	9587883a 	add	r3,r18,r22
   28760:	d8800315 	stw	r2,12(sp)
   28764:	d8c00215 	stw	r3,8(sp)
   28768:	1463883a 	add	r17,r2,r17
   2876c:	90c0552e 	bgeu	r18,r3,288c4 <__multiply+0x21c>
   28770:	80800544 	addi	r2,r16,21
   28774:	88806c36 	bltu	r17,r2,28928 <__multiply+0x280>
   28778:	8c05c83a 	sub	r2,r17,r16
   2877c:	10bffac4 	addi	r2,r2,-21
   28780:	1004d0ba 	srli	r2,r2,2
   28784:	10800044 	addi	r2,r2,1
   28788:	100490ba 	slli	r2,r2,2
   2878c:	d8800415 	stw	r2,16(sp)
   28790:	00000806 	br	287b4 <__multiply+0x10c>
   28794:	1038d43a 	srli	fp,r2,16
   28798:	e0002a1e 	bne	fp,zero,28844 <__multiply+0x19c>
   2879c:	d8800017 	ldw	r2,0(sp)
   287a0:	94800104 	addi	r18,r18,4
   287a4:	10800104 	addi	r2,r2,4
   287a8:	d8800015 	stw	r2,0(sp)
   287ac:	d8800217 	ldw	r2,8(sp)
   287b0:	9080442e 	bgeu	r18,r2,288c4 <__multiply+0x21c>
   287b4:	90800017 	ldw	r2,0(r18)
   287b8:	173fffcc 	andi	fp,r2,65535
   287bc:	e03ff526 	beq	fp,zero,28794 <__multiply+0xec>
   287c0:	dd800017 	ldw	r22,0(sp)
   287c4:	dd400317 	ldw	r21,12(sp)
   287c8:	0029883a 	mov	r20,zero
   287cc:	adc00017 	ldw	r23,0(r21)
   287d0:	b4000017 	ldw	r16,0(r22)
   287d4:	e00b883a 	mov	r5,fp
   287d8:	b93fffcc 	andi	r4,r23,65535
   287dc:	002b47c0 	call	2b47c <__mulsi3>
   287e0:	b808d43a 	srli	r4,r23,16
   287e4:	817fffcc 	andi	r5,r16,65535
   287e8:	1145883a 	add	r2,r2,r5
   287ec:	e00b883a 	mov	r5,fp
   287f0:	1529883a 	add	r20,r2,r20
   287f4:	8020d43a 	srli	r16,r16,16
   287f8:	002b47c0 	call	2b47c <__mulsi3>
   287fc:	a008d43a 	srli	r4,r20,16
   28800:	1405883a 	add	r2,r2,r16
   28804:	a0ffffcc 	andi	r3,r20,65535
   28808:	1105883a 	add	r2,r2,r4
   2880c:	1008943a 	slli	r4,r2,16
   28810:	b5800104 	addi	r22,r22,4
   28814:	ad400104 	addi	r21,r21,4
   28818:	20c6b03a 	or	r3,r4,r3
   2881c:	b0ffff15 	stw	r3,-4(r22)
   28820:	1028d43a 	srli	r20,r2,16
   28824:	ac7fe936 	bltu	r21,r17,287cc <__multiply+0x124>
   28828:	d8800017 	ldw	r2,0(sp)
   2882c:	d8c00417 	ldw	r3,16(sp)
   28830:	10c5883a 	add	r2,r2,r3
   28834:	15000015 	stw	r20,0(r2)
   28838:	90800017 	ldw	r2,0(r18)
   2883c:	1038d43a 	srli	fp,r2,16
   28840:	e03fd626 	beq	fp,zero,2879c <__multiply+0xf4>
   28844:	dd000017 	ldw	r20,0(sp)
   28848:	dd400317 	ldw	r21,12(sp)
   2884c:	002d883a 	mov	r22,zero
   28850:	a5c00017 	ldw	r23,0(r20)
   28854:	b821883a 	mov	r16,r23
   28858:	a900000b 	ldhu	r4,0(r21)
   2885c:	8020d43a 	srli	r16,r16,16
   28860:	e00b883a 	mov	r5,fp
   28864:	002b47c0 	call	2b47c <__mulsi3>
   28868:	158d883a 	add	r6,r2,r22
   2886c:	342d883a 	add	r22,r6,r16
   28870:	b004943a 	slli	r2,r22,16
   28874:	b8ffffcc 	andi	r3,r23,65535
   28878:	ad400104 	addi	r21,r21,4
   2887c:	10c4b03a 	or	r2,r2,r3
   28880:	a0800015 	stw	r2,0(r20)
   28884:	a93fff8b 	ldhu	r4,-2(r21)
   28888:	e00b883a 	mov	r5,fp
   2888c:	a4000117 	ldw	r16,4(r20)
   28890:	002b47c0 	call	2b47c <__mulsi3>
   28894:	b00cd43a 	srli	r6,r22,16
   28898:	80ffffcc 	andi	r3,r16,65535
   2889c:	10c7883a 	add	r3,r2,r3
   288a0:	19af883a 	add	r23,r3,r6
   288a4:	a5000104 	addi	r20,r20,4
   288a8:	b82cd43a 	srli	r22,r23,16
   288ac:	ac7fea36 	bltu	r21,r17,28858 <__multiply+0x1b0>
   288b0:	d8800017 	ldw	r2,0(sp)
   288b4:	d8c00417 	ldw	r3,16(sp)
   288b8:	10c5883a 	add	r2,r2,r3
   288bc:	15c00015 	stw	r23,0(r2)
   288c0:	003fb606 	br	2879c <__multiply+0xf4>
   288c4:	d8800117 	ldw	r2,4(sp)
   288c8:	00800516 	blt	zero,r2,288e0 <__multiply+0x238>
   288cc:	00000706 	br	288ec <__multiply+0x244>
   288d0:	d8800117 	ldw	r2,4(sp)
   288d4:	10bfffc4 	addi	r2,r2,-1
   288d8:	d8800115 	stw	r2,4(sp)
   288dc:	10000326 	beq	r2,zero,288ec <__multiply+0x244>
   288e0:	98bfff17 	ldw	r2,-4(r19)
   288e4:	9cffff04 	addi	r19,r19,-4
   288e8:	103ff926 	beq	r2,zero,288d0 <__multiply+0x228>
   288ec:	d8800517 	ldw	r2,20(sp)
   288f0:	d8c00117 	ldw	r3,4(sp)
   288f4:	10c00415 	stw	r3,16(r2)
   288f8:	dfc00f17 	ldw	ra,60(sp)
   288fc:	df000e17 	ldw	fp,56(sp)
   28900:	ddc00d17 	ldw	r23,52(sp)
   28904:	dd800c17 	ldw	r22,48(sp)
   28908:	dd400b17 	ldw	r21,44(sp)
   2890c:	dd000a17 	ldw	r20,40(sp)
   28910:	dcc00917 	ldw	r19,36(sp)
   28914:	dc800817 	ldw	r18,32(sp)
   28918:	dc400717 	ldw	r17,28(sp)
   2891c:	dc000617 	ldw	r16,24(sp)
   28920:	dec01004 	addi	sp,sp,64
   28924:	f800283a 	ret
   28928:	00800104 	movi	r2,4
   2892c:	d8800415 	stw	r2,16(sp)
   28930:	003fa006 	br	287b4 <__multiply+0x10c>
   28934:	01c000f4 	movhi	r7,3
   28938:	010000f4 	movhi	r4,3
   2893c:	39c13d04 	addi	r7,r7,1268
   28940:	000d883a 	mov	r6,zero
   28944:	01405884 	movi	r5,354
   28948:	21015004 	addi	r4,r4,1344
   2894c:	002a1c80 	call	2a1c8 <__assert_func>

00028950 <__pow5mult>:
   28950:	defffb04 	addi	sp,sp,-20
   28954:	dcc00315 	stw	r19,12(sp)
   28958:	dc000015 	stw	r16,0(sp)
   2895c:	dfc00415 	stw	ra,16(sp)
   28960:	dc800215 	stw	r18,8(sp)
   28964:	dc400115 	stw	r17,4(sp)
   28968:	308000cc 	andi	r2,r6,3
   2896c:	3021883a 	mov	r16,r6
   28970:	2027883a 	mov	r19,r4
   28974:	10002b1e 	bne	r2,zero,28a24 <__pow5mult+0xd4>
   28978:	2825883a 	mov	r18,r5
   2897c:	8021d0ba 	srai	r16,r16,2
   28980:	80001926 	beq	r16,zero,289e8 <__pow5mult+0x98>
   28984:	9c401017 	ldw	r17,64(r19)
   28988:	8800061e 	bne	r17,zero,289a4 <__pow5mult+0x54>
   2898c:	00002d06 	br	28a44 <__pow5mult+0xf4>
   28990:	8021d07a 	srai	r16,r16,1
   28994:	80001426 	beq	r16,zero,289e8 <__pow5mult+0x98>
   28998:	88800017 	ldw	r2,0(r17)
   2899c:	10001a26 	beq	r2,zero,28a08 <__pow5mult+0xb8>
   289a0:	1023883a 	mov	r17,r2
   289a4:	8080004c 	andi	r2,r16,1
   289a8:	103ff926 	beq	r2,zero,28990 <__pow5mult+0x40>
   289ac:	880d883a 	mov	r6,r17
   289b0:	900b883a 	mov	r5,r18
   289b4:	9809883a 	mov	r4,r19
   289b8:	00286a80 	call	286a8 <__multiply>
   289bc:	90000726 	beq	r18,zero,289dc <__pow5mult+0x8c>
   289c0:	91000117 	ldw	r4,4(r18)
   289c4:	98c01117 	ldw	r3,68(r19)
   289c8:	200890ba 	slli	r4,r4,2
   289cc:	1907883a 	add	r3,r3,r4
   289d0:	19000017 	ldw	r4,0(r3)
   289d4:	91000015 	stw	r4,0(r18)
   289d8:	1c800015 	stw	r18,0(r3)
   289dc:	8021d07a 	srai	r16,r16,1
   289e0:	1025883a 	mov	r18,r2
   289e4:	803fec1e 	bne	r16,zero,28998 <__pow5mult+0x48>
   289e8:	9005883a 	mov	r2,r18
   289ec:	dfc00417 	ldw	ra,16(sp)
   289f0:	dcc00317 	ldw	r19,12(sp)
   289f4:	dc800217 	ldw	r18,8(sp)
   289f8:	dc400117 	ldw	r17,4(sp)
   289fc:	dc000017 	ldw	r16,0(sp)
   28a00:	dec00504 	addi	sp,sp,20
   28a04:	f800283a 	ret
   28a08:	880d883a 	mov	r6,r17
   28a0c:	880b883a 	mov	r5,r17
   28a10:	9809883a 	mov	r4,r19
   28a14:	00286a80 	call	286a8 <__multiply>
   28a18:	88800015 	stw	r2,0(r17)
   28a1c:	10000015 	stw	zero,0(r2)
   28a20:	003fdf06 	br	289a0 <__pow5mult+0x50>
   28a24:	100490ba 	slli	r2,r2,2
   28a28:	00c000f4 	movhi	r3,3
   28a2c:	000f883a 	mov	r7,zero
   28a30:	10c7883a 	add	r3,r2,r3
   28a34:	19815d17 	ldw	r6,1396(r3)
   28a38:	00282480 	call	28248 <__multadd>
   28a3c:	1025883a 	mov	r18,r2
   28a40:	003fce06 	br	2897c <__pow5mult+0x2c>
   28a44:	01400044 	movi	r5,1
   28a48:	9809883a 	mov	r4,r19
   28a4c:	00281800 	call	28180 <_Balloc>
   28a50:	1023883a 	mov	r17,r2
   28a54:	10000726 	beq	r2,zero,28a74 <__pow5mult+0x124>
   28a58:	00809c44 	movi	r2,625
   28a5c:	88800515 	stw	r2,20(r17)
   28a60:	00800044 	movi	r2,1
   28a64:	88800415 	stw	r2,16(r17)
   28a68:	9c401015 	stw	r17,64(r19)
   28a6c:	88000015 	stw	zero,0(r17)
   28a70:	003fcc06 	br	289a4 <__pow5mult+0x54>
   28a74:	01c000f4 	movhi	r7,3
   28a78:	010000f4 	movhi	r4,3
   28a7c:	39c13d04 	addi	r7,r7,1268
   28a80:	000d883a 	mov	r6,zero
   28a84:	01405144 	movi	r5,325
   28a88:	21015004 	addi	r4,r4,1344
   28a8c:	002a1c80 	call	2a1c8 <__assert_func>

00028a90 <__lshift>:
   28a90:	defff904 	addi	sp,sp,-28
   28a94:	dd400515 	stw	r21,20(sp)
   28a98:	dc800215 	stw	r18,8(sp)
   28a9c:	302bd17a 	srai	r21,r6,5
   28aa0:	2c800417 	ldw	r18,16(r5)
   28aa4:	28800217 	ldw	r2,8(r5)
   28aa8:	dd000415 	stw	r20,16(sp)
   28aac:	aca5883a 	add	r18,r21,r18
   28ab0:	dcc00315 	stw	r19,12(sp)
   28ab4:	dc400115 	stw	r17,4(sp)
   28ab8:	dc000015 	stw	r16,0(sp)
   28abc:	dfc00615 	stw	ra,24(sp)
   28ac0:	94400044 	addi	r17,r18,1
   28ac4:	2821883a 	mov	r16,r5
   28ac8:	3029883a 	mov	r20,r6
   28acc:	29400117 	ldw	r5,4(r5)
   28ad0:	2027883a 	mov	r19,r4
   28ad4:	1440030e 	bge	r2,r17,28ae4 <__lshift+0x54>
   28ad8:	1085883a 	add	r2,r2,r2
   28adc:	29400044 	addi	r5,r5,1
   28ae0:	147ffd16 	blt	r2,r17,28ad8 <__lshift+0x48>
   28ae4:	9809883a 	mov	r4,r19
   28ae8:	00281800 	call	28180 <_Balloc>
   28aec:	10004326 	beq	r2,zero,28bfc <__lshift+0x16c>
   28af0:	12400504 	addi	r9,r2,20
   28af4:	0540090e 	bge	zero,r21,28b1c <__lshift+0x8c>
   28af8:	ad400144 	addi	r21,r21,5
   28afc:	a82a90ba 	slli	r21,r21,2
   28b00:	4807883a 	mov	r3,r9
   28b04:	1549883a 	add	r4,r2,r21
   28b08:	18c00104 	addi	r3,r3,4
   28b0c:	183fff15 	stw	zero,-4(r3)
   28b10:	193ffd1e 	bne	r3,r4,28b08 <__lshift+0x78>
   28b14:	ad7ffb04 	addi	r21,r21,-20
   28b18:	4d53883a 	add	r9,r9,r21
   28b1c:	82800417 	ldw	r10,16(r16)
   28b20:	80c00504 	addi	r3,r16,20
   28b24:	a18007cc 	andi	r6,r20,31
   28b28:	501490ba 	slli	r10,r10,2
   28b2c:	1a95883a 	add	r10,r3,r10
   28b30:	30002a26 	beq	r6,zero,28bdc <__lshift+0x14c>
   28b34:	01400804 	movi	r5,32
   28b38:	298bc83a 	sub	r5,r5,r6
   28b3c:	4809883a 	mov	r4,r9
   28b40:	0011883a 	mov	r8,zero
   28b44:	19c00017 	ldw	r7,0(r3)
   28b48:	21000104 	addi	r4,r4,4
   28b4c:	18c00104 	addi	r3,r3,4
   28b50:	398e983a 	sll	r7,r7,r6
   28b54:	3a0eb03a 	or	r7,r7,r8
   28b58:	21ffff15 	stw	r7,-4(r4)
   28b5c:	1a3fff17 	ldw	r8,-4(r3)
   28b60:	4150d83a 	srl	r8,r8,r5
   28b64:	1abff736 	bltu	r3,r10,28b44 <__lshift+0xb4>
   28b68:	80c00544 	addi	r3,r16,21
   28b6c:	50c02136 	bltu	r10,r3,28bf4 <__lshift+0x164>
   28b70:	5407c83a 	sub	r3,r10,r16
   28b74:	18fffac4 	addi	r3,r3,-21
   28b78:	1806d0ba 	srli	r3,r3,2
   28b7c:	18c00044 	addi	r3,r3,1
   28b80:	180690ba 	slli	r3,r3,2
   28b84:	48d3883a 	add	r9,r9,r3
   28b88:	4a000015 	stw	r8,0(r9)
   28b8c:	4000011e 	bne	r8,zero,28b94 <__lshift+0x104>
   28b90:	9023883a 	mov	r17,r18
   28b94:	14400415 	stw	r17,16(r2)
   28b98:	80000726 	beq	r16,zero,28bb8 <__lshift+0x128>
   28b9c:	81000117 	ldw	r4,4(r16)
   28ba0:	98c01117 	ldw	r3,68(r19)
   28ba4:	200890ba 	slli	r4,r4,2
   28ba8:	1907883a 	add	r3,r3,r4
   28bac:	19000017 	ldw	r4,0(r3)
   28bb0:	81000015 	stw	r4,0(r16)
   28bb4:	1c000015 	stw	r16,0(r3)
   28bb8:	dfc00617 	ldw	ra,24(sp)
   28bbc:	dd400517 	ldw	r21,20(sp)
   28bc0:	dd000417 	ldw	r20,16(sp)
   28bc4:	dcc00317 	ldw	r19,12(sp)
   28bc8:	dc800217 	ldw	r18,8(sp)
   28bcc:	dc400117 	ldw	r17,4(sp)
   28bd0:	dc000017 	ldw	r16,0(sp)
   28bd4:	dec00704 	addi	sp,sp,28
   28bd8:	f800283a 	ret
   28bdc:	19000017 	ldw	r4,0(r3)
   28be0:	18c00104 	addi	r3,r3,4
   28be4:	4a400104 	addi	r9,r9,4
   28be8:	493fff15 	stw	r4,-4(r9)
   28bec:	1abffb36 	bltu	r3,r10,28bdc <__lshift+0x14c>
   28bf0:	003fe706 	br	28b90 <__lshift+0x100>
   28bf4:	00c00104 	movi	r3,4
   28bf8:	003fe206 	br	28b84 <__lshift+0xf4>
   28bfc:	01c000f4 	movhi	r7,3
   28c00:	010000f4 	movhi	r4,3
   28c04:	39c13d04 	addi	r7,r7,1268
   28c08:	000d883a 	mov	r6,zero
   28c0c:	01407784 	movi	r5,478
   28c10:	21015004 	addi	r4,r4,1344
   28c14:	002a1c80 	call	2a1c8 <__assert_func>

00028c18 <__mcmp>:
   28c18:	21800417 	ldw	r6,16(r4)
   28c1c:	28c00417 	ldw	r3,16(r5)
   28c20:	30c5c83a 	sub	r2,r6,r3
   28c24:	30c0101e 	bne	r6,r3,28c68 <__mcmp+0x50>
   28c28:	180690ba 	slli	r3,r3,2
   28c2c:	21000504 	addi	r4,r4,20
   28c30:	29400504 	addi	r5,r5,20
   28c34:	20cd883a 	add	r6,r4,r3
   28c38:	28c7883a 	add	r3,r5,r3
   28c3c:	00000106 	br	28c44 <__mcmp+0x2c>
   28c40:	21800a2e 	bgeu	r4,r6,28c6c <__mcmp+0x54>
   28c44:	31ffff17 	ldw	r7,-4(r6)
   28c48:	197fff17 	ldw	r5,-4(r3)
   28c4c:	31bfff04 	addi	r6,r6,-4
   28c50:	18ffff04 	addi	r3,r3,-4
   28c54:	397ffa26 	beq	r7,r5,28c40 <__mcmp+0x28>
   28c58:	3940022e 	bgeu	r7,r5,28c64 <__mcmp+0x4c>
   28c5c:	00bfffc4 	movi	r2,-1
   28c60:	f800283a 	ret
   28c64:	00800044 	movi	r2,1
   28c68:	f800283a 	ret
   28c6c:	f800283a 	ret

00028c70 <__mdiff>:
   28c70:	28c00417 	ldw	r3,16(r5)
   28c74:	30800417 	ldw	r2,16(r6)
   28c78:	defffc04 	addi	sp,sp,-16
   28c7c:	dc800215 	stw	r18,8(sp)
   28c80:	dc400115 	stw	r17,4(sp)
   28c84:	dc000015 	stw	r16,0(sp)
   28c88:	dfc00315 	stw	ra,12(sp)
   28c8c:	2823883a 	mov	r17,r5
   28c90:	3021883a 	mov	r16,r6
   28c94:	18a5c83a 	sub	r18,r3,r2
   28c98:	1880121e 	bne	r3,r2,28ce4 <__mdiff+0x74>
   28c9c:	100c90ba 	slli	r6,r2,2
   28ca0:	29400504 	addi	r5,r5,20
   28ca4:	80c00504 	addi	r3,r16,20
   28ca8:	2985883a 	add	r2,r5,r6
   28cac:	1987883a 	add	r3,r3,r6
   28cb0:	00000106 	br	28cb8 <__mdiff+0x48>
   28cb4:	28805f2e 	bgeu	r5,r2,28e34 <__mdiff+0x1c4>
   28cb8:	11ffff17 	ldw	r7,-4(r2)
   28cbc:	19bfff17 	ldw	r6,-4(r3)
   28cc0:	10bfff04 	addi	r2,r2,-4
   28cc4:	18ffff04 	addi	r3,r3,-4
   28cc8:	39bffa26 	beq	r7,r6,28cb4 <__mdiff+0x44>
   28ccc:	3980072e 	bgeu	r7,r6,28cec <__mdiff+0x7c>
   28cd0:	8805883a 	mov	r2,r17
   28cd4:	04800044 	movi	r18,1
   28cd8:	8023883a 	mov	r17,r16
   28cdc:	1021883a 	mov	r16,r2
   28ce0:	00000206 	br	28cec <__mdiff+0x7c>
   28ce4:	903ffa16 	blt	r18,zero,28cd0 <__mdiff+0x60>
   28ce8:	0025883a 	mov	r18,zero
   28cec:	89400117 	ldw	r5,4(r17)
   28cf0:	00281800 	call	28180 <_Balloc>
   28cf4:	10006326 	beq	r2,zero,28e84 <__mdiff+0x214>
   28cf8:	8a400417 	ldw	r9,16(r17)
   28cfc:	83800417 	ldw	r14,16(r16)
   28d00:	89400504 	addi	r5,r17,20
   28d04:	481490ba 	slli	r10,r9,2
   28d08:	701c90ba 	slli	r14,r14,2
   28d0c:	81800504 	addi	r6,r16,20
   28d10:	13400504 	addi	r13,r2,20
   28d14:	14800315 	stw	r18,12(r2)
   28d18:	2a95883a 	add	r10,r5,r10
   28d1c:	339d883a 	add	r14,r6,r14
   28d20:	6819883a 	mov	r12,r13
   28d24:	2817883a 	mov	r11,r5
   28d28:	000f883a 	mov	r7,zero
   28d2c:	59000017 	ldw	r4,0(r11)
   28d30:	32000017 	ldw	r8,0(r6)
   28d34:	63000104 	addi	r12,r12,4
   28d38:	20ffffcc 	andi	r3,r4,65535
   28d3c:	43ffffcc 	andi	r15,r8,65535
   28d40:	1bc7c83a 	sub	r3,r3,r15
   28d44:	4010d43a 	srli	r8,r8,16
   28d48:	19c7883a 	add	r3,r3,r7
   28d4c:	2008d43a 	srli	r4,r4,16
   28d50:	180fd43a 	srai	r7,r3,16
   28d54:	18ffffcc 	andi	r3,r3,65535
   28d58:	2209c83a 	sub	r4,r4,r8
   28d5c:	21c9883a 	add	r4,r4,r7
   28d60:	2010943a 	slli	r8,r4,16
   28d64:	31800104 	addi	r6,r6,4
   28d68:	200fd43a 	srai	r7,r4,16
   28d6c:	1a06b03a 	or	r3,r3,r8
   28d70:	60ffff15 	stw	r3,-4(r12)
   28d74:	5ac00104 	addi	r11,r11,4
   28d78:	33bfec36 	bltu	r6,r14,28d2c <__mdiff+0xbc>
   28d7c:	7409c83a 	sub	r4,r14,r16
   28d80:	213ffac4 	addi	r4,r4,-21
   28d84:	84000544 	addi	r16,r16,21
   28d88:	200cd0ba 	srli	r6,r4,2
   28d8c:	74002736 	bltu	r14,r16,28e2c <__mdiff+0x1bc>
   28d90:	31000044 	addi	r4,r6,1
   28d94:	200890ba 	slli	r4,r4,2
   28d98:	290b883a 	add	r5,r5,r4
   28d9c:	6911883a 	add	r8,r13,r4
   28da0:	2a802b2e 	bgeu	r5,r10,28e50 <__mdiff+0x1e0>
   28da4:	4017883a 	mov	r11,r8
   28da8:	280d883a 	mov	r6,r5
   28dac:	30c00017 	ldw	r3,0(r6)
   28db0:	5ac00104 	addi	r11,r11,4
   28db4:	31800104 	addi	r6,r6,4
   28db8:	193fffcc 	andi	r4,r3,65535
   28dbc:	21c9883a 	add	r4,r4,r7
   28dc0:	1818d43a 	srli	r12,r3,16
   28dc4:	2009d43a 	srai	r4,r4,16
   28dc8:	19c7883a 	add	r3,r3,r7
   28dcc:	18ffffcc 	andi	r3,r3,65535
   28dd0:	2309883a 	add	r4,r4,r12
   28dd4:	2018943a 	slli	r12,r4,16
   28dd8:	200fd43a 	srai	r7,r4,16
   28ddc:	1b06b03a 	or	r3,r3,r12
   28de0:	58ffff15 	stw	r3,-4(r11)
   28de4:	32bff136 	bltu	r6,r10,28dac <__mdiff+0x13c>
   28de8:	513fffc4 	addi	r4,r10,-1
   28dec:	2149c83a 	sub	r4,r4,r5
   28df0:	2008d0ba 	srli	r4,r4,2
   28df4:	200890ba 	slli	r4,r4,2
   28df8:	4109883a 	add	r4,r8,r4
   28dfc:	1800041e 	bne	r3,zero,28e10 <__mdiff+0x1a0>
   28e00:	20ffff17 	ldw	r3,-4(r4)
   28e04:	4a7fffc4 	addi	r9,r9,-1
   28e08:	213fff04 	addi	r4,r4,-4
   28e0c:	183ffc26 	beq	r3,zero,28e00 <__mdiff+0x190>
   28e10:	12400415 	stw	r9,16(r2)
   28e14:	dfc00317 	ldw	ra,12(sp)
   28e18:	dc800217 	ldw	r18,8(sp)
   28e1c:	dc400117 	ldw	r17,4(sp)
   28e20:	dc000017 	ldw	r16,0(sp)
   28e24:	dec00404 	addi	sp,sp,16
   28e28:	f800283a 	ret
   28e2c:	01000104 	movi	r4,4
   28e30:	003fd906 	br	28d98 <__mdiff+0x128>
   28e34:	000b883a 	mov	r5,zero
   28e38:	00281800 	call	28180 <_Balloc>
   28e3c:	10000a26 	beq	r2,zero,28e68 <__mdiff+0x1f8>
   28e40:	00c00044 	movi	r3,1
   28e44:	10c00415 	stw	r3,16(r2)
   28e48:	10000515 	stw	zero,20(r2)
   28e4c:	003ff106 	br	28e14 <__mdiff+0x1a4>
   28e50:	74000336 	bltu	r14,r16,28e60 <__mdiff+0x1f0>
   28e54:	300890ba 	slli	r4,r6,2
   28e58:	6909883a 	add	r4,r13,r4
   28e5c:	003fe706 	br	28dfc <__mdiff+0x18c>
   28e60:	0009883a 	mov	r4,zero
   28e64:	003ffc06 	br	28e58 <__mdiff+0x1e8>
   28e68:	01c000f4 	movhi	r7,3
   28e6c:	010000f4 	movhi	r4,3
   28e70:	39c13d04 	addi	r7,r7,1268
   28e74:	000d883a 	mov	r6,zero
   28e78:	01408dc4 	movi	r5,567
   28e7c:	21015004 	addi	r4,r4,1344
   28e80:	002a1c80 	call	2a1c8 <__assert_func>
   28e84:	01c000f4 	movhi	r7,3
   28e88:	010000f4 	movhi	r4,3
   28e8c:	39c13d04 	addi	r7,r7,1268
   28e90:	000d883a 	mov	r6,zero
   28e94:	01409144 	movi	r5,581
   28e98:	21015004 	addi	r4,r4,1344
   28e9c:	002a1c80 	call	2a1c8 <__assert_func>

00028ea0 <__ulp>:
   28ea0:	28dffc2c 	andhi	r3,r5,32752
   28ea4:	00bf3034 	movhi	r2,64704
   28ea8:	1887883a 	add	r3,r3,r2
   28eac:	00c0020e 	bge	zero,r3,28eb8 <__ulp+0x18>
   28eb0:	0005883a 	mov	r2,zero
   28eb4:	f800283a 	ret
   28eb8:	00c7c83a 	sub	r3,zero,r3
   28ebc:	1807d53a 	srai	r3,r3,20
   28ec0:	18800508 	cmpgei	r2,r3,20
   28ec4:	1000041e 	bne	r2,zero,28ed8 <__ulp+0x38>
   28ec8:	00800234 	movhi	r2,8
   28ecc:	10c7d83a 	sra	r3,r2,r3
   28ed0:	0005883a 	mov	r2,zero
   28ed4:	f800283a 	ret
   28ed8:	18fffb04 	addi	r3,r3,-20
   28edc:	188007c8 	cmpgei	r2,r3,31
   28ee0:	10000326 	beq	r2,zero,28ef0 <__ulp+0x50>
   28ee4:	00800044 	movi	r2,1
   28ee8:	0007883a 	mov	r3,zero
   28eec:	f800283a 	ret
   28ef0:	00a00034 	movhi	r2,32768
   28ef4:	10c4d83a 	srl	r2,r2,r3
   28ef8:	0007883a 	mov	r3,zero
   28efc:	f800283a 	ret

00028f00 <__b2d>:
   28f00:	defffa04 	addi	sp,sp,-24
   28f04:	dc400115 	stw	r17,4(sp)
   28f08:	24400417 	ldw	r17,16(r4)
   28f0c:	dc000015 	stw	r16,0(sp)
   28f10:	24000504 	addi	r16,r4,20
   28f14:	882290ba 	slli	r17,r17,2
   28f18:	dc800215 	stw	r18,8(sp)
   28f1c:	dd000415 	stw	r20,16(sp)
   28f20:	8463883a 	add	r17,r16,r17
   28f24:	8cbfff17 	ldw	r18,-4(r17)
   28f28:	dcc00315 	stw	r19,12(sp)
   28f2c:	dfc00515 	stw	ra,20(sp)
   28f30:	9009883a 	mov	r4,r18
   28f34:	2827883a 	mov	r19,r5
   28f38:	00284d40 	call	284d4 <__hi0bits>
   28f3c:	00c00804 	movi	r3,32
   28f40:	1889c83a 	sub	r4,r3,r2
   28f44:	99000015 	stw	r4,0(r19)
   28f48:	110002c8 	cmpgei	r4,r2,11
   28f4c:	8d3fff04 	addi	r20,r17,-4
   28f50:	20001b26 	beq	r4,zero,28fc0 <__b2d+0xc0>
   28f54:	117ffd44 	addi	r5,r2,-11
   28f58:	85000e2e 	bgeu	r16,r20,28f94 <__b2d+0x94>
   28f5c:	88bffe17 	ldw	r2,-8(r17)
   28f60:	28000e26 	beq	r5,zero,28f9c <__b2d+0x9c>
   28f64:	1949c83a 	sub	r4,r3,r5
   28f68:	1106d83a 	srl	r3,r2,r4
   28f6c:	9164983a 	sll	r18,r18,r5
   28f70:	89bffe04 	addi	r6,r17,-8
   28f74:	1144983a 	sll	r2,r2,r5
   28f78:	90c6b03a 	or	r3,r18,r3
   28f7c:	18cffc34 	orhi	r3,r3,16368
   28f80:	8180072e 	bgeu	r16,r6,28fa0 <__b2d+0xa0>
   28f84:	897ffd17 	ldw	r5,-12(r17)
   28f88:	2908d83a 	srl	r4,r5,r4
   28f8c:	1104b03a 	or	r2,r2,r4
   28f90:	00000306 	br	28fa0 <__b2d+0xa0>
   28f94:	108002d8 	cmpnei	r2,r2,11
   28f98:	1000161e 	bne	r2,zero,28ff4 <__b2d+0xf4>
   28f9c:	90cffc34 	orhi	r3,r18,16368
   28fa0:	dfc00517 	ldw	ra,20(sp)
   28fa4:	dd000417 	ldw	r20,16(sp)
   28fa8:	dcc00317 	ldw	r19,12(sp)
   28fac:	dc800217 	ldw	r18,8(sp)
   28fb0:	dc400117 	ldw	r17,4(sp)
   28fb4:	dc000017 	ldw	r16,0(sp)
   28fb8:	dec00604 	addi	sp,sp,24
   28fbc:	f800283a 	ret
   28fc0:	014002c4 	movi	r5,11
   28fc4:	288bc83a 	sub	r5,r5,r2
   28fc8:	9146d83a 	srl	r3,r18,r5
   28fcc:	18cffc34 	orhi	r3,r3,16368
   28fd0:	85000536 	bltu	r16,r20,28fe8 <__b2d+0xe8>
   28fd4:	0009883a 	mov	r4,zero
   28fd8:	10800544 	addi	r2,r2,21
   28fdc:	90a4983a 	sll	r18,r18,r2
   28fe0:	9104b03a 	or	r2,r18,r4
   28fe4:	003fee06 	br	28fa0 <__b2d+0xa0>
   28fe8:	893ffe17 	ldw	r4,-8(r17)
   28fec:	2148d83a 	srl	r4,r4,r5
   28ff0:	003ff906 	br	28fd8 <__b2d+0xd8>
   28ff4:	9164983a 	sll	r18,r18,r5
   28ff8:	0005883a 	mov	r2,zero
   28ffc:	003fe706 	br	28f9c <__b2d+0x9c>

00029000 <__d2b>:
   29000:	defff804 	addi	sp,sp,-32
   29004:	dd000615 	stw	r20,24(sp)
   29008:	2829883a 	mov	r20,r5
   2900c:	01400044 	movi	r5,1
   29010:	dcc00515 	stw	r19,20(sp)
   29014:	dc000215 	stw	r16,8(sp)
   29018:	dfc00715 	stw	ra,28(sp)
   2901c:	dc800415 	stw	r18,16(sp)
   29020:	dc400315 	stw	r17,12(sp)
   29024:	3021883a 	mov	r16,r6
   29028:	3827883a 	mov	r19,r7
   2902c:	00281800 	call	28180 <_Balloc>
   29030:	10004226 	beq	r2,zero,2913c <__d2b+0x13c>
   29034:	8024d53a 	srli	r18,r16,20
   29038:	1023883a 	mov	r17,r2
   2903c:	00800434 	movhi	r2,16
   29040:	10bfffc4 	addi	r2,r2,-1
   29044:	9481ffcc 	andi	r18,r18,2047
   29048:	80a0703a 	and	r16,r16,r2
   2904c:	90000126 	beq	r18,zero,29054 <__d2b+0x54>
   29050:	84000434 	orhi	r16,r16,16
   29054:	dc000115 	stw	r16,4(sp)
   29058:	a0001b26 	beq	r20,zero,290c8 <__d2b+0xc8>
   2905c:	d809883a 	mov	r4,sp
   29060:	dd000015 	stw	r20,0(sp)
   29064:	00285480 	call	28548 <__lo0bits>
   29068:	d8c00117 	ldw	r3,4(sp)
   2906c:	10003026 	beq	r2,zero,29130 <__d2b+0x130>
   29070:	01000804 	movi	r4,32
   29074:	2089c83a 	sub	r4,r4,r2
   29078:	1908983a 	sll	r4,r3,r4
   2907c:	d9400017 	ldw	r5,0(sp)
   29080:	1886d83a 	srl	r3,r3,r2
   29084:	2148b03a 	or	r4,r4,r5
   29088:	89000515 	stw	r4,20(r17)
   2908c:	d8c00115 	stw	r3,4(sp)
   29090:	88c00615 	stw	r3,24(r17)
   29094:	18002426 	beq	r3,zero,29128 <__d2b+0x128>
   29098:	04000084 	movi	r16,2
   2909c:	8c000415 	stw	r16,16(r17)
   290a0:	9000111e 	bne	r18,zero,290e8 <__d2b+0xe8>
   290a4:	800690ba 	slli	r3,r16,2
   290a8:	10bef384 	addi	r2,r2,-1074
   290ac:	98800015 	stw	r2,0(r19)
   290b0:	88c5883a 	add	r2,r17,r3
   290b4:	11000417 	ldw	r4,16(r2)
   290b8:	8020917a 	slli	r16,r16,5
   290bc:	00284d40 	call	284d4 <__hi0bits>
   290c0:	8085c83a 	sub	r2,r16,r2
   290c4:	00000d06 	br	290fc <__d2b+0xfc>
   290c8:	d9000104 	addi	r4,sp,4
   290cc:	00285480 	call	28548 <__lo0bits>
   290d0:	d8c00117 	ldw	r3,4(sp)
   290d4:	10800804 	addi	r2,r2,32
   290d8:	04000044 	movi	r16,1
   290dc:	88c00515 	stw	r3,20(r17)
   290e0:	8c000415 	stw	r16,16(r17)
   290e4:	903fef26 	beq	r18,zero,290a4 <__d2b+0xa4>
   290e8:	94bef344 	addi	r18,r18,-1075
   290ec:	90a5883a 	add	r18,r18,r2
   290f0:	04000d44 	movi	r16,53
   290f4:	9c800015 	stw	r18,0(r19)
   290f8:	8085c83a 	sub	r2,r16,r2
   290fc:	d8c00817 	ldw	r3,32(sp)
   29100:	18800015 	stw	r2,0(r3)
   29104:	8805883a 	mov	r2,r17
   29108:	dfc00717 	ldw	ra,28(sp)
   2910c:	dd000617 	ldw	r20,24(sp)
   29110:	dcc00517 	ldw	r19,20(sp)
   29114:	dc800417 	ldw	r18,16(sp)
   29118:	dc400317 	ldw	r17,12(sp)
   2911c:	dc000217 	ldw	r16,8(sp)
   29120:	dec00804 	addi	sp,sp,32
   29124:	f800283a 	ret
   29128:	04000044 	movi	r16,1
   2912c:	003fec06 	br	290e0 <__d2b+0xe0>
   29130:	d9000017 	ldw	r4,0(sp)
   29134:	89000515 	stw	r4,20(r17)
   29138:	003fd506 	br	29090 <__d2b+0x90>
   2913c:	01c000f4 	movhi	r7,3
   29140:	010000f4 	movhi	r4,3
   29144:	39c13d04 	addi	r7,r7,1268
   29148:	000d883a 	mov	r6,zero
   2914c:	0140c3c4 	movi	r5,783
   29150:	21015004 	addi	r4,r4,1344
   29154:	002a1c80 	call	2a1c8 <__assert_func>

00029158 <__ratio>:
   29158:	defff904 	addi	sp,sp,-28
   2915c:	dc400315 	stw	r17,12(sp)
   29160:	2823883a 	mov	r17,r5
   29164:	d80b883a 	mov	r5,sp
   29168:	dfc00615 	stw	ra,24(sp)
   2916c:	dcc00515 	stw	r19,20(sp)
   29170:	dc800415 	stw	r18,16(sp)
   29174:	2027883a 	mov	r19,r4
   29178:	dc000215 	stw	r16,8(sp)
   2917c:	0028f000 	call	28f00 <__b2d>
   29180:	d9400104 	addi	r5,sp,4
   29184:	8809883a 	mov	r4,r17
   29188:	1025883a 	mov	r18,r2
   2918c:	1821883a 	mov	r16,r3
   29190:	0028f000 	call	28f00 <__b2d>
   29194:	89000417 	ldw	r4,16(r17)
   29198:	9a000417 	ldw	r8,16(r19)
   2919c:	d9400117 	ldw	r5,4(sp)
   291a0:	100d883a 	mov	r6,r2
   291a4:	4111c83a 	sub	r8,r8,r4
   291a8:	d9000017 	ldw	r4,0(sp)
   291ac:	4010917a 	slli	r8,r8,5
   291b0:	180f883a 	mov	r7,r3
   291b4:	2149c83a 	sub	r4,r4,r5
   291b8:	4111883a 	add	r8,r8,r4
   291bc:	02000c0e 	bge	zero,r8,291f0 <__ratio+0x98>
   291c0:	4010953a 	slli	r8,r8,20
   291c4:	4421883a 	add	r16,r8,r16
   291c8:	9009883a 	mov	r4,r18
   291cc:	800b883a 	mov	r5,r16
   291d0:	002bda80 	call	2bda8 <__divdf3>
   291d4:	dfc00617 	ldw	ra,24(sp)
   291d8:	dcc00517 	ldw	r19,20(sp)
   291dc:	dc800417 	ldw	r18,16(sp)
   291e0:	dc400317 	ldw	r17,12(sp)
   291e4:	dc000217 	ldw	r16,8(sp)
   291e8:	dec00704 	addi	sp,sp,28
   291ec:	f800283a 	ret
   291f0:	4010953a 	slli	r8,r8,20
   291f4:	1a0fc83a 	sub	r7,r3,r8
   291f8:	003ff306 	br	291c8 <__ratio+0x70>

000291fc <_mprec_log10>:
   291fc:	defffe04 	addi	sp,sp,-8
   29200:	dc000015 	stw	r16,0(sp)
   29204:	dfc00115 	stw	ra,4(sp)
   29208:	20800608 	cmpgei	r2,r4,24
   2920c:	2021883a 	mov	r16,r4
   29210:	10000f26 	beq	r2,zero,29250 <_mprec_log10+0x54>
   29214:	0009883a 	mov	r4,zero
   29218:	014ffc34 	movhi	r5,16368
   2921c:	000d883a 	mov	r6,zero
   29220:	01d00934 	movhi	r7,16420
   29224:	002c91c0 	call	2c91c <__muldf3>
   29228:	843fffc4 	addi	r16,r16,-1
   2922c:	1009883a 	mov	r4,r2
   29230:	180b883a 	mov	r5,r3
   29234:	803ff91e 	bne	r16,zero,2921c <_mprec_log10+0x20>
   29238:	2005883a 	mov	r2,r4
   2923c:	2807883a 	mov	r3,r5
   29240:	dfc00117 	ldw	ra,4(sp)
   29244:	dc000017 	ldw	r16,0(sp)
   29248:	dec00204 	addi	sp,sp,8
   2924c:	f800283a 	ret
   29250:	202090fa 	slli	r16,r4,3
   29254:	008000f4 	movhi	r2,3
   29258:	10817504 	addi	r2,r2,1492
   2925c:	1405883a 	add	r2,r2,r16
   29260:	11000017 	ldw	r4,0(r2)
   29264:	11400117 	ldw	r5,4(r2)
   29268:	003ff306 	br	29238 <_mprec_log10+0x3c>

0002926c <__copybits>:
   2926c:	297fffc4 	addi	r5,r5,-1
   29270:	280fd17a 	srai	r7,r5,5
   29274:	31400417 	ldw	r5,16(r6)
   29278:	30800504 	addi	r2,r6,20
   2927c:	39c00044 	addi	r7,r7,1
   29280:	280a90ba 	slli	r5,r5,2
   29284:	380e90ba 	slli	r7,r7,2
   29288:	114b883a 	add	r5,r2,r5
   2928c:	21cf883a 	add	r7,r4,r7
   29290:	11400c2e 	bgeu	r2,r5,292c4 <__copybits+0x58>
   29294:	2007883a 	mov	r3,r4
   29298:	12000017 	ldw	r8,0(r2)
   2929c:	10800104 	addi	r2,r2,4
   292a0:	18c00104 	addi	r3,r3,4
   292a4:	1a3fff15 	stw	r8,-4(r3)
   292a8:	117ffb36 	bltu	r2,r5,29298 <__copybits+0x2c>
   292ac:	2985c83a 	sub	r2,r5,r6
   292b0:	10bffac4 	addi	r2,r2,-21
   292b4:	1004d0ba 	srli	r2,r2,2
   292b8:	10800044 	addi	r2,r2,1
   292bc:	100490ba 	slli	r2,r2,2
   292c0:	2089883a 	add	r4,r4,r2
   292c4:	21c0032e 	bgeu	r4,r7,292d4 <__copybits+0x68>
   292c8:	21000104 	addi	r4,r4,4
   292cc:	203fff15 	stw	zero,-4(r4)
   292d0:	21fffd36 	bltu	r4,r7,292c8 <__copybits+0x5c>
   292d4:	f800283a 	ret

000292d8 <__any_on>:
   292d8:	20c00417 	ldw	r3,16(r4)
   292dc:	280dd17a 	srai	r6,r5,5
   292e0:	21000504 	addi	r4,r4,20
   292e4:	1980080e 	bge	r3,r6,29308 <__any_on+0x30>
   292e8:	180690ba 	slli	r3,r3,2
   292ec:	20c5883a 	add	r2,r4,r3
   292f0:	20800f2e 	bgeu	r4,r2,29330 <__any_on+0x58>
   292f4:	10ffff17 	ldw	r3,-4(r2)
   292f8:	10bfff04 	addi	r2,r2,-4
   292fc:	183ffc26 	beq	r3,zero,292f0 <__any_on+0x18>
   29300:	00800044 	movi	r2,1
   29304:	f800283a 	ret
   29308:	300490ba 	slli	r2,r6,2
   2930c:	2085883a 	add	r2,r4,r2
   29310:	30fff70e 	bge	r6,r3,292f0 <__any_on+0x18>
   29314:	294007cc 	andi	r5,r5,31
   29318:	283ff526 	beq	r5,zero,292f0 <__any_on+0x18>
   2931c:	11800017 	ldw	r6,0(r2)
   29320:	3146d83a 	srl	r3,r6,r5
   29324:	1946983a 	sll	r3,r3,r5
   29328:	30fff51e 	bne	r6,r3,29300 <__any_on+0x28>
   2932c:	003ff006 	br	292f0 <__any_on+0x18>
   29330:	0005883a 	mov	r2,zero
   29334:	f800283a 	ret

00029338 <_realloc_r>:
   29338:	defff604 	addi	sp,sp,-40
   2933c:	dcc00315 	stw	r19,12(sp)
   29340:	dfc00915 	stw	ra,36(sp)
   29344:	df000815 	stw	fp,32(sp)
   29348:	ddc00715 	stw	r23,28(sp)
   2934c:	dd800615 	stw	r22,24(sp)
   29350:	dd400515 	stw	r21,20(sp)
   29354:	dd000415 	stw	r20,16(sp)
   29358:	dc800215 	stw	r18,8(sp)
   2935c:	dc400115 	stw	r17,4(sp)
   29360:	dc000015 	stw	r16,0(sp)
   29364:	3027883a 	mov	r19,r6
   29368:	28008a26 	beq	r5,zero,29594 <_realloc_r+0x25c>
   2936c:	2821883a 	mov	r16,r5
   29370:	2029883a 	mov	r20,r4
   29374:	002e6f80 	call	2e6f8 <__malloc_lock>
   29378:	80bfff17 	ldw	r2,-4(r16)
   2937c:	9c4002c4 	addi	r17,r19,11
   29380:	04bfff04 	movi	r18,-4
   29384:	88c005f0 	cmpltui	r3,r17,23
   29388:	857ffe04 	addi	r21,r16,-8
   2938c:	14a4703a 	and	r18,r2,r18
   29390:	18005a1e 	bne	r3,zero,294fc <_realloc_r+0x1c4>
   29394:	00fffe04 	movi	r3,-8
   29398:	88e2703a 	and	r17,r17,r3
   2939c:	88005916 	blt	r17,zero,29504 <_realloc_r+0x1cc>
   293a0:	8cc05836 	bltu	r17,r19,29504 <_realloc_r+0x1cc>
   293a4:	94403a0e 	bge	r18,r17,29490 <_realloc_r+0x158>
   293a8:	058000f4 	movhi	r22,3
   293ac:	b5834804 	addi	r22,r22,3360
   293b0:	b1800217 	ldw	r6,8(r22)
   293b4:	ac8b883a 	add	r5,r21,r18
   293b8:	28c00117 	ldw	r3,4(r5)
   293bc:	31408e26 	beq	r6,r5,295f8 <_realloc_r+0x2c0>
   293c0:	013fff84 	movi	r4,-2
   293c4:	1908703a 	and	r4,r3,r4
   293c8:	2909883a 	add	r4,r5,r4
   293cc:	21000117 	ldw	r4,4(r4)
   293d0:	2100004c 	andi	r4,r4,1
   293d4:	20004f1e 	bne	r4,zero,29514 <_realloc_r+0x1dc>
   293d8:	013fff04 	movi	r4,-4
   293dc:	1906703a 	and	r3,r3,r4
   293e0:	90c9883a 	add	r4,r18,r3
   293e4:	2440ca0e 	bge	r4,r17,29710 <_realloc_r+0x3d8>
   293e8:	1080004c 	andi	r2,r2,1
   293ec:	10004b1e 	bne	r2,zero,2951c <_realloc_r+0x1e4>
   293f0:	85fffe17 	ldw	r23,-8(r16)
   293f4:	013fff04 	movi	r4,-4
   293f8:	adefc83a 	sub	r23,r21,r23
   293fc:	b8800117 	ldw	r2,4(r23)
   29400:	1104703a 	and	r2,r2,r4
   29404:	28000426 	beq	r5,zero,29418 <_realloc_r+0xe0>
   29408:	90b9883a 	add	fp,r18,r2
   2940c:	e0f9883a 	add	fp,fp,r3
   29410:	3140c926 	beq	r6,r5,29738 <_realloc_r+0x400>
   29414:	e4409e0e 	bge	fp,r17,29690 <_realloc_r+0x358>
   29418:	b8004026 	beq	r23,zero,2951c <_realloc_r+0x1e4>
   2941c:	90ad883a 	add	r22,r18,r2
   29420:	b4403e16 	blt	r22,r17,2951c <_realloc_r+0x1e4>
   29424:	b8800317 	ldw	r2,12(r23)
   29428:	b8c00217 	ldw	r3,8(r23)
   2942c:	91bfff04 	addi	r6,r18,-4
   29430:	31400968 	cmpgeui	r5,r6,37
   29434:	18800315 	stw	r2,12(r3)
   29438:	10c00215 	stw	r3,8(r2)
   2943c:	bc800204 	addi	r18,r23,8
   29440:	2800ee1e 	bne	r5,zero,297fc <_realloc_r+0x4c4>
   29444:	30800530 	cmpltui	r2,r6,20
   29448:	1000ea1e 	bne	r2,zero,297f4 <_realloc_r+0x4bc>
   2944c:	80c00017 	ldw	r3,0(r16)
   29450:	30800728 	cmpgeui	r2,r6,28
   29454:	b8c00215 	stw	r3,8(r23)
   29458:	80c00117 	ldw	r3,4(r16)
   2945c:	b8c00315 	stw	r3,12(r23)
   29460:	1000fa1e 	bne	r2,zero,2984c <_realloc_r+0x514>
   29464:	84000204 	addi	r16,r16,8
   29468:	b8800404 	addi	r2,r23,16
   2946c:	80c00017 	ldw	r3,0(r16)
   29470:	10c00015 	stw	r3,0(r2)
   29474:	80c00117 	ldw	r3,4(r16)
   29478:	10c00115 	stw	r3,4(r2)
   2947c:	80c00217 	ldw	r3,8(r16)
   29480:	10c00215 	stw	r3,8(r2)
   29484:	9021883a 	mov	r16,r18
   29488:	b82b883a 	mov	r21,r23
   2948c:	b025883a 	mov	r18,r22
   29490:	a8800117 	ldw	r2,4(r21)
   29494:	9449c83a 	sub	r4,r18,r17
   29498:	21400430 	cmpltui	r5,r4,16
   2949c:	1080004c 	andi	r2,r2,1
   294a0:	ac87883a 	add	r3,r21,r18
   294a4:	28004826 	beq	r5,zero,295c8 <_realloc_r+0x290>
   294a8:	9084b03a 	or	r2,r18,r2
   294ac:	a8800115 	stw	r2,4(r21)
   294b0:	18800117 	ldw	r2,4(r3)
   294b4:	10800054 	ori	r2,r2,1
   294b8:	18800115 	stw	r2,4(r3)
   294bc:	a009883a 	mov	r4,r20
   294c0:	002e71c0 	call	2e71c <__malloc_unlock>
   294c4:	8027883a 	mov	r19,r16
   294c8:	9805883a 	mov	r2,r19
   294cc:	dfc00917 	ldw	ra,36(sp)
   294d0:	df000817 	ldw	fp,32(sp)
   294d4:	ddc00717 	ldw	r23,28(sp)
   294d8:	dd800617 	ldw	r22,24(sp)
   294dc:	dd400517 	ldw	r21,20(sp)
   294e0:	dd000417 	ldw	r20,16(sp)
   294e4:	dcc00317 	ldw	r19,12(sp)
   294e8:	dc800217 	ldw	r18,8(sp)
   294ec:	dc400117 	ldw	r17,4(sp)
   294f0:	dc000017 	ldw	r16,0(sp)
   294f4:	dec00a04 	addi	sp,sp,40
   294f8:	f800283a 	ret
   294fc:	04400404 	movi	r17,16
   29500:	8cffa82e 	bgeu	r17,r19,293a4 <_realloc_r+0x6c>
   29504:	00800304 	movi	r2,12
   29508:	a0800015 	stw	r2,0(r20)
   2950c:	0027883a 	mov	r19,zero
   29510:	003fed06 	br	294c8 <_realloc_r+0x190>
   29514:	1080004c 	andi	r2,r2,1
   29518:	10004e26 	beq	r2,zero,29654 <_realloc_r+0x31c>
   2951c:	980b883a 	mov	r5,r19
   29520:	a009883a 	mov	r4,r20
   29524:	00279680 	call	27968 <_malloc_r>
   29528:	1027883a 	mov	r19,r2
   2952c:	1000bd26 	beq	r2,zero,29824 <_realloc_r+0x4ec>
   29530:	80bfff17 	ldw	r2,-4(r16)
   29534:	013fff84 	movi	r4,-2
   29538:	98fffe04 	addi	r3,r19,-8
   2953c:	1104703a 	and	r2,r2,r4
   29540:	a885883a 	add	r2,r21,r2
   29544:	10c03e26 	beq	r2,r3,29640 <_realloc_r+0x308>
   29548:	91bfff04 	addi	r6,r18,-4
   2954c:	30800968 	cmpgeui	r2,r6,37
   29550:	1000751e 	bne	r2,zero,29728 <_realloc_r+0x3f0>
   29554:	30800530 	cmpltui	r2,r6,20
   29558:	10004426 	beq	r2,zero,2966c <_realloc_r+0x334>
   2955c:	9805883a 	mov	r2,r19
   29560:	8007883a 	mov	r3,r16
   29564:	19000017 	ldw	r4,0(r3)
   29568:	11000015 	stw	r4,0(r2)
   2956c:	19000117 	ldw	r4,4(r3)
   29570:	11000115 	stw	r4,4(r2)
   29574:	18c00217 	ldw	r3,8(r3)
   29578:	10c00215 	stw	r3,8(r2)
   2957c:	a009883a 	mov	r4,r20
   29580:	800b883a 	mov	r5,r16
   29584:	00276600 	call	27660 <_free_r>
   29588:	a009883a 	mov	r4,r20
   2958c:	002e71c0 	call	2e71c <__malloc_unlock>
   29590:	003fcd06 	br	294c8 <_realloc_r+0x190>
   29594:	300b883a 	mov	r5,r6
   29598:	dfc00917 	ldw	ra,36(sp)
   2959c:	df000817 	ldw	fp,32(sp)
   295a0:	ddc00717 	ldw	r23,28(sp)
   295a4:	dd800617 	ldw	r22,24(sp)
   295a8:	dd400517 	ldw	r21,20(sp)
   295ac:	dd000417 	ldw	r20,16(sp)
   295b0:	dcc00317 	ldw	r19,12(sp)
   295b4:	dc800217 	ldw	r18,8(sp)
   295b8:	dc400117 	ldw	r17,4(sp)
   295bc:	dc000017 	ldw	r16,0(sp)
   295c0:	dec00a04 	addi	sp,sp,40
   295c4:	00279681 	jmpi	27968 <_malloc_r>
   295c8:	8884b03a 	or	r2,r17,r2
   295cc:	a8800115 	stw	r2,4(r21)
   295d0:	ac4b883a 	add	r5,r21,r17
   295d4:	21000054 	ori	r4,r4,1
   295d8:	29000115 	stw	r4,4(r5)
   295dc:	18800117 	ldw	r2,4(r3)
   295e0:	29400204 	addi	r5,r5,8
   295e4:	a009883a 	mov	r4,r20
   295e8:	10800054 	ori	r2,r2,1
   295ec:	18800115 	stw	r2,4(r3)
   295f0:	00276600 	call	27660 <_free_r>
   295f4:	003fb106 	br	294bc <_realloc_r+0x184>
   295f8:	013fff04 	movi	r4,-4
   295fc:	1906703a 	and	r3,r3,r4
   29600:	1c89883a 	add	r4,r3,r18
   29604:	89c00404 	addi	r7,r17,16
   29608:	21ff7716 	blt	r4,r7,293e8 <_realloc_r+0xb0>
   2960c:	ac6b883a 	add	r21,r21,r17
   29610:	2445c83a 	sub	r2,r4,r17
   29614:	b5400215 	stw	r21,8(r22)
   29618:	10800054 	ori	r2,r2,1
   2961c:	a8800115 	stw	r2,4(r21)
   29620:	80bfff17 	ldw	r2,-4(r16)
   29624:	a009883a 	mov	r4,r20
   29628:	8027883a 	mov	r19,r16
   2962c:	1080004c 	andi	r2,r2,1
   29630:	1444b03a 	or	r2,r2,r17
   29634:	80bfff15 	stw	r2,-4(r16)
   29638:	002e71c0 	call	2e71c <__malloc_unlock>
   2963c:	003fa206 	br	294c8 <_realloc_r+0x190>
   29640:	98bfff17 	ldw	r2,-4(r19)
   29644:	00ffff04 	movi	r3,-4
   29648:	10c4703a 	and	r2,r2,r3
   2964c:	90a5883a 	add	r18,r18,r2
   29650:	003f8f06 	br	29490 <_realloc_r+0x158>
   29654:	85fffe17 	ldw	r23,-8(r16)
   29658:	00ffff04 	movi	r3,-4
   2965c:	adefc83a 	sub	r23,r21,r23
   29660:	b8800117 	ldw	r2,4(r23)
   29664:	10c4703a 	and	r2,r2,r3
   29668:	003f6b06 	br	29418 <_realloc_r+0xe0>
   2966c:	80c00017 	ldw	r3,0(r16)
   29670:	30800728 	cmpgeui	r2,r6,28
   29674:	98c00015 	stw	r3,0(r19)
   29678:	80c00117 	ldw	r3,4(r16)
   2967c:	98c00115 	stw	r3,4(r19)
   29680:	1000531e 	bne	r2,zero,297d0 <_realloc_r+0x498>
   29684:	80c00204 	addi	r3,r16,8
   29688:	98800204 	addi	r2,r19,8
   2968c:	003fb506 	br	29564 <_realloc_r+0x22c>
   29690:	28800317 	ldw	r2,12(r5)
   29694:	28c00217 	ldw	r3,8(r5)
   29698:	91bfff04 	addi	r6,r18,-4
   2969c:	31400968 	cmpgeui	r5,r6,37
   296a0:	18800315 	stw	r2,12(r3)
   296a4:	10c00215 	stw	r3,8(r2)
   296a8:	b8c00217 	ldw	r3,8(r23)
   296ac:	b8800317 	ldw	r2,12(r23)
   296b0:	bc800204 	addi	r18,r23,8
   296b4:	18800315 	stw	r2,12(r3)
   296b8:	10c00215 	stw	r3,8(r2)
   296bc:	2800551e 	bne	r5,zero,29814 <_realloc_r+0x4dc>
   296c0:	30800530 	cmpltui	r2,r6,20
   296c4:	1000511e 	bne	r2,zero,2980c <_realloc_r+0x4d4>
   296c8:	80c00017 	ldw	r3,0(r16)
   296cc:	30800728 	cmpgeui	r2,r6,28
   296d0:	b8c00215 	stw	r3,8(r23)
   296d4:	80c00117 	ldw	r3,4(r16)
   296d8:	b8c00315 	stw	r3,12(r23)
   296dc:	1000641e 	bne	r2,zero,29870 <_realloc_r+0x538>
   296e0:	84000204 	addi	r16,r16,8
   296e4:	b8800404 	addi	r2,r23,16
   296e8:	80c00017 	ldw	r3,0(r16)
   296ec:	10c00015 	stw	r3,0(r2)
   296f0:	80c00117 	ldw	r3,4(r16)
   296f4:	10c00115 	stw	r3,4(r2)
   296f8:	80c00217 	ldw	r3,8(r16)
   296fc:	10c00215 	stw	r3,8(r2)
   29700:	9021883a 	mov	r16,r18
   29704:	b82b883a 	mov	r21,r23
   29708:	e025883a 	mov	r18,fp
   2970c:	003f6006 	br	29490 <_realloc_r+0x158>
   29710:	28800317 	ldw	r2,12(r5)
   29714:	28c00217 	ldw	r3,8(r5)
   29718:	2025883a 	mov	r18,r4
   2971c:	18800315 	stw	r2,12(r3)
   29720:	10c00215 	stw	r3,8(r2)
   29724:	003f5a06 	br	29490 <_realloc_r+0x158>
   29728:	800b883a 	mov	r5,r16
   2972c:	9809883a 	mov	r4,r19
   29730:	002549c0 	call	2549c <memmove>
   29734:	003f9106 	br	2957c <_realloc_r+0x244>
   29738:	88c00404 	addi	r3,r17,16
   2973c:	e0ff3616 	blt	fp,r3,29418 <_realloc_r+0xe0>
   29740:	b8800317 	ldw	r2,12(r23)
   29744:	b8c00217 	ldw	r3,8(r23)
   29748:	91bfff04 	addi	r6,r18,-4
   2974c:	31000968 	cmpgeui	r4,r6,37
   29750:	18800315 	stw	r2,12(r3)
   29754:	10c00215 	stw	r3,8(r2)
   29758:	bcc00204 	addi	r19,r23,8
   2975c:	20004f1e 	bne	r4,zero,2989c <_realloc_r+0x564>
   29760:	30800530 	cmpltui	r2,r6,20
   29764:	10004b1e 	bne	r2,zero,29894 <_realloc_r+0x55c>
   29768:	80c00017 	ldw	r3,0(r16)
   2976c:	30800728 	cmpgeui	r2,r6,28
   29770:	b8c00215 	stw	r3,8(r23)
   29774:	80c00117 	ldw	r3,4(r16)
   29778:	b8c00315 	stw	r3,12(r23)
   2977c:	10004b1e 	bne	r2,zero,298ac <_realloc_r+0x574>
   29780:	84000204 	addi	r16,r16,8
   29784:	b8800404 	addi	r2,r23,16
   29788:	80c00017 	ldw	r3,0(r16)
   2978c:	10c00015 	stw	r3,0(r2)
   29790:	80c00117 	ldw	r3,4(r16)
   29794:	10c00115 	stw	r3,4(r2)
   29798:	80c00217 	ldw	r3,8(r16)
   2979c:	10c00215 	stw	r3,8(r2)
   297a0:	bc47883a 	add	r3,r23,r17
   297a4:	e445c83a 	sub	r2,fp,r17
   297a8:	b0c00215 	stw	r3,8(r22)
   297ac:	10800054 	ori	r2,r2,1
   297b0:	18800115 	stw	r2,4(r3)
   297b4:	b8800117 	ldw	r2,4(r23)
   297b8:	a009883a 	mov	r4,r20
   297bc:	1080004c 	andi	r2,r2,1
   297c0:	1444b03a 	or	r2,r2,r17
   297c4:	b8800115 	stw	r2,4(r23)
   297c8:	002e71c0 	call	2e71c <__malloc_unlock>
   297cc:	003f3e06 	br	294c8 <_realloc_r+0x190>
   297d0:	80800217 	ldw	r2,8(r16)
   297d4:	31800920 	cmpeqi	r6,r6,36
   297d8:	98800215 	stw	r2,8(r19)
   297dc:	80800317 	ldw	r2,12(r16)
   297e0:	98800315 	stw	r2,12(r19)
   297e4:	3000121e 	bne	r6,zero,29830 <_realloc_r+0x4f8>
   297e8:	80c00404 	addi	r3,r16,16
   297ec:	98800404 	addi	r2,r19,16
   297f0:	003f5c06 	br	29564 <_realloc_r+0x22c>
   297f4:	9005883a 	mov	r2,r18
   297f8:	003f1c06 	br	2946c <_realloc_r+0x134>
   297fc:	800b883a 	mov	r5,r16
   29800:	9009883a 	mov	r4,r18
   29804:	002549c0 	call	2549c <memmove>
   29808:	003f1e06 	br	29484 <_realloc_r+0x14c>
   2980c:	9005883a 	mov	r2,r18
   29810:	003fb506 	br	296e8 <_realloc_r+0x3b0>
   29814:	800b883a 	mov	r5,r16
   29818:	9009883a 	mov	r4,r18
   2981c:	002549c0 	call	2549c <memmove>
   29820:	003fb706 	br	29700 <_realloc_r+0x3c8>
   29824:	a009883a 	mov	r4,r20
   29828:	002e71c0 	call	2e71c <__malloc_unlock>
   2982c:	003f3706 	br	2950c <_realloc_r+0x1d4>
   29830:	81000417 	ldw	r4,16(r16)
   29834:	80c00604 	addi	r3,r16,24
   29838:	98800604 	addi	r2,r19,24
   2983c:	99000415 	stw	r4,16(r19)
   29840:	81000517 	ldw	r4,20(r16)
   29844:	99000515 	stw	r4,20(r19)
   29848:	003f4606 	br	29564 <_realloc_r+0x22c>
   2984c:	80800217 	ldw	r2,8(r16)
   29850:	31800920 	cmpeqi	r6,r6,36
   29854:	b8800415 	stw	r2,16(r23)
   29858:	80800317 	ldw	r2,12(r16)
   2985c:	b8800515 	stw	r2,20(r23)
   29860:	30001b1e 	bne	r6,zero,298d0 <_realloc_r+0x598>
   29864:	84000404 	addi	r16,r16,16
   29868:	b8800604 	addi	r2,r23,24
   2986c:	003eff06 	br	2946c <_realloc_r+0x134>
   29870:	80800217 	ldw	r2,8(r16)
   29874:	31800920 	cmpeqi	r6,r6,36
   29878:	b8800415 	stw	r2,16(r23)
   2987c:	80800317 	ldw	r2,12(r16)
   29880:	b8800515 	stw	r2,20(r23)
   29884:	3000191e 	bne	r6,zero,298ec <_realloc_r+0x5b4>
   29888:	84000404 	addi	r16,r16,16
   2988c:	b8800604 	addi	r2,r23,24
   29890:	003f9506 	br	296e8 <_realloc_r+0x3b0>
   29894:	9805883a 	mov	r2,r19
   29898:	003fbb06 	br	29788 <_realloc_r+0x450>
   2989c:	800b883a 	mov	r5,r16
   298a0:	9809883a 	mov	r4,r19
   298a4:	002549c0 	call	2549c <memmove>
   298a8:	003fbd06 	br	297a0 <_realloc_r+0x468>
   298ac:	80800217 	ldw	r2,8(r16)
   298b0:	31800920 	cmpeqi	r6,r6,36
   298b4:	b8800415 	stw	r2,16(r23)
   298b8:	80800317 	ldw	r2,12(r16)
   298bc:	b8800515 	stw	r2,20(r23)
   298c0:	3000111e 	bne	r6,zero,29908 <_realloc_r+0x5d0>
   298c4:	84000404 	addi	r16,r16,16
   298c8:	b8800604 	addi	r2,r23,24
   298cc:	003fae06 	br	29788 <_realloc_r+0x450>
   298d0:	80c00417 	ldw	r3,16(r16)
   298d4:	84000604 	addi	r16,r16,24
   298d8:	b8800804 	addi	r2,r23,32
   298dc:	b8c00615 	stw	r3,24(r23)
   298e0:	80ffff17 	ldw	r3,-4(r16)
   298e4:	b8c00715 	stw	r3,28(r23)
   298e8:	003ee006 	br	2946c <_realloc_r+0x134>
   298ec:	80c00417 	ldw	r3,16(r16)
   298f0:	84000604 	addi	r16,r16,24
   298f4:	b8800804 	addi	r2,r23,32
   298f8:	b8c00615 	stw	r3,24(r23)
   298fc:	80ffff17 	ldw	r3,-4(r16)
   29900:	b8c00715 	stw	r3,28(r23)
   29904:	003f7806 	br	296e8 <_realloc_r+0x3b0>
   29908:	80c00417 	ldw	r3,16(r16)
   2990c:	84000604 	addi	r16,r16,24
   29910:	b8800804 	addi	r2,r23,32
   29914:	b8c00615 	stw	r3,24(r23)
   29918:	80ffff17 	ldw	r3,-4(r16)
   2991c:	b8c00715 	stw	r3,28(r23)
   29920:	003f9906 	br	29788 <_realloc_r+0x450>

00029924 <_wctomb_r>:
   29924:	008000f4 	movhi	r2,3
   29928:	10832517 	ldw	r2,3220(r2)
   2992c:	1000683a 	jmp	r2

00029930 <__ascii_wctomb>:
   29930:	28000926 	beq	r5,zero,29958 <__ascii_wctomb+0x28>
   29934:	30804030 	cmpltui	r2,r6,256
   29938:	10000326 	beq	r2,zero,29948 <__ascii_wctomb+0x18>
   2993c:	29800005 	stb	r6,0(r5)
   29940:	00800044 	movi	r2,1
   29944:	f800283a 	ret
   29948:	00802284 	movi	r2,138
   2994c:	20800015 	stw	r2,0(r4)
   29950:	00bfffc4 	movi	r2,-1
   29954:	f800283a 	ret
   29958:	0005883a 	mov	r2,zero
   2995c:	f800283a 	ret

00029960 <_wcrtomb_r>:
   29960:	defffa04 	addi	sp,sp,-24
   29964:	dc400415 	stw	r17,16(sp)
   29968:	dc000315 	stw	r16,12(sp)
   2996c:	008000f4 	movhi	r2,3
   29970:	dfc00515 	stw	ra,20(sp)
   29974:	10832517 	ldw	r2,3220(r2)
   29978:	2023883a 	mov	r17,r4
   2997c:	3821883a 	mov	r16,r7
   29980:	28000826 	beq	r5,zero,299a4 <_wcrtomb_r+0x44>
   29984:	103ee83a 	callr	r2
   29988:	10ffffd8 	cmpnei	r3,r2,-1
   2998c:	18000a26 	beq	r3,zero,299b8 <_wcrtomb_r+0x58>
   29990:	dfc00517 	ldw	ra,20(sp)
   29994:	dc400417 	ldw	r17,16(sp)
   29998:	dc000317 	ldw	r16,12(sp)
   2999c:	dec00604 	addi	sp,sp,24
   299a0:	f800283a 	ret
   299a4:	000d883a 	mov	r6,zero
   299a8:	d9400084 	addi	r5,sp,2
   299ac:	103ee83a 	callr	r2
   299b0:	10ffffd8 	cmpnei	r3,r2,-1
   299b4:	183ff61e 	bne	r3,zero,29990 <_wcrtomb_r+0x30>
   299b8:	00802284 	movi	r2,138
   299bc:	80000015 	stw	zero,0(r16)
   299c0:	88800015 	stw	r2,0(r17)
   299c4:	00bfffc4 	movi	r2,-1
   299c8:	003ff106 	br	29990 <_wcrtomb_r+0x30>

000299cc <wcrtomb>:
   299cc:	defffa04 	addi	sp,sp,-24
   299d0:	00c000f4 	movhi	r3,3
   299d4:	dc400415 	stw	r17,16(sp)
   299d8:	dc000315 	stw	r16,12(sp)
   299dc:	1c48cd17 	ldw	r17,9012(r3)
   299e0:	dfc00515 	stw	ra,20(sp)
   299e4:	00c000f4 	movhi	r3,3
   299e8:	18c32517 	ldw	r3,3220(r3)
   299ec:	3021883a 	mov	r16,r6
   299f0:	20000c26 	beq	r4,zero,29a24 <wcrtomb+0x58>
   299f4:	280d883a 	mov	r6,r5
   299f8:	800f883a 	mov	r7,r16
   299fc:	200b883a 	mov	r5,r4
   29a00:	8809883a 	mov	r4,r17
   29a04:	183ee83a 	callr	r3
   29a08:	10ffffd8 	cmpnei	r3,r2,-1
   29a0c:	18000c26 	beq	r3,zero,29a40 <wcrtomb+0x74>
   29a10:	dfc00517 	ldw	ra,20(sp)
   29a14:	dc400417 	ldw	r17,16(sp)
   29a18:	dc000317 	ldw	r16,12(sp)
   29a1c:	dec00604 	addi	sp,sp,24
   29a20:	f800283a 	ret
   29a24:	300f883a 	mov	r7,r6
   29a28:	d9400084 	addi	r5,sp,2
   29a2c:	000d883a 	mov	r6,zero
   29a30:	8809883a 	mov	r4,r17
   29a34:	183ee83a 	callr	r3
   29a38:	10ffffd8 	cmpnei	r3,r2,-1
   29a3c:	183ff41e 	bne	r3,zero,29a10 <wcrtomb+0x44>
   29a40:	00802284 	movi	r2,138
   29a44:	80000015 	stw	zero,0(r16)
   29a48:	88800015 	stw	r2,0(r17)
   29a4c:	00bfffc4 	movi	r2,-1
   29a50:	003fef06 	br	29a10 <wcrtomb+0x44>

00029a54 <_fclose_r>:
   29a54:	defffc04 	addi	sp,sp,-16
   29a58:	dfc00315 	stw	ra,12(sp)
   29a5c:	dc800215 	stw	r18,8(sp)
   29a60:	dc400115 	stw	r17,4(sp)
   29a64:	dc000015 	stw	r16,0(sp)
   29a68:	28000726 	beq	r5,zero,29a88 <_fclose_r+0x34>
   29a6c:	2821883a 	mov	r16,r5
   29a70:	2023883a 	mov	r17,r4
   29a74:	20000226 	beq	r4,zero,29a80 <_fclose_r+0x2c>
   29a78:	20800d17 	ldw	r2,52(r4)
   29a7c:	10002f26 	beq	r2,zero,29b3c <_fclose_r+0xe8>
   29a80:	8080030f 	ldh	r2,12(r16)
   29a84:	1000081e 	bne	r2,zero,29aa8 <_fclose_r+0x54>
   29a88:	0025883a 	mov	r18,zero
   29a8c:	9005883a 	mov	r2,r18
   29a90:	dfc00317 	ldw	ra,12(sp)
   29a94:	dc800217 	ldw	r18,8(sp)
   29a98:	dc400117 	ldw	r17,4(sp)
   29a9c:	dc000017 	ldw	r16,0(sp)
   29aa0:	dec00404 	addi	sp,sp,16
   29aa4:	f800283a 	ret
   29aa8:	800b883a 	mov	r5,r16
   29aac:	8809883a 	mov	r4,r17
   29ab0:	00242540 	call	24254 <__sflush_r>
   29ab4:	80c00b17 	ldw	r3,44(r16)
   29ab8:	1025883a 	mov	r18,r2
   29abc:	18000426 	beq	r3,zero,29ad0 <_fclose_r+0x7c>
   29ac0:	81400717 	ldw	r5,28(r16)
   29ac4:	8809883a 	mov	r4,r17
   29ac8:	183ee83a 	callr	r3
   29acc:	10001316 	blt	r2,zero,29b1c <_fclose_r+0xc8>
   29ad0:	8080030b 	ldhu	r2,12(r16)
   29ad4:	1080200c 	andi	r2,r2,128
   29ad8:	1000141e 	bne	r2,zero,29b2c <_fclose_r+0xd8>
   29adc:	81400c17 	ldw	r5,48(r16)
   29ae0:	28000526 	beq	r5,zero,29af8 <_fclose_r+0xa4>
   29ae4:	80801004 	addi	r2,r16,64
   29ae8:	28800226 	beq	r5,r2,29af4 <_fclose_r+0xa0>
   29aec:	8809883a 	mov	r4,r17
   29af0:	00276600 	call	27660 <_free_r>
   29af4:	80000c15 	stw	zero,48(r16)
   29af8:	81401117 	ldw	r5,68(r16)
   29afc:	28000326 	beq	r5,zero,29b0c <_fclose_r+0xb8>
   29b00:	8809883a 	mov	r4,r17
   29b04:	00276600 	call	27660 <_free_r>
   29b08:	80001115 	stw	zero,68(r16)
   29b0c:	002489c0 	call	2489c <__sfp_lock_acquire>
   29b10:	8000030d 	sth	zero,12(r16)
   29b14:	00248a00 	call	248a0 <__sfp_lock_release>
   29b18:	003fdc06 	br	29a8c <_fclose_r+0x38>
   29b1c:	8080030b 	ldhu	r2,12(r16)
   29b20:	04bfffc4 	movi	r18,-1
   29b24:	1080200c 	andi	r2,r2,128
   29b28:	103fec26 	beq	r2,zero,29adc <_fclose_r+0x88>
   29b2c:	81400417 	ldw	r5,16(r16)
   29b30:	8809883a 	mov	r4,r17
   29b34:	00276600 	call	27660 <_free_r>
   29b38:	003fe806 	br	29adc <_fclose_r+0x88>
   29b3c:	00248740 	call	24874 <__sinit>
   29b40:	003fcf06 	br	29a80 <_fclose_r+0x2c>

00029b44 <fclose>:
   29b44:	008000f4 	movhi	r2,3
   29b48:	200b883a 	mov	r5,r4
   29b4c:	1108cd17 	ldw	r4,9012(r2)
   29b50:	0029a541 	jmpi	29a54 <_fclose_r>

00029b54 <__smakebuf_r>:
   29b54:	2880030b 	ldhu	r2,12(r5)
   29b58:	deffe904 	addi	sp,sp,-92
   29b5c:	dc001215 	stw	r16,72(sp)
   29b60:	dfc01615 	stw	ra,88(sp)
   29b64:	dcc01515 	stw	r19,84(sp)
   29b68:	dc801415 	stw	r18,80(sp)
   29b6c:	dc401315 	stw	r17,76(sp)
   29b70:	10c0008c 	andi	r3,r2,2
   29b74:	2821883a 	mov	r16,r5
   29b78:	18000c26 	beq	r3,zero,29bac <__smakebuf_r+0x58>
   29b7c:	288010c4 	addi	r2,r5,67
   29b80:	28800015 	stw	r2,0(r5)
   29b84:	28800415 	stw	r2,16(r5)
   29b88:	00800044 	movi	r2,1
   29b8c:	28800515 	stw	r2,20(r5)
   29b90:	dfc01617 	ldw	ra,88(sp)
   29b94:	dcc01517 	ldw	r19,84(sp)
   29b98:	dc801417 	ldw	r18,80(sp)
   29b9c:	dc401317 	ldw	r17,76(sp)
   29ba0:	dc001217 	ldw	r16,72(sp)
   29ba4:	dec01704 	addi	sp,sp,92
   29ba8:	f800283a 	ret
   29bac:	2940038f 	ldh	r5,14(r5)
   29bb0:	2023883a 	mov	r17,r4
   29bb4:	28002816 	blt	r5,zero,29c58 <__smakebuf_r+0x104>
   29bb8:	d80d883a 	mov	r6,sp
   29bbc:	0029fa00 	call	29fa0 <_fstat_r>
   29bc0:	10002416 	blt	r2,zero,29c54 <__smakebuf_r+0x100>
   29bc4:	d8800117 	ldw	r2,4(sp)
   29bc8:	10bc000c 	andi	r2,r2,61440
   29bcc:	10880018 	cmpnei	r2,r2,8192
   29bd0:	1000471e 	bne	r2,zero,29cf0 <__smakebuf_r+0x19c>
   29bd4:	8140038f 	ldh	r5,14(r16)
   29bd8:	8809883a 	mov	r4,r17
   29bdc:	002a0000 	call	2a000 <_isatty_r>
   29be0:	10000826 	beq	r2,zero,29c04 <__smakebuf_r+0xb0>
   29be4:	8080030b 	ldhu	r2,12(r16)
   29be8:	80c010c4 	addi	r3,r16,67
   29bec:	80c00015 	stw	r3,0(r16)
   29bf0:	10800054 	ori	r2,r2,1
   29bf4:	8080030d 	sth	r2,12(r16)
   29bf8:	00800044 	movi	r2,1
   29bfc:	80c00415 	stw	r3,16(r16)
   29c00:	80800515 	stw	r2,20(r16)
   29c04:	01410004 	movi	r5,1024
   29c08:	8809883a 	mov	r4,r17
   29c0c:	00279680 	call	27968 <_malloc_r>
   29c10:	10002626 	beq	r2,zero,29cac <__smakebuf_r+0x158>
   29c14:	80c0030b 	ldhu	r3,12(r16)
   29c18:	8140038f 	ldh	r5,14(r16)
   29c1c:	80800015 	stw	r2,0(r16)
   29c20:	18c02014 	ori	r3,r3,128
   29c24:	80800415 	stw	r2,16(r16)
   29c28:	00810004 	movi	r2,1024
   29c2c:	80c0030d 	sth	r3,12(r16)
   29c30:	80800515 	stw	r2,20(r16)
   29c34:	8809883a 	mov	r4,r17
   29c38:	002a0000 	call	2a000 <_isatty_r>
   29c3c:	80c0030b 	ldhu	r3,12(r16)
   29c40:	1000271e 	bne	r2,zero,29ce0 <__smakebuf_r+0x18c>
   29c44:	00820004 	movi	r2,2048
   29c48:	10c4b03a 	or	r2,r2,r3
   29c4c:	8080030d 	sth	r2,12(r16)
   29c50:	003fcf06 	br	29b90 <__smakebuf_r+0x3c>
   29c54:	8080030b 	ldhu	r2,12(r16)
   29c58:	1080200c 	andi	r2,r2,128
   29c5c:	10000d1e 	bne	r2,zero,29c94 <__smakebuf_r+0x140>
   29c60:	04c10004 	movi	r19,1024
   29c64:	0025883a 	mov	r18,zero
   29c68:	980b883a 	mov	r5,r19
   29c6c:	8809883a 	mov	r4,r17
   29c70:	00279680 	call	27968 <_malloc_r>
   29c74:	10000d26 	beq	r2,zero,29cac <__smakebuf_r+0x158>
   29c78:	80c0030b 	ldhu	r3,12(r16)
   29c7c:	80800015 	stw	r2,0(r16)
   29c80:	80800415 	stw	r2,16(r16)
   29c84:	18c02014 	ori	r3,r3,128
   29c88:	84c00515 	stw	r19,20(r16)
   29c8c:	9005883a 	mov	r2,r18
   29c90:	003fed06 	br	29c48 <__smakebuf_r+0xf4>
   29c94:	04c01004 	movi	r19,64
   29c98:	980b883a 	mov	r5,r19
   29c9c:	8809883a 	mov	r4,r17
   29ca0:	0025883a 	mov	r18,zero
   29ca4:	00279680 	call	27968 <_malloc_r>
   29ca8:	103ff31e 	bne	r2,zero,29c78 <__smakebuf_r+0x124>
   29cac:	8080030b 	ldhu	r2,12(r16)
   29cb0:	10c0800c 	andi	r3,r2,512
   29cb4:	183fb61e 	bne	r3,zero,29b90 <__smakebuf_r+0x3c>
   29cb8:	00ffff04 	movi	r3,-4
   29cbc:	10c4703a 	and	r2,r2,r3
   29cc0:	10800094 	ori	r2,r2,2
   29cc4:	80c010c4 	addi	r3,r16,67
   29cc8:	8080030d 	sth	r2,12(r16)
   29ccc:	00800044 	movi	r2,1
   29cd0:	80c00015 	stw	r3,0(r16)
   29cd4:	80c00415 	stw	r3,16(r16)
   29cd8:	80800515 	stw	r2,20(r16)
   29cdc:	003fac06 	br	29b90 <__smakebuf_r+0x3c>
   29ce0:	18ffff0c 	andi	r3,r3,65532
   29ce4:	00820004 	movi	r2,2048
   29ce8:	18c00054 	ori	r3,r3,1
   29cec:	003fd606 	br	29c48 <__smakebuf_r+0xf4>
   29cf0:	04c10004 	movi	r19,1024
   29cf4:	04820004 	movi	r18,2048
   29cf8:	003fdb06 	br	29c68 <__smakebuf_r+0x114>

00029cfc <__swhatbuf_r>:
   29cfc:	deffea04 	addi	sp,sp,-88
   29d00:	dc001215 	stw	r16,72(sp)
   29d04:	2821883a 	mov	r16,r5
   29d08:	2940038f 	ldh	r5,14(r5)
   29d0c:	dc801415 	stw	r18,80(sp)
   29d10:	dc401315 	stw	r17,76(sp)
   29d14:	dfc01515 	stw	ra,84(sp)
   29d18:	3023883a 	mov	r17,r6
   29d1c:	3825883a 	mov	r18,r7
   29d20:	28001016 	blt	r5,zero,29d64 <__swhatbuf_r+0x68>
   29d24:	d80d883a 	mov	r6,sp
   29d28:	0029fa00 	call	29fa0 <_fstat_r>
   29d2c:	10000d16 	blt	r2,zero,29d64 <__swhatbuf_r+0x68>
   29d30:	d8c00117 	ldw	r3,4(sp)
   29d34:	01010004 	movi	r4,1024
   29d38:	00820004 	movi	r2,2048
   29d3c:	18fc000c 	andi	r3,r3,61440
   29d40:	18c80020 	cmpeqi	r3,r3,8192
   29d44:	90c00015 	stw	r3,0(r18)
   29d48:	89000015 	stw	r4,0(r17)
   29d4c:	dfc01517 	ldw	ra,84(sp)
   29d50:	dc801417 	ldw	r18,80(sp)
   29d54:	dc401317 	ldw	r17,76(sp)
   29d58:	dc001217 	ldw	r16,72(sp)
   29d5c:	dec01604 	addi	sp,sp,88
   29d60:	f800283a 	ret
   29d64:	8080030b 	ldhu	r2,12(r16)
   29d68:	0007883a 	mov	r3,zero
   29d6c:	1080200c 	andi	r2,r2,128
   29d70:	10000326 	beq	r2,zero,29d80 <__swhatbuf_r+0x84>
   29d74:	01001004 	movi	r4,64
   29d78:	0005883a 	mov	r2,zero
   29d7c:	003ff106 	br	29d44 <__swhatbuf_r+0x48>
   29d80:	01010004 	movi	r4,1024
   29d84:	003fef06 	br	29d44 <__swhatbuf_r+0x48>

00029d88 <__swbuf_r>:
   29d88:	defffb04 	addi	sp,sp,-20
   29d8c:	dcc00315 	stw	r19,12(sp)
   29d90:	dc400115 	stw	r17,4(sp)
   29d94:	dc000015 	stw	r16,0(sp)
   29d98:	dfc00415 	stw	ra,16(sp)
   29d9c:	dc800215 	stw	r18,8(sp)
   29da0:	2027883a 	mov	r19,r4
   29da4:	2823883a 	mov	r17,r5
   29da8:	3021883a 	mov	r16,r6
   29dac:	20000226 	beq	r4,zero,29db8 <__swbuf_r+0x30>
   29db0:	20800d17 	ldw	r2,52(r4)
   29db4:	10004426 	beq	r2,zero,29ec8 <__swbuf_r+0x140>
   29db8:	80800617 	ldw	r2,24(r16)
   29dbc:	80c0030b 	ldhu	r3,12(r16)
   29dc0:	80800215 	stw	r2,8(r16)
   29dc4:	1880020c 	andi	r2,r3,8
   29dc8:	10001f26 	beq	r2,zero,29e48 <__swbuf_r+0xc0>
   29dcc:	80800417 	ldw	r2,16(r16)
   29dd0:	10001d26 	beq	r2,zero,29e48 <__swbuf_r+0xc0>
   29dd4:	1948000c 	andi	r5,r3,8192
   29dd8:	8c803fcc 	andi	r18,r17,255
   29ddc:	28002326 	beq	r5,zero,29e6c <__swbuf_r+0xe4>
   29de0:	80c00017 	ldw	r3,0(r16)
   29de4:	81000517 	ldw	r4,20(r16)
   29de8:	1885c83a 	sub	r2,r3,r2
   29dec:	1100290e 	bge	r2,r4,29e94 <__swbuf_r+0x10c>
   29df0:	10800044 	addi	r2,r2,1
   29df4:	81400217 	ldw	r5,8(r16)
   29df8:	19000044 	addi	r4,r3,1
   29dfc:	81000015 	stw	r4,0(r16)
   29e00:	297fffc4 	addi	r5,r5,-1
   29e04:	81400215 	stw	r5,8(r16)
   29e08:	1c400005 	stb	r17,0(r3)
   29e0c:	80c00517 	ldw	r3,20(r16)
   29e10:	18802726 	beq	r3,r2,29eb0 <__swbuf_r+0x128>
   29e14:	8080030b 	ldhu	r2,12(r16)
   29e18:	1080004c 	andi	r2,r2,1
   29e1c:	10000226 	beq	r2,zero,29e28 <__swbuf_r+0xa0>
   29e20:	90800298 	cmpnei	r2,r18,10
   29e24:	10002226 	beq	r2,zero,29eb0 <__swbuf_r+0x128>
   29e28:	9005883a 	mov	r2,r18
   29e2c:	dfc00417 	ldw	ra,16(sp)
   29e30:	dcc00317 	ldw	r19,12(sp)
   29e34:	dc800217 	ldw	r18,8(sp)
   29e38:	dc400117 	ldw	r17,4(sp)
   29e3c:	dc000017 	ldw	r16,0(sp)
   29e40:	dec00504 	addi	sp,sp,20
   29e44:	f800283a 	ret
   29e48:	800b883a 	mov	r5,r16
   29e4c:	9809883a 	mov	r4,r19
   29e50:	0024f5c0 	call	24f5c <__swsetup_r>
   29e54:	10001a1e 	bne	r2,zero,29ec0 <__swbuf_r+0x138>
   29e58:	80c0030b 	ldhu	r3,12(r16)
   29e5c:	80800417 	ldw	r2,16(r16)
   29e60:	8c803fcc 	andi	r18,r17,255
   29e64:	1948000c 	andi	r5,r3,8192
   29e68:	283fdd1e 	bne	r5,zero,29de0 <__swbuf_r+0x58>
   29e6c:	81001917 	ldw	r4,100(r16)
   29e70:	18c80014 	ori	r3,r3,8192
   29e74:	0177ffc4 	movi	r5,-8193
   29e78:	2148703a 	and	r4,r4,r5
   29e7c:	80c0030d 	sth	r3,12(r16)
   29e80:	80c00017 	ldw	r3,0(r16)
   29e84:	81001915 	stw	r4,100(r16)
   29e88:	81000517 	ldw	r4,20(r16)
   29e8c:	1885c83a 	sub	r2,r3,r2
   29e90:	113fd716 	blt	r2,r4,29df0 <__swbuf_r+0x68>
   29e94:	800b883a 	mov	r5,r16
   29e98:	9809883a 	mov	r4,r19
   29e9c:	002445c0 	call	2445c <_fflush_r>
   29ea0:	1000071e 	bne	r2,zero,29ec0 <__swbuf_r+0x138>
   29ea4:	80c00017 	ldw	r3,0(r16)
   29ea8:	00800044 	movi	r2,1
   29eac:	003fd106 	br	29df4 <__swbuf_r+0x6c>
   29eb0:	800b883a 	mov	r5,r16
   29eb4:	9809883a 	mov	r4,r19
   29eb8:	002445c0 	call	2445c <_fflush_r>
   29ebc:	103fda26 	beq	r2,zero,29e28 <__swbuf_r+0xa0>
   29ec0:	04bfffc4 	movi	r18,-1
   29ec4:	003fd806 	br	29e28 <__swbuf_r+0xa0>
   29ec8:	00248740 	call	24874 <__sinit>
   29ecc:	003fba06 	br	29db8 <__swbuf_r+0x30>

00029ed0 <__swbuf>:
   29ed0:	00c000f4 	movhi	r3,3
   29ed4:	2005883a 	mov	r2,r4
   29ed8:	1908cd17 	ldw	r4,9012(r3)
   29edc:	280d883a 	mov	r6,r5
   29ee0:	100b883a 	mov	r5,r2
   29ee4:	0029d881 	jmpi	29d88 <__swbuf_r>

00029ee8 <strcmp>:
   29ee8:	2144b03a 	or	r2,r4,r5
   29eec:	108000cc 	andi	r2,r2,3
   29ef0:	1000141e 	bne	r2,zero,29f44 <strcmp+0x5c>
   29ef4:	20800017 	ldw	r2,0(r4)
   29ef8:	28c00017 	ldw	r3,0(r5)
   29efc:	10c0111e 	bne	r2,r3,29f44 <strcmp+0x5c>
   29f00:	01ffbff4 	movhi	r7,65279
   29f04:	01a02074 	movhi	r6,32897
   29f08:	39ffbfc4 	addi	r7,r7,-257
   29f0c:	31a02004 	addi	r6,r6,-32640
   29f10:	00000306 	br	29f20 <strcmp+0x38>
   29f14:	20800017 	ldw	r2,0(r4)
   29f18:	28c00017 	ldw	r3,0(r5)
   29f1c:	10c0091e 	bne	r2,r3,29f44 <strcmp+0x5c>
   29f20:	11c7883a 	add	r3,r2,r7
   29f24:	0084303a 	nor	r2,zero,r2
   29f28:	1884703a 	and	r2,r3,r2
   29f2c:	1184703a 	and	r2,r2,r6
   29f30:	21000104 	addi	r4,r4,4
   29f34:	29400104 	addi	r5,r5,4
   29f38:	103ff626 	beq	r2,zero,29f14 <strcmp+0x2c>
   29f3c:	0005883a 	mov	r2,zero
   29f40:	f800283a 	ret
   29f44:	20c00003 	ldbu	r3,0(r4)
   29f48:	18803fcc 	andi	r2,r3,255
   29f4c:	1080201c 	xori	r2,r2,128
   29f50:	10bfe004 	addi	r2,r2,-128
   29f54:	1000071e 	bne	r2,zero,29f74 <strcmp+0x8c>
   29f58:	00000a06 	br	29f84 <strcmp+0x9c>
   29f5c:	20c00003 	ldbu	r3,0(r4)
   29f60:	29400044 	addi	r5,r5,1
   29f64:	18803fcc 	andi	r2,r3,255
   29f68:	1080201c 	xori	r2,r2,128
   29f6c:	10bfe004 	addi	r2,r2,-128
   29f70:	10000726 	beq	r2,zero,29f90 <strcmp+0xa8>
   29f74:	29800007 	ldb	r6,0(r5)
   29f78:	21000044 	addi	r4,r4,1
   29f7c:	30bff726 	beq	r6,r2,29f5c <strcmp+0x74>
   29f80:	18803fcc 	andi	r2,r3,255
   29f84:	28c00003 	ldbu	r3,0(r5)
   29f88:	10c5c83a 	sub	r2,r2,r3
   29f8c:	f800283a 	ret
   29f90:	28c00003 	ldbu	r3,0(r5)
   29f94:	0005883a 	mov	r2,zero
   29f98:	10c5c83a 	sub	r2,r2,r3
   29f9c:	f800283a 	ret

00029fa0 <_fstat_r>:
   29fa0:	2807883a 	mov	r3,r5
   29fa4:	defffe04 	addi	sp,sp,-8
   29fa8:	dc000015 	stw	r16,0(sp)
   29fac:	008000f4 	movhi	r2,3
   29fb0:	300b883a 	mov	r5,r6
   29fb4:	2021883a 	mov	r16,r4
   29fb8:	1809883a 	mov	r4,r3
   29fbc:	dfc00115 	stw	ra,4(sp)
   29fc0:	100f1415 	stw	zero,15440(r2)
   29fc4:	002dee80 	call	2dee8 <fstat>
   29fc8:	10ffffd8 	cmpnei	r3,r2,-1
   29fcc:	18000426 	beq	r3,zero,29fe0 <_fstat_r+0x40>
   29fd0:	dfc00117 	ldw	ra,4(sp)
   29fd4:	dc000017 	ldw	r16,0(sp)
   29fd8:	dec00204 	addi	sp,sp,8
   29fdc:	f800283a 	ret
   29fe0:	00c000f4 	movhi	r3,3
   29fe4:	18cf1417 	ldw	r3,15440(r3)
   29fe8:	183ff926 	beq	r3,zero,29fd0 <_fstat_r+0x30>
   29fec:	80c00015 	stw	r3,0(r16)
   29ff0:	dfc00117 	ldw	ra,4(sp)
   29ff4:	dc000017 	ldw	r16,0(sp)
   29ff8:	dec00204 	addi	sp,sp,8
   29ffc:	f800283a 	ret

0002a000 <_isatty_r>:
   2a000:	defffe04 	addi	sp,sp,-8
   2a004:	dc000015 	stw	r16,0(sp)
   2a008:	008000f4 	movhi	r2,3
   2a00c:	2021883a 	mov	r16,r4
   2a010:	2809883a 	mov	r4,r5
   2a014:	dfc00115 	stw	ra,4(sp)
   2a018:	100f1415 	stw	zero,15440(r2)
   2a01c:	002e2980 	call	2e298 <isatty>
   2a020:	10ffffd8 	cmpnei	r3,r2,-1
   2a024:	18000426 	beq	r3,zero,2a038 <_isatty_r+0x38>
   2a028:	dfc00117 	ldw	ra,4(sp)
   2a02c:	dc000017 	ldw	r16,0(sp)
   2a030:	dec00204 	addi	sp,sp,8
   2a034:	f800283a 	ret
   2a038:	00c000f4 	movhi	r3,3
   2a03c:	18cf1417 	ldw	r3,15440(r3)
   2a040:	183ff926 	beq	r3,zero,2a028 <_isatty_r+0x28>
   2a044:	80c00015 	stw	r3,0(r16)
   2a048:	dfc00117 	ldw	ra,4(sp)
   2a04c:	dc000017 	ldw	r16,0(sp)
   2a050:	dec00204 	addi	sp,sp,8
   2a054:	f800283a 	ret

0002a058 <_sbrk_r>:
   2a058:	defffe04 	addi	sp,sp,-8
   2a05c:	dc000015 	stw	r16,0(sp)
   2a060:	008000f4 	movhi	r2,3
   2a064:	2021883a 	mov	r16,r4
   2a068:	2809883a 	mov	r4,r5
   2a06c:	dfc00115 	stw	ra,4(sp)
   2a070:	100f1415 	stw	zero,15440(r2)
   2a074:	002e8f40 	call	2e8f4 <sbrk>
   2a078:	10ffffd8 	cmpnei	r3,r2,-1
   2a07c:	18000426 	beq	r3,zero,2a090 <_sbrk_r+0x38>
   2a080:	dfc00117 	ldw	ra,4(sp)
   2a084:	dc000017 	ldw	r16,0(sp)
   2a088:	dec00204 	addi	sp,sp,8
   2a08c:	f800283a 	ret
   2a090:	00c000f4 	movhi	r3,3
   2a094:	18cf1417 	ldw	r3,15440(r3)
   2a098:	183ff926 	beq	r3,zero,2a080 <_sbrk_r+0x28>
   2a09c:	80c00015 	stw	r3,0(r16)
   2a0a0:	dfc00117 	ldw	ra,4(sp)
   2a0a4:	dc000017 	ldw	r16,0(sp)
   2a0a8:	dec00204 	addi	sp,sp,8
   2a0ac:	f800283a 	ret

0002a0b0 <__call_exitprocs>:
   2a0b0:	defff804 	addi	sp,sp,-32
   2a0b4:	008000f4 	movhi	r2,3
   2a0b8:	dc800215 	stw	r18,8(sp)
   2a0bc:	148f1917 	ldw	r18,15460(r2)
   2a0c0:	dfc00715 	stw	ra,28(sp)
   2a0c4:	dd800615 	stw	r22,24(sp)
   2a0c8:	dd400515 	stw	r21,20(sp)
   2a0cc:	dd000415 	stw	r20,16(sp)
   2a0d0:	dcc00315 	stw	r19,12(sp)
   2a0d4:	dc400115 	stw	r17,4(sp)
   2a0d8:	dc000015 	stw	r16,0(sp)
   2a0dc:	90001026 	beq	r18,zero,2a120 <__call_exitprocs+0x70>
   2a0e0:	2029883a 	mov	r20,r4
   2a0e4:	282b883a 	mov	r21,r5
   2a0e8:	04c00044 	movi	r19,1
   2a0ec:	94000117 	ldw	r16,4(r18)
   2a0f0:	847fffc4 	addi	r17,r16,-1
   2a0f4:	88000a16 	blt	r17,zero,2a120 <__call_exitprocs+0x70>
   2a0f8:	84000044 	addi	r16,r16,1
   2a0fc:	802090ba 	slli	r16,r16,2
   2a100:	9421883a 	add	r16,r18,r16
   2a104:	a8001026 	beq	r21,zero,2a148 <__call_exitprocs+0x98>
   2a108:	80804017 	ldw	r2,256(r16)
   2a10c:	15400e26 	beq	r2,r21,2a148 <__call_exitprocs+0x98>
   2a110:	8c7fffc4 	addi	r17,r17,-1
   2a114:	88bfffd8 	cmpnei	r2,r17,-1
   2a118:	843fff04 	addi	r16,r16,-4
   2a11c:	103ff91e 	bne	r2,zero,2a104 <__call_exitprocs+0x54>
   2a120:	dfc00717 	ldw	ra,28(sp)
   2a124:	dd800617 	ldw	r22,24(sp)
   2a128:	dd400517 	ldw	r21,20(sp)
   2a12c:	dd000417 	ldw	r20,16(sp)
   2a130:	dcc00317 	ldw	r19,12(sp)
   2a134:	dc800217 	ldw	r18,8(sp)
   2a138:	dc400117 	ldw	r17,4(sp)
   2a13c:	dc000017 	ldw	r16,0(sp)
   2a140:	dec00804 	addi	sp,sp,32
   2a144:	f800283a 	ret
   2a148:	90800117 	ldw	r2,4(r18)
   2a14c:	81800017 	ldw	r6,0(r16)
   2a150:	10bfffc4 	addi	r2,r2,-1
   2a154:	14401826 	beq	r2,r17,2a1b8 <__call_exitprocs+0x108>
   2a158:	80000015 	stw	zero,0(r16)
   2a15c:	303fec26 	beq	r6,zero,2a110 <__call_exitprocs+0x60>
   2a160:	9c46983a 	sll	r3,r19,r17
   2a164:	90806217 	ldw	r2,392(r18)
   2a168:	95800117 	ldw	r22,4(r18)
   2a16c:	1884703a 	and	r2,r3,r2
   2a170:	1000091e 	bne	r2,zero,2a198 <__call_exitprocs+0xe8>
   2a174:	303ee83a 	callr	r6
   2a178:	90c00117 	ldw	r3,4(r18)
   2a17c:	008000f4 	movhi	r2,3
   2a180:	108f1917 	ldw	r2,15460(r2)
   2a184:	1d80011e 	bne	r3,r22,2a18c <__call_exitprocs+0xdc>
   2a188:	14bfe126 	beq	r2,r18,2a110 <__call_exitprocs+0x60>
   2a18c:	103fe426 	beq	r2,zero,2a120 <__call_exitprocs+0x70>
   2a190:	1025883a 	mov	r18,r2
   2a194:	003fd506 	br	2a0ec <__call_exitprocs+0x3c>
   2a198:	90806317 	ldw	r2,396(r18)
   2a19c:	81002017 	ldw	r4,128(r16)
   2a1a0:	1886703a 	and	r3,r3,r2
   2a1a4:	1800061e 	bne	r3,zero,2a1c0 <__call_exitprocs+0x110>
   2a1a8:	200b883a 	mov	r5,r4
   2a1ac:	a009883a 	mov	r4,r20
   2a1b0:	303ee83a 	callr	r6
   2a1b4:	003ff006 	br	2a178 <__call_exitprocs+0xc8>
   2a1b8:	94400115 	stw	r17,4(r18)
   2a1bc:	003fe706 	br	2a15c <__call_exitprocs+0xac>
   2a1c0:	303ee83a 	callr	r6
   2a1c4:	003fec06 	br	2a178 <__call_exitprocs+0xc8>

0002a1c8 <__assert_func>:
   2a1c8:	008000f4 	movhi	r2,3
   2a1cc:	1208cd17 	ldw	r8,9012(r2)
   2a1d0:	defffc04 	addi	sp,sp,-16
   2a1d4:	3807883a 	mov	r3,r7
   2a1d8:	3005883a 	mov	r2,r6
   2a1dc:	dfc00315 	stw	ra,12(sp)
   2a1e0:	42400317 	ldw	r9,12(r8)
   2a1e4:	200f883a 	mov	r7,r4
   2a1e8:	2811883a 	mov	r8,r5
   2a1ec:	180d883a 	mov	r6,r3
   2a1f0:	10000a26 	beq	r2,zero,2a21c <__assert_func+0x54>
   2a1f4:	00c000f4 	movhi	r3,3
   2a1f8:	18c24804 	addi	r3,r3,2336
   2a1fc:	014000f4 	movhi	r5,3
   2a200:	29424c04 	addi	r5,r5,2352
   2a204:	4809883a 	mov	r4,r9
   2a208:	d8c00115 	stw	r3,4(sp)
   2a20c:	da000015 	stw	r8,0(sp)
   2a210:	d8800215 	stw	r2,8(sp)
   2a214:	002a3c80 	call	2a3c8 <fiprintf>
   2a218:	002a4100 	call	2a410 <abort>
   2a21c:	00c000f4 	movhi	r3,3
   2a220:	18c24b04 	addi	r3,r3,2348
   2a224:	1805883a 	mov	r2,r3
   2a228:	003ff406 	br	2a1fc <__assert_func+0x34>

0002a22c <__assert>:
   2a22c:	deffff04 	addi	sp,sp,-4
   2a230:	300f883a 	mov	r7,r6
   2a234:	000d883a 	mov	r6,zero
   2a238:	dfc00015 	stw	ra,0(sp)
   2a23c:	002a1c80 	call	2a1c8 <__assert_func>

0002a240 <_calloc_r>:
   2a240:	2806d43a 	srli	r3,r5,16
   2a244:	defffb04 	addi	sp,sp,-20
   2a248:	dc000015 	stw	r16,0(sp)
   2a24c:	dfc00415 	stw	ra,16(sp)
   2a250:	dcc00315 	stw	r19,12(sp)
   2a254:	dc800215 	stw	r18,8(sp)
   2a258:	dc400115 	stw	r17,4(sp)
   2a25c:	2805883a 	mov	r2,r5
   2a260:	2021883a 	mov	r16,r4
   2a264:	300ad43a 	srli	r5,r6,16
   2a268:	18002d1e 	bne	r3,zero,2a320 <_calloc_r+0xe0>
   2a26c:	2800431e 	bne	r5,zero,2a37c <_calloc_r+0x13c>
   2a270:	317fffcc 	andi	r5,r6,65535
   2a274:	113fffcc 	andi	r4,r2,65535
   2a278:	002b47c0 	call	2b47c <__mulsi3>
   2a27c:	8009883a 	mov	r4,r16
   2a280:	100b883a 	mov	r5,r2
   2a284:	00279680 	call	27968 <_malloc_r>
   2a288:	1021883a 	mov	r16,r2
   2a28c:	10003926 	beq	r2,zero,2a374 <_calloc_r+0x134>
   2a290:	11bfff17 	ldw	r6,-4(r2)
   2a294:	00bfff04 	movi	r2,-4
   2a298:	308c703a 	and	r6,r6,r2
   2a29c:	31bfff04 	addi	r6,r6,-4
   2a2a0:	30800968 	cmpgeui	r2,r6,37
   2a2a4:	10000c1e 	bne	r2,zero,2a2d8 <_calloc_r+0x98>
   2a2a8:	30800530 	cmpltui	r2,r6,20
   2a2ac:	1000151e 	bne	r2,zero,2a304 <_calloc_r+0xc4>
   2a2b0:	80000015 	stw	zero,0(r16)
   2a2b4:	80000115 	stw	zero,4(r16)
   2a2b8:	30800728 	cmpgeui	r2,r6,28
   2a2bc:	10001626 	beq	r2,zero,2a318 <_calloc_r+0xd8>
   2a2c0:	80000215 	stw	zero,8(r16)
   2a2c4:	80000315 	stw	zero,12(r16)
   2a2c8:	31800920 	cmpeqi	r6,r6,36
   2a2cc:	3000321e 	bne	r6,zero,2a398 <_calloc_r+0x158>
   2a2d0:	80800404 	addi	r2,r16,16
   2a2d4:	00000c06 	br	2a308 <_calloc_r+0xc8>
   2a2d8:	000b883a 	mov	r5,zero
   2a2dc:	8009883a 	mov	r4,r16
   2a2e0:	00255c40 	call	255c4 <memset>
   2a2e4:	8005883a 	mov	r2,r16
   2a2e8:	dfc00417 	ldw	ra,16(sp)
   2a2ec:	dcc00317 	ldw	r19,12(sp)
   2a2f0:	dc800217 	ldw	r18,8(sp)
   2a2f4:	dc400117 	ldw	r17,4(sp)
   2a2f8:	dc000017 	ldw	r16,0(sp)
   2a2fc:	dec00504 	addi	sp,sp,20
   2a300:	f800283a 	ret
   2a304:	8005883a 	mov	r2,r16
   2a308:	10000015 	stw	zero,0(r2)
   2a30c:	10000115 	stw	zero,4(r2)
   2a310:	10000215 	stw	zero,8(r2)
   2a314:	003ff306 	br	2a2e4 <_calloc_r+0xa4>
   2a318:	80800204 	addi	r2,r16,8
   2a31c:	003ffa06 	br	2a308 <_calloc_r+0xc8>
   2a320:	2800191e 	bne	r5,zero,2a388 <_calloc_r+0x148>
   2a324:	1823883a 	mov	r17,r3
   2a328:	3027883a 	mov	r19,r6
   2a32c:	317fffcc 	andi	r5,r6,65535
   2a330:	113fffcc 	andi	r4,r2,65535
   2a334:	002b47c0 	call	2b47c <__mulsi3>
   2a338:	897fffcc 	andi	r5,r17,65535
   2a33c:	993fffcc 	andi	r4,r19,65535
   2a340:	1025883a 	mov	r18,r2
   2a344:	002b47c0 	call	2b47c <__mulsi3>
   2a348:	9006d43a 	srli	r3,r18,16
   2a34c:	10cb883a 	add	r5,r2,r3
   2a350:	2804d43a 	srli	r2,r5,16
   2a354:	10000c1e 	bne	r2,zero,2a388 <_calloc_r+0x148>
   2a358:	280a943a 	slli	r5,r5,16
   2a35c:	94bfffcc 	andi	r18,r18,65535
   2a360:	8009883a 	mov	r4,r16
   2a364:	2c8ab03a 	or	r5,r5,r18
   2a368:	00279680 	call	27968 <_malloc_r>
   2a36c:	1021883a 	mov	r16,r2
   2a370:	103fc71e 	bne	r2,zero,2a290 <_calloc_r+0x50>
   2a374:	0021883a 	mov	r16,zero
   2a378:	003fda06 	br	2a2e4 <_calloc_r+0xa4>
   2a37c:	2823883a 	mov	r17,r5
   2a380:	1027883a 	mov	r19,r2
   2a384:	003fe906 	br	2a32c <_calloc_r+0xec>
   2a388:	002a4040 	call	2a404 <__errno>
   2a38c:	00c00304 	movi	r3,12
   2a390:	10c00015 	stw	r3,0(r2)
   2a394:	003ff706 	br	2a374 <_calloc_r+0x134>
   2a398:	80000415 	stw	zero,16(r16)
   2a39c:	80800604 	addi	r2,r16,24
   2a3a0:	80000515 	stw	zero,20(r16)
   2a3a4:	003fd806 	br	2a308 <_calloc_r+0xc8>

0002a3a8 <_fiprintf_r>:
   2a3a8:	defffe04 	addi	sp,sp,-8
   2a3ac:	dfc00015 	stw	ra,0(sp)
   2a3b0:	d9c00115 	stw	r7,4(sp)
   2a3b4:	d9c00104 	addi	r7,sp,4
   2a3b8:	002a4000 	call	2a400 <_vfiprintf_r>
   2a3bc:	dfc00017 	ldw	ra,0(sp)
   2a3c0:	dec00204 	addi	sp,sp,8
   2a3c4:	f800283a 	ret

0002a3c8 <fiprintf>:
   2a3c8:	defffd04 	addi	sp,sp,-12
   2a3cc:	2005883a 	mov	r2,r4
   2a3d0:	dfc00015 	stw	ra,0(sp)
   2a3d4:	d9800115 	stw	r6,4(sp)
   2a3d8:	d9c00215 	stw	r7,8(sp)
   2a3dc:	00c000f4 	movhi	r3,3
   2a3e0:	1908cd17 	ldw	r4,9012(r3)
   2a3e4:	280d883a 	mov	r6,r5
   2a3e8:	d9c00104 	addi	r7,sp,4
   2a3ec:	100b883a 	mov	r5,r2
   2a3f0:	002a4000 	call	2a400 <_vfiprintf_r>
   2a3f4:	dfc00017 	ldw	ra,0(sp)
   2a3f8:	dec00304 	addi	sp,sp,12
   2a3fc:	f800283a 	ret

0002a400 <_vfiprintf_r>:
   2a400:	0022ed81 	jmpi	22ed8 <___vfiprintf_internal_r>

0002a404 <__errno>:
   2a404:	008000f4 	movhi	r2,3
   2a408:	1088cd17 	ldw	r2,9012(r2)
   2a40c:	f800283a 	ret

0002a410 <abort>:
   2a410:	deffff04 	addi	sp,sp,-4
   2a414:	01000184 	movi	r4,6
   2a418:	dfc00015 	stw	ra,0(sp)
   2a41c:	002a67c0 	call	2a67c <raise>
   2a420:	01000044 	movi	r4,1
   2a424:	002de700 	call	2de70 <_exit>

0002a428 <_init_signal_r>:
   2a428:	20804617 	ldw	r2,280(r4)
   2a42c:	10000226 	beq	r2,zero,2a438 <_init_signal_r+0x10>
   2a430:	0005883a 	mov	r2,zero
   2a434:	f800283a 	ret
   2a438:	defffe04 	addi	sp,sp,-8
   2a43c:	01402004 	movi	r5,128
   2a440:	dc000015 	stw	r16,0(sp)
   2a444:	dfc00115 	stw	ra,4(sp)
   2a448:	2021883a 	mov	r16,r4
   2a44c:	00279680 	call	27968 <_malloc_r>
   2a450:	80804615 	stw	r2,280(r16)
   2a454:	10000926 	beq	r2,zero,2a47c <_init_signal_r+0x54>
   2a458:	10c02004 	addi	r3,r2,128
   2a45c:	10000015 	stw	zero,0(r2)
   2a460:	10800104 	addi	r2,r2,4
   2a464:	10fffd1e 	bne	r2,r3,2a45c <_init_signal_r+0x34>
   2a468:	0005883a 	mov	r2,zero
   2a46c:	dfc00117 	ldw	ra,4(sp)
   2a470:	dc000017 	ldw	r16,0(sp)
   2a474:	dec00204 	addi	sp,sp,8
   2a478:	f800283a 	ret
   2a47c:	00bfffc4 	movi	r2,-1
   2a480:	003ffa06 	br	2a46c <_init_signal_r+0x44>

0002a484 <_signal_r>:
   2a484:	defffc04 	addi	sp,sp,-16
   2a488:	dc400215 	stw	r17,8(sp)
   2a48c:	dfc00315 	stw	ra,12(sp)
   2a490:	dc000115 	stw	r16,4(sp)
   2a494:	28800830 	cmpltui	r2,r5,32
   2a498:	2023883a 	mov	r17,r4
   2a49c:	10000c26 	beq	r2,zero,2a4d0 <_signal_r+0x4c>
   2a4a0:	20804617 	ldw	r2,280(r4)
   2a4a4:	2821883a 	mov	r16,r5
   2a4a8:	10000d26 	beq	r2,zero,2a4e0 <_signal_r+0x5c>
   2a4ac:	802090ba 	slli	r16,r16,2
   2a4b0:	1407883a 	add	r3,r2,r16
   2a4b4:	18800017 	ldw	r2,0(r3)
   2a4b8:	19800015 	stw	r6,0(r3)
   2a4bc:	dfc00317 	ldw	ra,12(sp)
   2a4c0:	dc400217 	ldw	r17,8(sp)
   2a4c4:	dc000117 	ldw	r16,4(sp)
   2a4c8:	dec00404 	addi	sp,sp,16
   2a4cc:	f800283a 	ret
   2a4d0:	00800584 	movi	r2,22
   2a4d4:	20800015 	stw	r2,0(r4)
   2a4d8:	00bfffc4 	movi	r2,-1
   2a4dc:	003ff706 	br	2a4bc <_signal_r+0x38>
   2a4e0:	01402004 	movi	r5,128
   2a4e4:	d9800015 	stw	r6,0(sp)
   2a4e8:	00279680 	call	27968 <_malloc_r>
   2a4ec:	88804615 	stw	r2,280(r17)
   2a4f0:	d9800017 	ldw	r6,0(sp)
   2a4f4:	103ff826 	beq	r2,zero,2a4d8 <_signal_r+0x54>
   2a4f8:	1007883a 	mov	r3,r2
   2a4fc:	11002004 	addi	r4,r2,128
   2a500:	18000015 	stw	zero,0(r3)
   2a504:	18c00104 	addi	r3,r3,4
   2a508:	193ffd1e 	bne	r3,r4,2a500 <_signal_r+0x7c>
   2a50c:	003fe706 	br	2a4ac <_signal_r+0x28>

0002a510 <_raise_r>:
   2a510:	28800830 	cmpltui	r2,r5,32
   2a514:	10002626 	beq	r2,zero,2a5b0 <_raise_r+0xa0>
   2a518:	20804617 	ldw	r2,280(r4)
   2a51c:	defffd04 	addi	sp,sp,-12
   2a520:	dc000115 	stw	r16,4(sp)
   2a524:	dfc00215 	stw	ra,8(sp)
   2a528:	2821883a 	mov	r16,r5
   2a52c:	10001026 	beq	r2,zero,2a570 <_raise_r+0x60>
   2a530:	280690ba 	slli	r3,r5,2
   2a534:	10c5883a 	add	r2,r2,r3
   2a538:	10c00017 	ldw	r3,0(r2)
   2a53c:	18000c26 	beq	r3,zero,2a570 <_raise_r+0x60>
   2a540:	19400060 	cmpeqi	r5,r3,1
   2a544:	2800051e 	bne	r5,zero,2a55c <_raise_r+0x4c>
   2a548:	197fffd8 	cmpnei	r5,r3,-1
   2a54c:	28001126 	beq	r5,zero,2a594 <_raise_r+0x84>
   2a550:	10000015 	stw	zero,0(r2)
   2a554:	8009883a 	mov	r4,r16
   2a558:	183ee83a 	callr	r3
   2a55c:	0005883a 	mov	r2,zero
   2a560:	dfc00217 	ldw	ra,8(sp)
   2a564:	dc000117 	ldw	r16,4(sp)
   2a568:	dec00304 	addi	sp,sp,12
   2a56c:	f800283a 	ret
   2a570:	d9000015 	stw	r4,0(sp)
   2a574:	002a9440 	call	2a944 <_getpid_r>
   2a578:	d9000017 	ldw	r4,0(sp)
   2a57c:	800d883a 	mov	r6,r16
   2a580:	100b883a 	mov	r5,r2
   2a584:	dfc00217 	ldw	ra,8(sp)
   2a588:	dc000117 	ldw	r16,4(sp)
   2a58c:	dec00304 	addi	sp,sp,12
   2a590:	002a8e41 	jmpi	2a8e4 <_kill_r>
   2a594:	00800584 	movi	r2,22
   2a598:	20800015 	stw	r2,0(r4)
   2a59c:	00800044 	movi	r2,1
   2a5a0:	dfc00217 	ldw	ra,8(sp)
   2a5a4:	dc000117 	ldw	r16,4(sp)
   2a5a8:	dec00304 	addi	sp,sp,12
   2a5ac:	f800283a 	ret
   2a5b0:	00800584 	movi	r2,22
   2a5b4:	20800015 	stw	r2,0(r4)
   2a5b8:	00bfffc4 	movi	r2,-1
   2a5bc:	f800283a 	ret

0002a5c0 <__sigtramp_r>:
   2a5c0:	28800830 	cmpltui	r2,r5,32
   2a5c4:	10002b26 	beq	r2,zero,2a674 <__sigtramp_r+0xb4>
   2a5c8:	20804617 	ldw	r2,280(r4)
   2a5cc:	defffd04 	addi	sp,sp,-12
   2a5d0:	dc400115 	stw	r17,4(sp)
   2a5d4:	dc000015 	stw	r16,0(sp)
   2a5d8:	dfc00215 	stw	ra,8(sp)
   2a5dc:	2821883a 	mov	r16,r5
   2a5e0:	2023883a 	mov	r17,r4
   2a5e4:	10001726 	beq	r2,zero,2a644 <__sigtramp_r+0x84>
   2a5e8:	800690ba 	slli	r3,r16,2
   2a5ec:	10c5883a 	add	r2,r2,r3
   2a5f0:	10c00017 	ldw	r3,0(r2)
   2a5f4:	18000d26 	beq	r3,zero,2a62c <__sigtramp_r+0x6c>
   2a5f8:	193fffe0 	cmpeqi	r4,r3,-1
   2a5fc:	20000f1e 	bne	r4,zero,2a63c <__sigtramp_r+0x7c>
   2a600:	19000060 	cmpeqi	r4,r3,1
   2a604:	20000b1e 	bne	r4,zero,2a634 <__sigtramp_r+0x74>
   2a608:	10000015 	stw	zero,0(r2)
   2a60c:	8009883a 	mov	r4,r16
   2a610:	183ee83a 	callr	r3
   2a614:	0005883a 	mov	r2,zero
   2a618:	dfc00217 	ldw	ra,8(sp)
   2a61c:	dc400117 	ldw	r17,4(sp)
   2a620:	dc000017 	ldw	r16,0(sp)
   2a624:	dec00304 	addi	sp,sp,12
   2a628:	f800283a 	ret
   2a62c:	00800044 	movi	r2,1
   2a630:	003ff906 	br	2a618 <__sigtramp_r+0x58>
   2a634:	008000c4 	movi	r2,3
   2a638:	003ff706 	br	2a618 <__sigtramp_r+0x58>
   2a63c:	00800084 	movi	r2,2
   2a640:	003ff506 	br	2a618 <__sigtramp_r+0x58>
   2a644:	01402004 	movi	r5,128
   2a648:	00279680 	call	27968 <_malloc_r>
   2a64c:	88804615 	stw	r2,280(r17)
   2a650:	10000626 	beq	r2,zero,2a66c <__sigtramp_r+0xac>
   2a654:	1007883a 	mov	r3,r2
   2a658:	11002004 	addi	r4,r2,128
   2a65c:	18000015 	stw	zero,0(r3)
   2a660:	18c00104 	addi	r3,r3,4
   2a664:	20fffd1e 	bne	r4,r3,2a65c <__sigtramp_r+0x9c>
   2a668:	003fdf06 	br	2a5e8 <__sigtramp_r+0x28>
   2a66c:	00bfffc4 	movi	r2,-1
   2a670:	003fe906 	br	2a618 <__sigtramp_r+0x58>
   2a674:	00bfffc4 	movi	r2,-1
   2a678:	f800283a 	ret

0002a67c <raise>:
   2a67c:	defffd04 	addi	sp,sp,-12
   2a680:	dc400115 	stw	r17,4(sp)
   2a684:	00c000f4 	movhi	r3,3
   2a688:	dfc00215 	stw	ra,8(sp)
   2a68c:	dc000015 	stw	r16,0(sp)
   2a690:	20800830 	cmpltui	r2,r4,32
   2a694:	1c48cd17 	ldw	r17,9012(r3)
   2a698:	10002126 	beq	r2,zero,2a720 <raise+0xa4>
   2a69c:	88804617 	ldw	r2,280(r17)
   2a6a0:	2021883a 	mov	r16,r4
   2a6a4:	10001026 	beq	r2,zero,2a6e8 <raise+0x6c>
   2a6a8:	200690ba 	slli	r3,r4,2
   2a6ac:	10c5883a 	add	r2,r2,r3
   2a6b0:	10c00017 	ldw	r3,0(r2)
   2a6b4:	18000c26 	beq	r3,zero,2a6e8 <raise+0x6c>
   2a6b8:	19400060 	cmpeqi	r5,r3,1
   2a6bc:	2800041e 	bne	r5,zero,2a6d0 <raise+0x54>
   2a6c0:	197fffd8 	cmpnei	r5,r3,-1
   2a6c4:	28001226 	beq	r5,zero,2a710 <raise+0x94>
   2a6c8:	10000015 	stw	zero,0(r2)
   2a6cc:	183ee83a 	callr	r3
   2a6d0:	0005883a 	mov	r2,zero
   2a6d4:	dfc00217 	ldw	ra,8(sp)
   2a6d8:	dc400117 	ldw	r17,4(sp)
   2a6dc:	dc000017 	ldw	r16,0(sp)
   2a6e0:	dec00304 	addi	sp,sp,12
   2a6e4:	f800283a 	ret
   2a6e8:	8809883a 	mov	r4,r17
   2a6ec:	002a9440 	call	2a944 <_getpid_r>
   2a6f0:	800d883a 	mov	r6,r16
   2a6f4:	100b883a 	mov	r5,r2
   2a6f8:	8809883a 	mov	r4,r17
   2a6fc:	dfc00217 	ldw	ra,8(sp)
   2a700:	dc400117 	ldw	r17,4(sp)
   2a704:	dc000017 	ldw	r16,0(sp)
   2a708:	dec00304 	addi	sp,sp,12
   2a70c:	002a8e41 	jmpi	2a8e4 <_kill_r>
   2a710:	00800584 	movi	r2,22
   2a714:	88800015 	stw	r2,0(r17)
   2a718:	00800044 	movi	r2,1
   2a71c:	003fed06 	br	2a6d4 <raise+0x58>
   2a720:	00800584 	movi	r2,22
   2a724:	88800015 	stw	r2,0(r17)
   2a728:	00bfffc4 	movi	r2,-1
   2a72c:	003fe906 	br	2a6d4 <raise+0x58>

0002a730 <signal>:
   2a730:	defffc04 	addi	sp,sp,-16
   2a734:	dc800215 	stw	r18,8(sp)
   2a738:	00c000f4 	movhi	r3,3
   2a73c:	dfc00315 	stw	ra,12(sp)
   2a740:	dc400115 	stw	r17,4(sp)
   2a744:	dc000015 	stw	r16,0(sp)
   2a748:	20800830 	cmpltui	r2,r4,32
   2a74c:	1c88cd17 	ldw	r18,9012(r3)
   2a750:	10000e26 	beq	r2,zero,2a78c <signal+0x5c>
   2a754:	90804617 	ldw	r2,280(r18)
   2a758:	2021883a 	mov	r16,r4
   2a75c:	2823883a 	mov	r17,r5
   2a760:	10000e26 	beq	r2,zero,2a79c <signal+0x6c>
   2a764:	802090ba 	slli	r16,r16,2
   2a768:	1407883a 	add	r3,r2,r16
   2a76c:	18800017 	ldw	r2,0(r3)
   2a770:	1c400015 	stw	r17,0(r3)
   2a774:	dfc00317 	ldw	ra,12(sp)
   2a778:	dc800217 	ldw	r18,8(sp)
   2a77c:	dc400117 	ldw	r17,4(sp)
   2a780:	dc000017 	ldw	r16,0(sp)
   2a784:	dec00404 	addi	sp,sp,16
   2a788:	f800283a 	ret
   2a78c:	00800584 	movi	r2,22
   2a790:	90800015 	stw	r2,0(r18)
   2a794:	00bfffc4 	movi	r2,-1
   2a798:	003ff606 	br	2a774 <signal+0x44>
   2a79c:	01402004 	movi	r5,128
   2a7a0:	9009883a 	mov	r4,r18
   2a7a4:	00279680 	call	27968 <_malloc_r>
   2a7a8:	90804615 	stw	r2,280(r18)
   2a7ac:	103ff926 	beq	r2,zero,2a794 <signal+0x64>
   2a7b0:	1007883a 	mov	r3,r2
   2a7b4:	11002004 	addi	r4,r2,128
   2a7b8:	18000015 	stw	zero,0(r3)
   2a7bc:	18c00104 	addi	r3,r3,4
   2a7c0:	20fffd1e 	bne	r4,r3,2a7b8 <signal+0x88>
   2a7c4:	003fe706 	br	2a764 <signal+0x34>

0002a7c8 <_init_signal>:
   2a7c8:	defffe04 	addi	sp,sp,-8
   2a7cc:	008000f4 	movhi	r2,3
   2a7d0:	dc000015 	stw	r16,0(sp)
   2a7d4:	1408cd17 	ldw	r16,9012(r2)
   2a7d8:	dfc00115 	stw	ra,4(sp)
   2a7dc:	80804617 	ldw	r2,280(r16)
   2a7e0:	10000526 	beq	r2,zero,2a7f8 <_init_signal+0x30>
   2a7e4:	0005883a 	mov	r2,zero
   2a7e8:	dfc00117 	ldw	ra,4(sp)
   2a7ec:	dc000017 	ldw	r16,0(sp)
   2a7f0:	dec00204 	addi	sp,sp,8
   2a7f4:	f800283a 	ret
   2a7f8:	01402004 	movi	r5,128
   2a7fc:	8009883a 	mov	r4,r16
   2a800:	00279680 	call	27968 <_malloc_r>
   2a804:	80804615 	stw	r2,280(r16)
   2a808:	10000526 	beq	r2,zero,2a820 <_init_signal+0x58>
   2a80c:	10c02004 	addi	r3,r2,128
   2a810:	10000015 	stw	zero,0(r2)
   2a814:	10800104 	addi	r2,r2,4
   2a818:	10fffd1e 	bne	r2,r3,2a810 <_init_signal+0x48>
   2a81c:	003ff106 	br	2a7e4 <_init_signal+0x1c>
   2a820:	00bfffc4 	movi	r2,-1
   2a824:	003ff006 	br	2a7e8 <_init_signal+0x20>

0002a828 <__sigtramp>:
   2a828:	defffd04 	addi	sp,sp,-12
   2a82c:	dc400115 	stw	r17,4(sp)
   2a830:	00c000f4 	movhi	r3,3
   2a834:	dfc00215 	stw	ra,8(sp)
   2a838:	dc000015 	stw	r16,0(sp)
   2a83c:	20800830 	cmpltui	r2,r4,32
   2a840:	1c48cd17 	ldw	r17,9012(r3)
   2a844:	10002526 	beq	r2,zero,2a8dc <__sigtramp+0xb4>
   2a848:	88804617 	ldw	r2,280(r17)
   2a84c:	2021883a 	mov	r16,r4
   2a850:	10001726 	beq	r2,zero,2a8b0 <__sigtramp+0x88>
   2a854:	800690ba 	slli	r3,r16,2
   2a858:	10c5883a 	add	r2,r2,r3
   2a85c:	10c00017 	ldw	r3,0(r2)
   2a860:	18000d26 	beq	r3,zero,2a898 <__sigtramp+0x70>
   2a864:	193fffe0 	cmpeqi	r4,r3,-1
   2a868:	20000f1e 	bne	r4,zero,2a8a8 <__sigtramp+0x80>
   2a86c:	19000060 	cmpeqi	r4,r3,1
   2a870:	20000b1e 	bne	r4,zero,2a8a0 <__sigtramp+0x78>
   2a874:	10000015 	stw	zero,0(r2)
   2a878:	8009883a 	mov	r4,r16
   2a87c:	183ee83a 	callr	r3
   2a880:	0005883a 	mov	r2,zero
   2a884:	dfc00217 	ldw	ra,8(sp)
   2a888:	dc400117 	ldw	r17,4(sp)
   2a88c:	dc000017 	ldw	r16,0(sp)
   2a890:	dec00304 	addi	sp,sp,12
   2a894:	f800283a 	ret
   2a898:	00800044 	movi	r2,1
   2a89c:	003ff906 	br	2a884 <__sigtramp+0x5c>
   2a8a0:	008000c4 	movi	r2,3
   2a8a4:	003ff706 	br	2a884 <__sigtramp+0x5c>
   2a8a8:	00800084 	movi	r2,2
   2a8ac:	003ff506 	br	2a884 <__sigtramp+0x5c>
   2a8b0:	01402004 	movi	r5,128
   2a8b4:	8809883a 	mov	r4,r17
   2a8b8:	00279680 	call	27968 <_malloc_r>
   2a8bc:	88804615 	stw	r2,280(r17)
   2a8c0:	10000626 	beq	r2,zero,2a8dc <__sigtramp+0xb4>
   2a8c4:	1007883a 	mov	r3,r2
   2a8c8:	11002004 	addi	r4,r2,128
   2a8cc:	18000015 	stw	zero,0(r3)
   2a8d0:	18c00104 	addi	r3,r3,4
   2a8d4:	20fffd1e 	bne	r4,r3,2a8cc <__sigtramp+0xa4>
   2a8d8:	003fde06 	br	2a854 <__sigtramp+0x2c>
   2a8dc:	00bfffc4 	movi	r2,-1
   2a8e0:	003fe806 	br	2a884 <__sigtramp+0x5c>

0002a8e4 <_kill_r>:
   2a8e4:	2807883a 	mov	r3,r5
   2a8e8:	defffe04 	addi	sp,sp,-8
   2a8ec:	dc000015 	stw	r16,0(sp)
   2a8f0:	008000f4 	movhi	r2,3
   2a8f4:	300b883a 	mov	r5,r6
   2a8f8:	2021883a 	mov	r16,r4
   2a8fc:	1809883a 	mov	r4,r3
   2a900:	dfc00115 	stw	ra,4(sp)
   2a904:	100f1415 	stw	zero,15440(r2)
   2a908:	002e3840 	call	2e384 <kill>
   2a90c:	10ffffd8 	cmpnei	r3,r2,-1
   2a910:	18000426 	beq	r3,zero,2a924 <_kill_r+0x40>
   2a914:	dfc00117 	ldw	ra,4(sp)
   2a918:	dc000017 	ldw	r16,0(sp)
   2a91c:	dec00204 	addi	sp,sp,8
   2a920:	f800283a 	ret
   2a924:	00c000f4 	movhi	r3,3
   2a928:	18cf1417 	ldw	r3,15440(r3)
   2a92c:	183ff926 	beq	r3,zero,2a914 <_kill_r+0x30>
   2a930:	80c00015 	stw	r3,0(r16)
   2a934:	dfc00117 	ldw	ra,4(sp)
   2a938:	dc000017 	ldw	r16,0(sp)
   2a93c:	dec00204 	addi	sp,sp,8
   2a940:	f800283a 	ret

0002a944 <_getpid_r>:
   2a944:	002dfa41 	jmpi	2dfa4 <getpid>

0002a948 <__udivdi3>:
   2a948:	defff504 	addi	sp,sp,-44
   2a94c:	dc800315 	stw	r18,12(sp)
   2a950:	dc000115 	stw	r16,4(sp)
   2a954:	dfc00a15 	stw	ra,40(sp)
   2a958:	df000915 	stw	fp,36(sp)
   2a95c:	ddc00815 	stw	r23,32(sp)
   2a960:	dd800715 	stw	r22,28(sp)
   2a964:	dd400615 	stw	r21,24(sp)
   2a968:	dd000515 	stw	r20,20(sp)
   2a96c:	dcc00415 	stw	r19,16(sp)
   2a970:	dc400215 	stw	r17,8(sp)
   2a974:	2025883a 	mov	r18,r4
   2a978:	2821883a 	mov	r16,r5
   2a97c:	3800451e 	bne	r7,zero,2aa94 <__udivdi3+0x14c>
   2a980:	3023883a 	mov	r17,r6
   2a984:	2027883a 	mov	r19,r4
   2a988:	2980622e 	bgeu	r5,r6,2ab14 <__udivdi3+0x1cc>
   2a98c:	00bfffd4 	movui	r2,65535
   2a990:	282d883a 	mov	r22,r5
   2a994:	1180a22e 	bgeu	r2,r6,2ac20 <__udivdi3+0x2d8>
   2a998:	00804034 	movhi	r2,256
   2a99c:	30814736 	bltu	r6,r2,2aebc <__udivdi3+0x574>
   2a9a0:	00c00604 	movi	r3,24
   2a9a4:	30cad83a 	srl	r5,r6,r3
   2a9a8:	008000f4 	movhi	r2,3
   2a9ac:	01000804 	movi	r4,32
   2a9b0:	2885883a 	add	r2,r5,r2
   2a9b4:	10825803 	ldbu	r2,2400(r2)
   2a9b8:	10c5883a 	add	r2,r2,r3
   2a9bc:	2087c83a 	sub	r3,r4,r2
   2a9c0:	20800526 	beq	r4,r2,2a9d8 <__udivdi3+0x90>
   2a9c4:	80ec983a 	sll	r22,r16,r3
   2a9c8:	9084d83a 	srl	r2,r18,r2
   2a9cc:	30e2983a 	sll	r17,r6,r3
   2a9d0:	90e6983a 	sll	r19,r18,r3
   2a9d4:	15acb03a 	or	r22,r2,r22
   2a9d8:	8828d43a 	srli	r20,r17,16
   2a9dc:	b009883a 	mov	r4,r22
   2a9e0:	8d7fffcc 	andi	r21,r17,65535
   2a9e4:	a00b883a 	mov	r5,r20
   2a9e8:	00208a40 	call	208a4 <__umodsi3>
   2a9ec:	a00b883a 	mov	r5,r20
   2a9f0:	b009883a 	mov	r4,r22
   2a9f4:	1025883a 	mov	r18,r2
   2a9f8:	00208400 	call	20840 <__udivsi3>
   2a9fc:	a809883a 	mov	r4,r21
   2aa00:	100b883a 	mov	r5,r2
   2aa04:	1021883a 	mov	r16,r2
   2aa08:	002b47c0 	call	2b47c <__mulsi3>
   2aa0c:	9008943a 	slli	r4,r18,16
   2aa10:	9806d43a 	srli	r3,r19,16
   2aa14:	20c8b03a 	or	r4,r4,r3
   2aa18:	2080052e 	bgeu	r4,r2,2aa30 <__udivdi3+0xe8>
   2aa1c:	2449883a 	add	r4,r4,r17
   2aa20:	80ffffc4 	addi	r3,r16,-1
   2aa24:	24400136 	bltu	r4,r17,2aa2c <__udivdi3+0xe4>
   2aa28:	20813a36 	bltu	r4,r2,2af14 <__udivdi3+0x5cc>
   2aa2c:	1821883a 	mov	r16,r3
   2aa30:	20a5c83a 	sub	r18,r4,r2
   2aa34:	a00b883a 	mov	r5,r20
   2aa38:	9009883a 	mov	r4,r18
   2aa3c:	00208a40 	call	208a4 <__umodsi3>
   2aa40:	a00b883a 	mov	r5,r20
   2aa44:	9009883a 	mov	r4,r18
   2aa48:	1025883a 	mov	r18,r2
   2aa4c:	00208400 	call	20840 <__udivsi3>
   2aa50:	100b883a 	mov	r5,r2
   2aa54:	a809883a 	mov	r4,r21
   2aa58:	1029883a 	mov	r20,r2
   2aa5c:	002b47c0 	call	2b47c <__mulsi3>
   2aa60:	9006943a 	slli	r3,r18,16
   2aa64:	9cffffcc 	andi	r19,r19,65535
   2aa68:	1cc6b03a 	or	r3,r3,r19
   2aa6c:	1880052e 	bgeu	r3,r2,2aa84 <__udivdi3+0x13c>
   2aa70:	88c7883a 	add	r3,r17,r3
   2aa74:	a13fffc4 	addi	r4,r20,-1
   2aa78:	1c400136 	bltu	r3,r17,2aa80 <__udivdi3+0x138>
   2aa7c:	18811e36 	bltu	r3,r2,2aef8 <__udivdi3+0x5b0>
   2aa80:	2029883a 	mov	r20,r4
   2aa84:	800c943a 	slli	r6,r16,16
   2aa88:	0007883a 	mov	r3,zero
   2aa8c:	3504b03a 	or	r2,r6,r20
   2aa90:	00000306 	br	2aaa0 <__udivdi3+0x158>
   2aa94:	29c00e2e 	bgeu	r5,r7,2aad0 <__udivdi3+0x188>
   2aa98:	0007883a 	mov	r3,zero
   2aa9c:	0005883a 	mov	r2,zero
   2aaa0:	dfc00a17 	ldw	ra,40(sp)
   2aaa4:	df000917 	ldw	fp,36(sp)
   2aaa8:	ddc00817 	ldw	r23,32(sp)
   2aaac:	dd800717 	ldw	r22,28(sp)
   2aab0:	dd400617 	ldw	r21,24(sp)
   2aab4:	dd000517 	ldw	r20,20(sp)
   2aab8:	dcc00417 	ldw	r19,16(sp)
   2aabc:	dc800317 	ldw	r18,12(sp)
   2aac0:	dc400217 	ldw	r17,8(sp)
   2aac4:	dc000117 	ldw	r16,4(sp)
   2aac8:	dec00b04 	addi	sp,sp,44
   2aacc:	f800283a 	ret
   2aad0:	00bfffd4 	movui	r2,65535
   2aad4:	11c05b2e 	bgeu	r2,r7,2ac44 <__udivdi3+0x2fc>
   2aad8:	00804034 	movhi	r2,256
   2aadc:	3880f536 	bltu	r7,r2,2aeb4 <__udivdi3+0x56c>
   2aae0:	00c00604 	movi	r3,24
   2aae4:	38cad83a 	srl	r5,r7,r3
   2aae8:	008000f4 	movhi	r2,3
   2aaec:	01000804 	movi	r4,32
   2aaf0:	2885883a 	add	r2,r5,r2
   2aaf4:	10825803 	ldbu	r2,2400(r2)
   2aaf8:	10c5883a 	add	r2,r2,r3
   2aafc:	20a3c83a 	sub	r17,r4,r2
   2ab00:	20808a1e 	bne	r4,r2,2ad2c <__udivdi3+0x3e4>
   2ab04:	3c00ef36 	bltu	r7,r16,2aec4 <__udivdi3+0x57c>
   2ab08:	9185403a 	cmpgeu	r2,r18,r6
   2ab0c:	0007883a 	mov	r3,zero
   2ab10:	003fe306 	br	2aaa0 <__udivdi3+0x158>
   2ab14:	3000451e 	bne	r6,zero,2ac2c <__udivdi3+0x2e4>
   2ab18:	000b883a 	mov	r5,zero
   2ab1c:	01000044 	movi	r4,1
   2ab20:	00208400 	call	20840 <__udivsi3>
   2ab24:	1023883a 	mov	r17,r2
   2ab28:	88804028 	cmpgeui	r2,r17,256
   2ab2c:	100490fa 	slli	r2,r2,3
   2ab30:	888ad83a 	srl	r5,r17,r2
   2ab34:	00c000f4 	movhi	r3,3
   2ab38:	01000804 	movi	r4,32
   2ab3c:	28c7883a 	add	r3,r5,r3
   2ab40:	1d825803 	ldbu	r22,2400(r3)
   2ab44:	b0ad883a 	add	r22,r22,r2
   2ab48:	2587c83a 	sub	r3,r4,r22
   2ab4c:	2580401e 	bne	r4,r22,2ac50 <__udivdi3+0x308>
   2ab50:	8828d43a 	srli	r20,r17,16
   2ab54:	8461c83a 	sub	r16,r16,r17
   2ab58:	8d7fffcc 	andi	r21,r17,65535
   2ab5c:	00c00044 	movi	r3,1
   2ab60:	8009883a 	mov	r4,r16
   2ab64:	a00b883a 	mov	r5,r20
   2ab68:	d8c00015 	stw	r3,0(sp)
   2ab6c:	00208a40 	call	208a4 <__umodsi3>
   2ab70:	8009883a 	mov	r4,r16
   2ab74:	a00b883a 	mov	r5,r20
   2ab78:	1025883a 	mov	r18,r2
   2ab7c:	00208400 	call	20840 <__udivsi3>
   2ab80:	a80b883a 	mov	r5,r21
   2ab84:	1009883a 	mov	r4,r2
   2ab88:	1021883a 	mov	r16,r2
   2ab8c:	002b47c0 	call	2b47c <__mulsi3>
   2ab90:	9008943a 	slli	r4,r18,16
   2ab94:	980ad43a 	srli	r5,r19,16
   2ab98:	d8c00017 	ldw	r3,0(sp)
   2ab9c:	2148b03a 	or	r4,r4,r5
   2aba0:	2080052e 	bgeu	r4,r2,2abb8 <__udivdi3+0x270>
   2aba4:	2449883a 	add	r4,r4,r17
   2aba8:	817fffc4 	addi	r5,r16,-1
   2abac:	24400136 	bltu	r4,r17,2abb4 <__udivdi3+0x26c>
   2abb0:	2080d336 	bltu	r4,r2,2af00 <__udivdi3+0x5b8>
   2abb4:	2821883a 	mov	r16,r5
   2abb8:	20a5c83a 	sub	r18,r4,r2
   2abbc:	a00b883a 	mov	r5,r20
   2abc0:	9009883a 	mov	r4,r18
   2abc4:	d8c00015 	stw	r3,0(sp)
   2abc8:	00208a40 	call	208a4 <__umodsi3>
   2abcc:	a00b883a 	mov	r5,r20
   2abd0:	9009883a 	mov	r4,r18
   2abd4:	1025883a 	mov	r18,r2
   2abd8:	00208400 	call	20840 <__udivsi3>
   2abdc:	a80b883a 	mov	r5,r21
   2abe0:	1009883a 	mov	r4,r2
   2abe4:	1029883a 	mov	r20,r2
   2abe8:	002b47c0 	call	2b47c <__mulsi3>
   2abec:	900a943a 	slli	r5,r18,16
   2abf0:	9cffffcc 	andi	r19,r19,65535
   2abf4:	d8c00017 	ldw	r3,0(sp)
   2abf8:	2ccab03a 	or	r5,r5,r19
   2abfc:	2880052e 	bgeu	r5,r2,2ac14 <__udivdi3+0x2cc>
   2ac00:	894b883a 	add	r5,r17,r5
   2ac04:	a13fffc4 	addi	r4,r20,-1
   2ac08:	2c400136 	bltu	r5,r17,2ac10 <__udivdi3+0x2c8>
   2ac0c:	2880b836 	bltu	r5,r2,2aef0 <__udivdi3+0x5a8>
   2ac10:	2029883a 	mov	r20,r4
   2ac14:	800c943a 	slli	r6,r16,16
   2ac18:	3504b03a 	or	r2,r6,r20
   2ac1c:	003fa006 	br	2aaa0 <__udivdi3+0x158>
   2ac20:	30c04028 	cmpgeui	r3,r6,256
   2ac24:	180690fa 	slli	r3,r3,3
   2ac28:	003f5e06 	br	2a9a4 <__udivdi3+0x5c>
   2ac2c:	00bfffd4 	movui	r2,65535
   2ac30:	11bfbd2e 	bgeu	r2,r6,2ab28 <__udivdi3+0x1e0>
   2ac34:	00804034 	movhi	r2,256
   2ac38:	3080b42e 	bgeu	r6,r2,2af0c <__udivdi3+0x5c4>
   2ac3c:	00800404 	movi	r2,16
   2ac40:	003fbb06 	br	2ab30 <__udivdi3+0x1e8>
   2ac44:	38c04028 	cmpgeui	r3,r7,256
   2ac48:	180690fa 	slli	r3,r3,3
   2ac4c:	003fa506 	br	2aae4 <__udivdi3+0x19c>
   2ac50:	88e2983a 	sll	r17,r17,r3
   2ac54:	85aad83a 	srl	r21,r16,r22
   2ac58:	80e0983a 	sll	r16,r16,r3
   2ac5c:	8828d43a 	srli	r20,r17,16
   2ac60:	a809883a 	mov	r4,r21
   2ac64:	95acd83a 	srl	r22,r18,r22
   2ac68:	a00b883a 	mov	r5,r20
   2ac6c:	90e6983a 	sll	r19,r18,r3
   2ac70:	00208a40 	call	208a4 <__umodsi3>
   2ac74:	a809883a 	mov	r4,r21
   2ac78:	a00b883a 	mov	r5,r20
   2ac7c:	b42cb03a 	or	r22,r22,r16
   2ac80:	8d7fffcc 	andi	r21,r17,65535
   2ac84:	1021883a 	mov	r16,r2
   2ac88:	00208400 	call	20840 <__udivsi3>
   2ac8c:	a809883a 	mov	r4,r21
   2ac90:	100b883a 	mov	r5,r2
   2ac94:	1025883a 	mov	r18,r2
   2ac98:	002b47c0 	call	2b47c <__mulsi3>
   2ac9c:	8008943a 	slli	r4,r16,16
   2aca0:	b006d43a 	srli	r3,r22,16
   2aca4:	20c8b03a 	or	r4,r4,r3
   2aca8:	2080062e 	bgeu	r4,r2,2acc4 <__udivdi3+0x37c>
   2acac:	2449883a 	add	r4,r4,r17
   2acb0:	90ffffc4 	addi	r3,r18,-1
   2acb4:	24408c36 	bltu	r4,r17,2aee8 <__udivdi3+0x5a0>
   2acb8:	20808b2e 	bgeu	r4,r2,2aee8 <__udivdi3+0x5a0>
   2acbc:	94bfff84 	addi	r18,r18,-2
   2acc0:	2449883a 	add	r4,r4,r17
   2acc4:	20a1c83a 	sub	r16,r4,r2
   2acc8:	8009883a 	mov	r4,r16
   2accc:	a00b883a 	mov	r5,r20
   2acd0:	00208a40 	call	208a4 <__umodsi3>
   2acd4:	8009883a 	mov	r4,r16
   2acd8:	1021883a 	mov	r16,r2
   2acdc:	a00b883a 	mov	r5,r20
   2ace0:	8020943a 	slli	r16,r16,16
   2ace4:	00208400 	call	20840 <__udivsi3>
   2ace8:	100b883a 	mov	r5,r2
   2acec:	a809883a 	mov	r4,r21
   2acf0:	b5bfffcc 	andi	r22,r22,65535
   2acf4:	102f883a 	mov	r23,r2
   2acf8:	85a0b03a 	or	r16,r16,r22
   2acfc:	002b47c0 	call	2b47c <__mulsi3>
   2ad00:	8080062e 	bgeu	r16,r2,2ad1c <__udivdi3+0x3d4>
   2ad04:	8461883a 	add	r16,r16,r17
   2ad08:	b8ffffc4 	addi	r3,r23,-1
   2ad0c:	84407236 	bltu	r16,r17,2aed8 <__udivdi3+0x590>
   2ad10:	8080712e 	bgeu	r16,r2,2aed8 <__udivdi3+0x590>
   2ad14:	bdffff84 	addi	r23,r23,-2
   2ad18:	8461883a 	add	r16,r16,r17
   2ad1c:	9006943a 	slli	r3,r18,16
   2ad20:	80a1c83a 	sub	r16,r16,r2
   2ad24:	1dc6b03a 	or	r3,r3,r23
   2ad28:	003f8d06 	br	2ab60 <__udivdi3+0x218>
   2ad2c:	30a8d83a 	srl	r20,r6,r2
   2ad30:	3c4e983a 	sll	r7,r7,r17
   2ad34:	80aed83a 	srl	r23,r16,r2
   2ad38:	90a6d83a 	srl	r19,r18,r2
   2ad3c:	a1e8b03a 	or	r20,r20,r7
   2ad40:	a02ad43a 	srli	r21,r20,16
   2ad44:	8444983a 	sll	r2,r16,r17
   2ad48:	b809883a 	mov	r4,r23
   2ad4c:	a80b883a 	mov	r5,r21
   2ad50:	346c983a 	sll	r22,r6,r17
   2ad54:	98a6b03a 	or	r19,r19,r2
   2ad58:	00208a40 	call	208a4 <__umodsi3>
   2ad5c:	b809883a 	mov	r4,r23
   2ad60:	a80b883a 	mov	r5,r21
   2ad64:	1039883a 	mov	fp,r2
   2ad68:	a5ffffcc 	andi	r23,r20,65535
   2ad6c:	00208400 	call	20840 <__udivsi3>
   2ad70:	b809883a 	mov	r4,r23
   2ad74:	100b883a 	mov	r5,r2
   2ad78:	1021883a 	mov	r16,r2
   2ad7c:	002b47c0 	call	2b47c <__mulsi3>
   2ad80:	e008943a 	slli	r4,fp,16
   2ad84:	9806d43a 	srli	r3,r19,16
   2ad88:	20c8b03a 	or	r4,r4,r3
   2ad8c:	2080062e 	bgeu	r4,r2,2ada8 <__udivdi3+0x460>
   2ad90:	2509883a 	add	r4,r4,r20
   2ad94:	80ffffc4 	addi	r3,r16,-1
   2ad98:	25005136 	bltu	r4,r20,2aee0 <__udivdi3+0x598>
   2ad9c:	2080502e 	bgeu	r4,r2,2aee0 <__udivdi3+0x598>
   2ada0:	843fff84 	addi	r16,r16,-2
   2ada4:	2509883a 	add	r4,r4,r20
   2ada8:	20b9c83a 	sub	fp,r4,r2
   2adac:	a80b883a 	mov	r5,r21
   2adb0:	e009883a 	mov	r4,fp
   2adb4:	00208a40 	call	208a4 <__umodsi3>
   2adb8:	a80b883a 	mov	r5,r21
   2adbc:	e009883a 	mov	r4,fp
   2adc0:	102b883a 	mov	r21,r2
   2adc4:	00208400 	call	20840 <__udivsi3>
   2adc8:	100b883a 	mov	r5,r2
   2adcc:	b809883a 	mov	r4,r23
   2add0:	1039883a 	mov	fp,r2
   2add4:	002b47c0 	call	2b47c <__mulsi3>
   2add8:	a806943a 	slli	r3,r21,16
   2addc:	9cffffcc 	andi	r19,r19,65535
   2ade0:	1cc6b03a 	or	r3,r3,r19
   2ade4:	1880062e 	bgeu	r3,r2,2ae00 <__udivdi3+0x4b8>
   2ade8:	1d07883a 	add	r3,r3,r20
   2adec:	e13fffc4 	addi	r4,fp,-1
   2adf0:	1d003736 	bltu	r3,r20,2aed0 <__udivdi3+0x588>
   2adf4:	1880362e 	bgeu	r3,r2,2aed0 <__udivdi3+0x588>
   2adf8:	e73fff84 	addi	fp,fp,-2
   2adfc:	1d07883a 	add	r3,r3,r20
   2ae00:	8020943a 	slli	r16,r16,16
   2ae04:	e1bfffcc 	andi	r6,fp,65535
   2ae08:	b53fffcc 	andi	r20,r22,65535
   2ae0c:	8720b03a 	or	r16,r16,fp
   2ae10:	802ad43a 	srli	r21,r16,16
   2ae14:	3009883a 	mov	r4,r6
   2ae18:	a00b883a 	mov	r5,r20
   2ae1c:	18a7c83a 	sub	r19,r3,r2
   2ae20:	d9800015 	stw	r6,0(sp)
   2ae24:	b02cd43a 	srli	r22,r22,16
   2ae28:	002b47c0 	call	2b47c <__mulsi3>
   2ae2c:	a00b883a 	mov	r5,r20
   2ae30:	a809883a 	mov	r4,r21
   2ae34:	102f883a 	mov	r23,r2
   2ae38:	002b47c0 	call	2b47c <__mulsi3>
   2ae3c:	a809883a 	mov	r4,r21
   2ae40:	b00b883a 	mov	r5,r22
   2ae44:	1029883a 	mov	r20,r2
   2ae48:	002b47c0 	call	2b47c <__mulsi3>
   2ae4c:	d9800017 	ldw	r6,0(sp)
   2ae50:	b00b883a 	mov	r5,r22
   2ae54:	102b883a 	mov	r21,r2
   2ae58:	3009883a 	mov	r4,r6
   2ae5c:	002b47c0 	call	2b47c <__mulsi3>
   2ae60:	b806d43a 	srli	r3,r23,16
   2ae64:	1505883a 	add	r2,r2,r20
   2ae68:	1887883a 	add	r3,r3,r2
   2ae6c:	1d00022e 	bgeu	r3,r20,2ae78 <__udivdi3+0x530>
   2ae70:	00800074 	movhi	r2,1
   2ae74:	a8ab883a 	add	r21,r21,r2
   2ae78:	1804d43a 	srli	r2,r3,16
   2ae7c:	1545883a 	add	r2,r2,r21
   2ae80:	98800936 	bltu	r19,r2,2aea8 <__udivdi3+0x560>
   2ae84:	98800326 	beq	r19,r2,2ae94 <__udivdi3+0x54c>
   2ae88:	8005883a 	mov	r2,r16
   2ae8c:	0007883a 	mov	r3,zero
   2ae90:	003f0306 	br	2aaa0 <__udivdi3+0x158>
   2ae94:	1806943a 	slli	r3,r3,16
   2ae98:	9448983a 	sll	r4,r18,r17
   2ae9c:	bdffffcc 	andi	r23,r23,65535
   2aea0:	1dc5883a 	add	r2,r3,r23
   2aea4:	20bff82e 	bgeu	r4,r2,2ae88 <__udivdi3+0x540>
   2aea8:	80bfffc4 	addi	r2,r16,-1
   2aeac:	0007883a 	mov	r3,zero
   2aeb0:	003efb06 	br	2aaa0 <__udivdi3+0x158>
   2aeb4:	00c00404 	movi	r3,16
   2aeb8:	003f0a06 	br	2aae4 <__udivdi3+0x19c>
   2aebc:	00c00404 	movi	r3,16
   2aec0:	003eb806 	br	2a9a4 <__udivdi3+0x5c>
   2aec4:	0007883a 	mov	r3,zero
   2aec8:	00800044 	movi	r2,1
   2aecc:	003ef406 	br	2aaa0 <__udivdi3+0x158>
   2aed0:	2039883a 	mov	fp,r4
   2aed4:	003fca06 	br	2ae00 <__udivdi3+0x4b8>
   2aed8:	182f883a 	mov	r23,r3
   2aedc:	003f8f06 	br	2ad1c <__udivdi3+0x3d4>
   2aee0:	1821883a 	mov	r16,r3
   2aee4:	003fb006 	br	2ada8 <__udivdi3+0x460>
   2aee8:	1825883a 	mov	r18,r3
   2aeec:	003f7506 	br	2acc4 <__udivdi3+0x37c>
   2aef0:	a53fff84 	addi	r20,r20,-2
   2aef4:	003f4706 	br	2ac14 <__udivdi3+0x2cc>
   2aef8:	a53fff84 	addi	r20,r20,-2
   2aefc:	003ee106 	br	2aa84 <__udivdi3+0x13c>
   2af00:	843fff84 	addi	r16,r16,-2
   2af04:	2449883a 	add	r4,r4,r17
   2af08:	003f2b06 	br	2abb8 <__udivdi3+0x270>
   2af0c:	00800604 	movi	r2,24
   2af10:	003f0706 	br	2ab30 <__udivdi3+0x1e8>
   2af14:	843fff84 	addi	r16,r16,-2
   2af18:	2449883a 	add	r4,r4,r17
   2af1c:	003ec406 	br	2aa30 <__udivdi3+0xe8>

0002af20 <__umoddi3>:
   2af20:	defff504 	addi	sp,sp,-44
   2af24:	dcc00415 	stw	r19,16(sp)
   2af28:	dc000115 	stw	r16,4(sp)
   2af2c:	dfc00a15 	stw	ra,40(sp)
   2af30:	df000915 	stw	fp,36(sp)
   2af34:	ddc00815 	stw	r23,32(sp)
   2af38:	dd800715 	stw	r22,28(sp)
   2af3c:	dd400615 	stw	r21,24(sp)
   2af40:	dd000515 	stw	r20,20(sp)
   2af44:	dc800315 	stw	r18,12(sp)
   2af48:	dc400215 	stw	r17,8(sp)
   2af4c:	2827883a 	mov	r19,r5
   2af50:	2021883a 	mov	r16,r4
   2af54:	3800401e 	bne	r7,zero,2b058 <__umoddi3+0x138>
   2af58:	3029883a 	mov	r20,r6
   2af5c:	2025883a 	mov	r18,r4
   2af60:	2980622e 	bgeu	r5,r6,2b0ec <__umoddi3+0x1cc>
   2af64:	00bfffd4 	movui	r2,65535
   2af68:	282d883a 	mov	r22,r5
   2af6c:	11808e2e 	bgeu	r2,r6,2b1a8 <__umoddi3+0x288>
   2af70:	00804034 	movhi	r2,256
   2af74:	30813536 	bltu	r6,r2,2b44c <__umoddi3+0x52c>
   2af78:	00c00604 	movi	r3,24
   2af7c:	30cad83a 	srl	r5,r6,r3
   2af80:	008000f4 	movhi	r2,3
   2af84:	01000804 	movi	r4,32
   2af88:	2885883a 	add	r2,r5,r2
   2af8c:	10825803 	ldbu	r2,2400(r2)
   2af90:	10c5883a 	add	r2,r2,r3
   2af94:	20a3c83a 	sub	r17,r4,r2
   2af98:	20800526 	beq	r4,r2,2afb0 <__umoddi3+0x90>
   2af9c:	9c6c983a 	sll	r22,r19,r17
   2afa0:	8084d83a 	srl	r2,r16,r2
   2afa4:	3468983a 	sll	r20,r6,r17
   2afa8:	8464983a 	sll	r18,r16,r17
   2afac:	15acb03a 	or	r22,r2,r22
   2afb0:	a02ad43a 	srli	r21,r20,16
   2afb4:	b009883a 	mov	r4,r22
   2afb8:	a4ffffcc 	andi	r19,r20,65535
   2afbc:	a80b883a 	mov	r5,r21
   2afc0:	00208a40 	call	208a4 <__umodsi3>
   2afc4:	a80b883a 	mov	r5,r21
   2afc8:	b009883a 	mov	r4,r22
   2afcc:	1021883a 	mov	r16,r2
   2afd0:	00208400 	call	20840 <__udivsi3>
   2afd4:	9809883a 	mov	r4,r19
   2afd8:	100b883a 	mov	r5,r2
   2afdc:	002b47c0 	call	2b47c <__mulsi3>
   2afe0:	8008943a 	slli	r4,r16,16
   2afe4:	9006d43a 	srli	r3,r18,16
   2afe8:	20c8b03a 	or	r4,r4,r3
   2afec:	2080032e 	bgeu	r4,r2,2affc <__umoddi3+0xdc>
   2aff0:	2509883a 	add	r4,r4,r20
   2aff4:	25000136 	bltu	r4,r20,2affc <__umoddi3+0xdc>
   2aff8:	20811e36 	bltu	r4,r2,2b474 <__umoddi3+0x554>
   2affc:	20a1c83a 	sub	r16,r4,r2
   2b000:	8009883a 	mov	r4,r16
   2b004:	a80b883a 	mov	r5,r21
   2b008:	00208a40 	call	208a4 <__umodsi3>
   2b00c:	8009883a 	mov	r4,r16
   2b010:	a80b883a 	mov	r5,r21
   2b014:	1021883a 	mov	r16,r2
   2b018:	00208400 	call	20840 <__udivsi3>
   2b01c:	100b883a 	mov	r5,r2
   2b020:	9809883a 	mov	r4,r19
   2b024:	8020943a 	slli	r16,r16,16
   2b028:	94bfffcc 	andi	r18,r18,65535
   2b02c:	002b47c0 	call	2b47c <__mulsi3>
   2b030:	84a0b03a 	or	r16,r16,r18
   2b034:	8080042e 	bgeu	r16,r2,2b048 <__umoddi3+0x128>
   2b038:	8521883a 	add	r16,r16,r20
   2b03c:	85000236 	bltu	r16,r20,2b048 <__umoddi3+0x128>
   2b040:	8080012e 	bgeu	r16,r2,2b048 <__umoddi3+0x128>
   2b044:	8521883a 	add	r16,r16,r20
   2b048:	80a1c83a 	sub	r16,r16,r2
   2b04c:	8444d83a 	srl	r2,r16,r17
   2b050:	0007883a 	mov	r3,zero
   2b054:	00000406 	br	2b068 <__umoddi3+0x148>
   2b058:	2807883a 	mov	r3,r5
   2b05c:	200b883a 	mov	r5,r4
   2b060:	99c00d2e 	bgeu	r19,r7,2b098 <__umoddi3+0x178>
   2b064:	2005883a 	mov	r2,r4
   2b068:	dfc00a17 	ldw	ra,40(sp)
   2b06c:	df000917 	ldw	fp,36(sp)
   2b070:	ddc00817 	ldw	r23,32(sp)
   2b074:	dd800717 	ldw	r22,28(sp)
   2b078:	dd400617 	ldw	r21,24(sp)
   2b07c:	dd000517 	ldw	r20,20(sp)
   2b080:	dcc00417 	ldw	r19,16(sp)
   2b084:	dc800317 	ldw	r18,12(sp)
   2b088:	dc400217 	ldw	r17,8(sp)
   2b08c:	dc000117 	ldw	r16,4(sp)
   2b090:	dec00b04 	addi	sp,sp,44
   2b094:	f800283a 	ret
   2b098:	00bfffd4 	movui	r2,65535
   2b09c:	11c04b2e 	bgeu	r2,r7,2b1cc <__umoddi3+0x2ac>
   2b0a0:	00804034 	movhi	r2,256
   2b0a4:	3880eb36 	bltu	r7,r2,2b454 <__umoddi3+0x534>
   2b0a8:	01000604 	movi	r4,24
   2b0ac:	3912d83a 	srl	r9,r7,r4
   2b0b0:	008000f4 	movhi	r2,3
   2b0b4:	02000804 	movi	r8,32
   2b0b8:	4885883a 	add	r2,r9,r2
   2b0bc:	17025803 	ldbu	fp,2400(r2)
   2b0c0:	e139883a 	add	fp,fp,r4
   2b0c4:	4729c83a 	sub	r20,r8,fp
   2b0c8:	4700721e 	bne	r8,fp,2b294 <__umoddi3+0x374>
   2b0cc:	3cc00136 	bltu	r7,r19,2b0d4 <__umoddi3+0x1b4>
   2b0d0:	81800436 	bltu	r16,r6,2b0e4 <__umoddi3+0x1c4>
   2b0d4:	818bc83a 	sub	r5,r16,r6
   2b0d8:	99cfc83a 	sub	r7,r19,r7
   2b0dc:	8147803a 	cmpltu	r3,r16,r5
   2b0e0:	38c7c83a 	sub	r3,r7,r3
   2b0e4:	2805883a 	mov	r2,r5
   2b0e8:	003fdf06 	br	2b068 <__umoddi3+0x148>
   2b0ec:	3000311e 	bne	r6,zero,2b1b4 <__umoddi3+0x294>
   2b0f0:	000b883a 	mov	r5,zero
   2b0f4:	01000044 	movi	r4,1
   2b0f8:	00208400 	call	20840 <__udivsi3>
   2b0fc:	1029883a 	mov	r20,r2
   2b100:	a0804028 	cmpgeui	r2,r20,256
   2b104:	100490fa 	slli	r2,r2,3
   2b108:	a08ad83a 	srl	r5,r20,r2
   2b10c:	00c000f4 	movhi	r3,3
   2b110:	01000804 	movi	r4,32
   2b114:	28c7883a 	add	r3,r5,r3
   2b118:	1dc25803 	ldbu	r23,2400(r3)
   2b11c:	b8af883a 	add	r23,r23,r2
   2b120:	25e3c83a 	sub	r17,r4,r23
   2b124:	25c02c1e 	bne	r4,r23,2b1d8 <__umoddi3+0x2b8>
   2b128:	a02ad43a 	srli	r21,r20,16
   2b12c:	9d27c83a 	sub	r19,r19,r20
   2b130:	a5bfffcc 	andi	r22,r20,65535
   2b134:	a80b883a 	mov	r5,r21
   2b138:	9809883a 	mov	r4,r19
   2b13c:	00208a40 	call	208a4 <__umodsi3>
   2b140:	a80b883a 	mov	r5,r21
   2b144:	9809883a 	mov	r4,r19
   2b148:	1021883a 	mov	r16,r2
   2b14c:	00208400 	call	20840 <__udivsi3>
   2b150:	1009883a 	mov	r4,r2
   2b154:	b00b883a 	mov	r5,r22
   2b158:	002b47c0 	call	2b47c <__mulsi3>
   2b15c:	8008943a 	slli	r4,r16,16
   2b160:	9006d43a 	srli	r3,r18,16
   2b164:	20c8b03a 	or	r4,r4,r3
   2b168:	2080042e 	bgeu	r4,r2,2b17c <__umoddi3+0x25c>
   2b16c:	2509883a 	add	r4,r4,r20
   2b170:	25000236 	bltu	r4,r20,2b17c <__umoddi3+0x25c>
   2b174:	2080012e 	bgeu	r4,r2,2b17c <__umoddi3+0x25c>
   2b178:	2509883a 	add	r4,r4,r20
   2b17c:	20a1c83a 	sub	r16,r4,r2
   2b180:	8009883a 	mov	r4,r16
   2b184:	a80b883a 	mov	r5,r21
   2b188:	00208a40 	call	208a4 <__umodsi3>
   2b18c:	8009883a 	mov	r4,r16
   2b190:	a80b883a 	mov	r5,r21
   2b194:	1021883a 	mov	r16,r2
   2b198:	00208400 	call	20840 <__udivsi3>
   2b19c:	b00b883a 	mov	r5,r22
   2b1a0:	1009883a 	mov	r4,r2
   2b1a4:	003f9f06 	br	2b024 <__umoddi3+0x104>
   2b1a8:	30c04028 	cmpgeui	r3,r6,256
   2b1ac:	180690fa 	slli	r3,r3,3
   2b1b0:	003f7206 	br	2af7c <__umoddi3+0x5c>
   2b1b4:	00bfffd4 	movui	r2,65535
   2b1b8:	11bfd12e 	bgeu	r2,r6,2b100 <__umoddi3+0x1e0>
   2b1bc:	00804034 	movhi	r2,256
   2b1c0:	3080aa2e 	bgeu	r6,r2,2b46c <__umoddi3+0x54c>
   2b1c4:	00800404 	movi	r2,16
   2b1c8:	003fcf06 	br	2b108 <__umoddi3+0x1e8>
   2b1cc:	39004028 	cmpgeui	r4,r7,256
   2b1d0:	200890fa 	slli	r4,r4,3
   2b1d4:	003fb506 	br	2b0ac <__umoddi3+0x18c>
   2b1d8:	a468983a 	sll	r20,r20,r17
   2b1dc:	9de4d83a 	srl	r18,r19,r23
   2b1e0:	85eed83a 	srl	r23,r16,r23
   2b1e4:	a02ad43a 	srli	r21,r20,16
   2b1e8:	9009883a 	mov	r4,r18
   2b1ec:	9c66983a 	sll	r19,r19,r17
   2b1f0:	a80b883a 	mov	r5,r21
   2b1f4:	00208a40 	call	208a4 <__umodsi3>
   2b1f8:	9009883a 	mov	r4,r18
   2b1fc:	a80b883a 	mov	r5,r21
   2b200:	1025883a 	mov	r18,r2
   2b204:	a5bfffcc 	andi	r22,r20,65535
   2b208:	00208400 	call	20840 <__udivsi3>
   2b20c:	b009883a 	mov	r4,r22
   2b210:	100b883a 	mov	r5,r2
   2b214:	002b47c0 	call	2b47c <__mulsi3>
   2b218:	bceeb03a 	or	r23,r23,r19
   2b21c:	9008943a 	slli	r4,r18,16
   2b220:	b806d43a 	srli	r3,r23,16
   2b224:	8464983a 	sll	r18,r16,r17
   2b228:	20c8b03a 	or	r4,r4,r3
   2b22c:	2080042e 	bgeu	r4,r2,2b240 <__umoddi3+0x320>
   2b230:	2509883a 	add	r4,r4,r20
   2b234:	25000236 	bltu	r4,r20,2b240 <__umoddi3+0x320>
   2b238:	2080012e 	bgeu	r4,r2,2b240 <__umoddi3+0x320>
   2b23c:	2509883a 	add	r4,r4,r20
   2b240:	20a1c83a 	sub	r16,r4,r2
   2b244:	a80b883a 	mov	r5,r21
   2b248:	8009883a 	mov	r4,r16
   2b24c:	00208a40 	call	208a4 <__umodsi3>
   2b250:	1027883a 	mov	r19,r2
   2b254:	a80b883a 	mov	r5,r21
   2b258:	8009883a 	mov	r4,r16
   2b25c:	9826943a 	slli	r19,r19,16
   2b260:	00208400 	call	20840 <__udivsi3>
   2b264:	100b883a 	mov	r5,r2
   2b268:	b009883a 	mov	r4,r22
   2b26c:	bdffffcc 	andi	r23,r23,65535
   2b270:	002b47c0 	call	2b47c <__mulsi3>
   2b274:	9de6b03a 	or	r19,r19,r23
   2b278:	9880042e 	bgeu	r19,r2,2b28c <__umoddi3+0x36c>
   2b27c:	9d27883a 	add	r19,r19,r20
   2b280:	9d000236 	bltu	r19,r20,2b28c <__umoddi3+0x36c>
   2b284:	9880012e 	bgeu	r19,r2,2b28c <__umoddi3+0x36c>
   2b288:	9d27883a 	add	r19,r19,r20
   2b28c:	98a7c83a 	sub	r19,r19,r2
   2b290:	003fa806 	br	2b134 <__umoddi3+0x214>
   2b294:	3d0e983a 	sll	r7,r7,r20
   2b298:	3722d83a 	srl	r17,r6,fp
   2b29c:	9f2ed83a 	srl	r23,r19,fp
   2b2a0:	3524983a 	sll	r18,r6,r20
   2b2a4:	89e2b03a 	or	r17,r17,r7
   2b2a8:	882cd43a 	srli	r22,r17,16
   2b2ac:	b809883a 	mov	r4,r23
   2b2b0:	9d26983a 	sll	r19,r19,r20
   2b2b4:	b00b883a 	mov	r5,r22
   2b2b8:	00208a40 	call	208a4 <__umodsi3>
   2b2bc:	b809883a 	mov	r4,r23
   2b2c0:	872ad83a 	srl	r21,r16,fp
   2b2c4:	b00b883a 	mov	r5,r22
   2b2c8:	d8800015 	stw	r2,0(sp)
   2b2cc:	8dffffcc 	andi	r23,r17,65535
   2b2d0:	00208400 	call	20840 <__udivsi3>
   2b2d4:	b809883a 	mov	r4,r23
   2b2d8:	100b883a 	mov	r5,r2
   2b2dc:	aceab03a 	or	r21,r21,r19
   2b2e0:	1027883a 	mov	r19,r2
   2b2e4:	002b47c0 	call	2b47c <__mulsi3>
   2b2e8:	d8c00017 	ldw	r3,0(sp)
   2b2ec:	8520983a 	sll	r16,r16,r20
   2b2f0:	1808943a 	slli	r4,r3,16
   2b2f4:	a806d43a 	srli	r3,r21,16
   2b2f8:	20c8b03a 	or	r4,r4,r3
   2b2fc:	2080062e 	bgeu	r4,r2,2b318 <__umoddi3+0x3f8>
   2b300:	2449883a 	add	r4,r4,r17
   2b304:	98ffffc4 	addi	r3,r19,-1
   2b308:	24405636 	bltu	r4,r17,2b464 <__umoddi3+0x544>
   2b30c:	2080552e 	bgeu	r4,r2,2b464 <__umoddi3+0x544>
   2b310:	9cffff84 	addi	r19,r19,-2
   2b314:	2449883a 	add	r4,r4,r17
   2b318:	2089c83a 	sub	r4,r4,r2
   2b31c:	b00b883a 	mov	r5,r22
   2b320:	d9000015 	stw	r4,0(sp)
   2b324:	00208a40 	call	208a4 <__umodsi3>
   2b328:	d9000017 	ldw	r4,0(sp)
   2b32c:	b00b883a 	mov	r5,r22
   2b330:	102d883a 	mov	r22,r2
   2b334:	00208400 	call	20840 <__udivsi3>
   2b338:	100b883a 	mov	r5,r2
   2b33c:	b809883a 	mov	r4,r23
   2b340:	d8800015 	stw	r2,0(sp)
   2b344:	002b47c0 	call	2b47c <__mulsi3>
   2b348:	b006943a 	slli	r3,r22,16
   2b34c:	ad7fffcc 	andi	r21,r21,65535
   2b350:	d9400017 	ldw	r5,0(sp)
   2b354:	1d46b03a 	or	r3,r3,r21
   2b358:	1880062e 	bgeu	r3,r2,2b374 <__umoddi3+0x454>
   2b35c:	1c47883a 	add	r3,r3,r17
   2b360:	293fffc4 	addi	r4,r5,-1
   2b364:	1c403d36 	bltu	r3,r17,2b45c <__umoddi3+0x53c>
   2b368:	18803c2e 	bgeu	r3,r2,2b45c <__umoddi3+0x53c>
   2b36c:	297fff84 	addi	r5,r5,-2
   2b370:	1c47883a 	add	r3,r3,r17
   2b374:	9826943a 	slli	r19,r19,16
   2b378:	29bfffcc 	andi	r6,r5,65535
   2b37c:	913fffcc 	andi	r4,r18,65535
   2b380:	9966b03a 	or	r19,r19,r5
   2b384:	982ad43a 	srli	r21,r19,16
   2b388:	202d883a 	mov	r22,r4
   2b38c:	200b883a 	mov	r5,r4
   2b390:	3009883a 	mov	r4,r6
   2b394:	d9800015 	stw	r6,0(sp)
   2b398:	18a7c83a 	sub	r19,r3,r2
   2b39c:	902ed43a 	srli	r23,r18,16
   2b3a0:	002b47c0 	call	2b47c <__mulsi3>
   2b3a4:	b00b883a 	mov	r5,r22
   2b3a8:	a809883a 	mov	r4,r21
   2b3ac:	102d883a 	mov	r22,r2
   2b3b0:	002b47c0 	call	2b47c <__mulsi3>
   2b3b4:	b80b883a 	mov	r5,r23
   2b3b8:	a809883a 	mov	r4,r21
   2b3bc:	102b883a 	mov	r21,r2
   2b3c0:	002b47c0 	call	2b47c <__mulsi3>
   2b3c4:	d9800017 	ldw	r6,0(sp)
   2b3c8:	b80b883a 	mov	r5,r23
   2b3cc:	102f883a 	mov	r23,r2
   2b3d0:	3009883a 	mov	r4,r6
   2b3d4:	002b47c0 	call	2b47c <__mulsi3>
   2b3d8:	b008d43a 	srli	r4,r22,16
   2b3dc:	1545883a 	add	r2,r2,r21
   2b3e0:	2089883a 	add	r4,r4,r2
   2b3e4:	2540022e 	bgeu	r4,r21,2b3f0 <__umoddi3+0x4d0>
   2b3e8:	00800074 	movhi	r2,1
   2b3ec:	b8af883a 	add	r23,r23,r2
   2b3f0:	2006d43a 	srli	r3,r4,16
   2b3f4:	2008943a 	slli	r4,r4,16
   2b3f8:	b5bfffcc 	andi	r22,r22,65535
   2b3fc:	1dc5883a 	add	r2,r3,r23
   2b400:	2589883a 	add	r4,r4,r22
   2b404:	98800b36 	bltu	r19,r2,2b434 <__umoddi3+0x514>
   2b408:	98800926 	beq	r19,r2,2b430 <__umoddi3+0x510>
   2b40c:	8109c83a 	sub	r4,r16,r4
   2b410:	9887c83a 	sub	r3,r19,r2
   2b414:	8121803a 	cmpltu	r16,r16,r4
   2b418:	1c07c83a 	sub	r3,r3,r16
   2b41c:	1f38983a 	sll	fp,r3,fp
   2b420:	2508d83a 	srl	r4,r4,r20
   2b424:	1d06d83a 	srl	r3,r3,r20
   2b428:	e104b03a 	or	r2,fp,r4
   2b42c:	003f0e06 	br	2b068 <__umoddi3+0x148>
   2b430:	813ff62e 	bgeu	r16,r4,2b40c <__umoddi3+0x4ec>
   2b434:	24a5c83a 	sub	r18,r4,r18
   2b438:	2489803a 	cmpltu	r4,r4,r18
   2b43c:	2449883a 	add	r4,r4,r17
   2b440:	1105c83a 	sub	r2,r2,r4
   2b444:	9009883a 	mov	r4,r18
   2b448:	003ff006 	br	2b40c <__umoddi3+0x4ec>
   2b44c:	00c00404 	movi	r3,16
   2b450:	003eca06 	br	2af7c <__umoddi3+0x5c>
   2b454:	01000404 	movi	r4,16
   2b458:	003f1406 	br	2b0ac <__umoddi3+0x18c>
   2b45c:	200b883a 	mov	r5,r4
   2b460:	003fc406 	br	2b374 <__umoddi3+0x454>
   2b464:	1827883a 	mov	r19,r3
   2b468:	003fab06 	br	2b318 <__umoddi3+0x3f8>
   2b46c:	00800604 	movi	r2,24
   2b470:	003f2506 	br	2b108 <__umoddi3+0x1e8>
   2b474:	2509883a 	add	r4,r4,r20
   2b478:	003ee006 	br	2affc <__umoddi3+0xdc>

0002b47c <__mulsi3>:
   2b47c:	0005883a 	mov	r2,zero
   2b480:	20000726 	beq	r4,zero,2b4a0 <__mulsi3+0x24>
   2b484:	20c0004c 	andi	r3,r4,1
   2b488:	2008d07a 	srli	r4,r4,1
   2b48c:	18000126 	beq	r3,zero,2b494 <__mulsi3+0x18>
   2b490:	1145883a 	add	r2,r2,r5
   2b494:	294b883a 	add	r5,r5,r5
   2b498:	203ffa1e 	bne	r4,zero,2b484 <__mulsi3+0x8>
   2b49c:	f800283a 	ret
   2b4a0:	f800283a 	ret

0002b4a4 <__adddf3>:
   2b4a4:	00c00434 	movhi	r3,16
   2b4a8:	18ffffc4 	addi	r3,r3,-1
   2b4ac:	defffa04 	addi	sp,sp,-24
   2b4b0:	2810d7fa 	srli	r8,r5,31
   2b4b4:	3804d53a 	srli	r2,r7,20
   2b4b8:	28d4703a 	and	r10,r5,r3
   2b4bc:	38d2703a 	and	r9,r7,r3
   2b4c0:	280ad53a 	srli	r5,r5,20
   2b4c4:	501490fa 	slli	r10,r10,3
   2b4c8:	481290fa 	slli	r9,r9,3
   2b4cc:	3016d77a 	srli	r11,r6,29
   2b4d0:	dc400115 	stw	r17,4(sp)
   2b4d4:	380ed7fa 	srli	r7,r7,31
   2b4d8:	2022d77a 	srli	r17,r4,29
   2b4dc:	dd000415 	stw	r20,16(sp)
   2b4e0:	dcc00315 	stw	r19,12(sp)
   2b4e4:	dc000015 	stw	r16,0(sp)
   2b4e8:	1081ffcc 	andi	r2,r2,2047
   2b4ec:	2c01ffcc 	andi	r16,r5,2047
   2b4f0:	dfc00515 	stw	ra,20(sp)
   2b4f4:	dc800215 	stw	r18,8(sp)
   2b4f8:	201890fa 	slli	r12,r4,3
   2b4fc:	301a90fa 	slli	r13,r6,3
   2b500:	4027883a 	mov	r19,r8
   2b504:	45003fcc 	andi	r20,r8,255
   2b508:	8aa2b03a 	or	r17,r17,r10
   2b50c:	5a56b03a 	or	r11,r11,r9
   2b510:	808bc83a 	sub	r5,r16,r2
   2b514:	41c07526 	beq	r8,r7,2b6ec <__adddf3+0x248>
   2b518:	0140540e 	bge	zero,r5,2b66c <__adddf3+0x1c8>
   2b51c:	10008b26 	beq	r2,zero,2b74c <__adddf3+0x2a8>
   2b520:	8081ffe0 	cmpeqi	r2,r16,2047
   2b524:	10010d1e 	bne	r2,zero,2b95c <__adddf3+0x4b8>
   2b528:	28800e48 	cmpgei	r2,r5,57
   2b52c:	1000c11e 	bne	r2,zero,2b834 <__adddf3+0x390>
   2b530:	5ac02034 	orhi	r11,r11,128
   2b534:	28800808 	cmpgei	r2,r5,32
   2b538:	1001461e 	bne	r2,zero,2ba54 <__adddf3+0x5b0>
   2b53c:	00800804 	movi	r2,32
   2b540:	1145c83a 	sub	r2,r2,r5
   2b544:	58a4983a 	sll	r18,r11,r2
   2b548:	6946d83a 	srl	r3,r13,r5
   2b54c:	6884983a 	sll	r2,r13,r2
   2b550:	594ad83a 	srl	r5,r11,r5
   2b554:	90e4b03a 	or	r18,r18,r3
   2b558:	1004c03a 	cmpne	r2,r2,zero
   2b55c:	90a4b03a 	or	r18,r18,r2
   2b560:	8963c83a 	sub	r17,r17,r5
   2b564:	64a5c83a 	sub	r18,r12,r18
   2b568:	6485803a 	cmpltu	r2,r12,r18
   2b56c:	88a3c83a 	sub	r17,r17,r2
   2b570:	8880202c 	andhi	r2,r17,128
   2b574:	1000b826 	beq	r2,zero,2b858 <__adddf3+0x3b4>
   2b578:	00802034 	movhi	r2,128
   2b57c:	10bfffc4 	addi	r2,r2,-1
   2b580:	88a2703a 	and	r17,r17,r2
   2b584:	8800d026 	beq	r17,zero,2b8c8 <__adddf3+0x424>
   2b588:	8809883a 	mov	r4,r17
   2b58c:	002dcdc0 	call	2dcdc <__clzsi2>
   2b590:	113ffe04 	addi	r4,r2,-8
   2b594:	00c00804 	movi	r3,32
   2b598:	1905c83a 	sub	r2,r3,r4
   2b59c:	9084d83a 	srl	r2,r18,r2
   2b5a0:	8922983a 	sll	r17,r17,r4
   2b5a4:	9124983a 	sll	r18,r18,r4
   2b5a8:	1444b03a 	or	r2,r2,r17
   2b5ac:	2400ff16 	blt	r4,r16,2b9ac <__adddf3+0x508>
   2b5b0:	2409c83a 	sub	r4,r4,r16
   2b5b4:	21000044 	addi	r4,r4,1
   2b5b8:	1907c83a 	sub	r3,r3,r4
   2b5bc:	90ca983a 	sll	r5,r18,r3
   2b5c0:	9122d83a 	srl	r17,r18,r4
   2b5c4:	280ac03a 	cmpne	r5,r5,zero
   2b5c8:	10c6983a 	sll	r3,r2,r3
   2b5cc:	894ab03a 	or	r5,r17,r5
   2b5d0:	1122d83a 	srl	r17,r2,r4
   2b5d4:	0021883a 	mov	r16,zero
   2b5d8:	1964b03a 	or	r18,r3,r5
   2b5dc:	908001cc 	andi	r2,r18,7
   2b5e0:	10000726 	beq	r2,zero,2b600 <__adddf3+0x15c>
   2b5e4:	908003cc 	andi	r2,r18,15
   2b5e8:	10800120 	cmpeqi	r2,r2,4
   2b5ec:	1000041e 	bne	r2,zero,2b600 <__adddf3+0x15c>
   2b5f0:	90800104 	addi	r2,r18,4
   2b5f4:	14a5803a 	cmpltu	r18,r2,r18
   2b5f8:	8ca3883a 	add	r17,r17,r18
   2b5fc:	1025883a 	mov	r18,r2
   2b600:	8880202c 	andhi	r2,r17,128
   2b604:	1000c926 	beq	r2,zero,2b92c <__adddf3+0x488>
   2b608:	8081ffa0 	cmpeqi	r2,r16,2046
   2b60c:	84000044 	addi	r16,r16,1
   2b610:	1000841e 	bne	r2,zero,2b824 <__adddf3+0x380>
   2b614:	013fe034 	movhi	r4,65408
   2b618:	213fffc4 	addi	r4,r4,-1
   2b61c:	8908703a 	and	r4,r17,r4
   2b620:	2004977a 	slli	r2,r4,29
   2b624:	2008927a 	slli	r4,r4,9
   2b628:	9024d0fa 	srli	r18,r18,3
   2b62c:	80c1ffcc 	andi	r3,r16,2047
   2b630:	2008d33a 	srli	r4,r4,12
   2b634:	1484b03a 	or	r2,r2,r18
   2b638:	a027883a 	mov	r19,r20
   2b63c:	1806953a 	slli	r3,r3,20
   2b640:	982697fa 	slli	r19,r19,31
   2b644:	1906b03a 	or	r3,r3,r4
   2b648:	1cc6b03a 	or	r3,r3,r19
   2b64c:	dfc00517 	ldw	ra,20(sp)
   2b650:	dd000417 	ldw	r20,16(sp)
   2b654:	dcc00317 	ldw	r19,12(sp)
   2b658:	dc800217 	ldw	r18,8(sp)
   2b65c:	dc400117 	ldw	r17,4(sp)
   2b660:	dc000017 	ldw	r16,0(sp)
   2b664:	dec00604 	addi	sp,sp,24
   2b668:	f800283a 	ret
   2b66c:	3a803fcc 	andi	r10,r7,255
   2b670:	28004026 	beq	r5,zero,2b774 <__adddf3+0x2d0>
   2b674:	140bc83a 	sub	r5,r2,r16
   2b678:	8000e61e 	bne	r16,zero,2ba14 <__adddf3+0x570>
   2b67c:	8b06b03a 	or	r3,r17,r12
   2b680:	1800c426 	beq	r3,zero,2b994 <__adddf3+0x4f0>
   2b684:	28ffffc4 	addi	r3,r5,-1
   2b688:	18017a26 	beq	r3,zero,2bc74 <__adddf3+0x7d0>
   2b68c:	2941ffe0 	cmpeqi	r5,r5,2047
   2b690:	28019a1e 	bne	r5,zero,2bcfc <__adddf3+0x858>
   2b694:	19000e48 	cmpgei	r4,r3,57
   2b698:	20010c1e 	bne	r4,zero,2bacc <__adddf3+0x628>
   2b69c:	180b883a 	mov	r5,r3
   2b6a0:	28c00808 	cmpgei	r3,r5,32
   2b6a4:	1801521e 	bne	r3,zero,2bbf0 <__adddf3+0x74c>
   2b6a8:	00c00804 	movi	r3,32
   2b6ac:	1947c83a 	sub	r3,r3,r5
   2b6b0:	88e4983a 	sll	r18,r17,r3
   2b6b4:	6148d83a 	srl	r4,r12,r5
   2b6b8:	60c6983a 	sll	r3,r12,r3
   2b6bc:	894ad83a 	srl	r5,r17,r5
   2b6c0:	9124b03a 	or	r18,r18,r4
   2b6c4:	1806c03a 	cmpne	r3,r3,zero
   2b6c8:	90e4b03a 	or	r18,r18,r3
   2b6cc:	5957c83a 	sub	r11,r11,r5
   2b6d0:	6ca5c83a 	sub	r18,r13,r18
   2b6d4:	6c9b803a 	cmpltu	r13,r13,r18
   2b6d8:	5b63c83a 	sub	r17,r11,r13
   2b6dc:	3827883a 	mov	r19,r7
   2b6e0:	1021883a 	mov	r16,r2
   2b6e4:	5029883a 	mov	r20,r10
   2b6e8:	003fa106 	br	2b570 <__adddf3+0xcc>
   2b6ec:	01405d0e 	bge	zero,r5,2b864 <__adddf3+0x3c0>
   2b6f0:	1000351e 	bne	r2,zero,2b7c8 <__adddf3+0x324>
   2b6f4:	5b44b03a 	or	r2,r11,r13
   2b6f8:	1000a926 	beq	r2,zero,2b9a0 <__adddf3+0x4fc>
   2b6fc:	28bfffc4 	addi	r2,r5,-1
   2b700:	10004e26 	beq	r2,zero,2b83c <__adddf3+0x398>
   2b704:	2941ffe0 	cmpeqi	r5,r5,2047
   2b708:	2801121e 	bne	r5,zero,2bb54 <__adddf3+0x6b0>
   2b70c:	10c00e48 	cmpgei	r3,r2,57
   2b710:	1800311e 	bne	r3,zero,2b7d8 <__adddf3+0x334>
   2b714:	100b883a 	mov	r5,r2
   2b718:	28800808 	cmpgei	r2,r5,32
   2b71c:	1001181e 	bne	r2,zero,2bb80 <__adddf3+0x6dc>
   2b720:	00800804 	movi	r2,32
   2b724:	1145c83a 	sub	r2,r2,r5
   2b728:	58a4983a 	sll	r18,r11,r2
   2b72c:	6946d83a 	srl	r3,r13,r5
   2b730:	6884983a 	sll	r2,r13,r2
   2b734:	594ad83a 	srl	r5,r11,r5
   2b738:	90e4b03a 	or	r18,r18,r3
   2b73c:	1004c03a 	cmpne	r2,r2,zero
   2b740:	90a4b03a 	or	r18,r18,r2
   2b744:	8963883a 	add	r17,r17,r5
   2b748:	00002406 	br	2b7dc <__adddf3+0x338>
   2b74c:	5b44b03a 	or	r2,r11,r13
   2b750:	10009326 	beq	r2,zero,2b9a0 <__adddf3+0x4fc>
   2b754:	28bfffc4 	addi	r2,r5,-1
   2b758:	1000f826 	beq	r2,zero,2bb3c <__adddf3+0x698>
   2b75c:	2941ffe0 	cmpeqi	r5,r5,2047
   2b760:	2800fc1e 	bne	r5,zero,2bb54 <__adddf3+0x6b0>
   2b764:	10c00e48 	cmpgei	r3,r2,57
   2b768:	1800321e 	bne	r3,zero,2b834 <__adddf3+0x390>
   2b76c:	100b883a 	mov	r5,r2
   2b770:	003f7006 	br	2b534 <__adddf3+0x90>
   2b774:	80800044 	addi	r2,r16,1
   2b778:	1081ff8c 	andi	r2,r2,2046
   2b77c:	1000ab1e 	bne	r2,zero,2ba2c <__adddf3+0x588>
   2b780:	8b0ab03a 	or	r5,r17,r12
   2b784:	5b44b03a 	or	r2,r11,r13
   2b788:	8000e71e 	bne	r16,zero,2bb28 <__adddf3+0x684>
   2b78c:	28014126 	beq	r5,zero,2bc94 <__adddf3+0x7f0>
   2b790:	10010626 	beq	r2,zero,2bbac <__adddf3+0x708>
   2b794:	6365c83a 	sub	r18,r12,r13
   2b798:	6485803a 	cmpltu	r2,r12,r18
   2b79c:	8ac7c83a 	sub	r3,r17,r11
   2b7a0:	1887c83a 	sub	r3,r3,r2
   2b7a4:	1880202c 	andhi	r2,r3,128
   2b7a8:	10017326 	beq	r2,zero,2bd78 <__adddf3+0x8d4>
   2b7ac:	6b25c83a 	sub	r18,r13,r12
   2b7b0:	5c57c83a 	sub	r11,r11,r17
   2b7b4:	6c9b803a 	cmpltu	r13,r13,r18
   2b7b8:	5b63c83a 	sub	r17,r11,r13
   2b7bc:	3827883a 	mov	r19,r7
   2b7c0:	5029883a 	mov	r20,r10
   2b7c4:	003f8506 	br	2b5dc <__adddf3+0x138>
   2b7c8:	8081ffe0 	cmpeqi	r2,r16,2047
   2b7cc:	1000631e 	bne	r2,zero,2b95c <__adddf3+0x4b8>
   2b7d0:	28800e48 	cmpgei	r2,r5,57
   2b7d4:	1000aa26 	beq	r2,zero,2ba80 <__adddf3+0x5dc>
   2b7d8:	04800044 	movi	r18,1
   2b7dc:	9325883a 	add	r18,r18,r12
   2b7e0:	9305803a 	cmpltu	r2,r18,r12
   2b7e4:	88a3883a 	add	r17,r17,r2
   2b7e8:	8880202c 	andhi	r2,r17,128
   2b7ec:	10001a26 	beq	r2,zero,2b858 <__adddf3+0x3b4>
   2b7f0:	84000044 	addi	r16,r16,1
   2b7f4:	8081ffe0 	cmpeqi	r2,r16,2047
   2b7f8:	10000a1e 	bne	r2,zero,2b824 <__adddf3+0x380>
   2b7fc:	00bfe034 	movhi	r2,65408
   2b800:	10bfffc4 	addi	r2,r2,-1
   2b804:	9006d07a 	srli	r3,r18,1
   2b808:	8884703a 	and	r2,r17,r2
   2b80c:	100897fa 	slli	r4,r2,31
   2b810:	9480004c 	andi	r18,r18,1
   2b814:	1c86b03a 	or	r3,r3,r18
   2b818:	1022d07a 	srli	r17,r2,1
   2b81c:	20e4b03a 	or	r18,r4,r3
   2b820:	003f6e06 	br	2b5dc <__adddf3+0x138>
   2b824:	00c1ffc4 	movi	r3,2047
   2b828:	0009883a 	mov	r4,zero
   2b82c:	0005883a 	mov	r2,zero
   2b830:	003f8206 	br	2b63c <__adddf3+0x198>
   2b834:	04800044 	movi	r18,1
   2b838:	003f4a06 	br	2b564 <__adddf3+0xc0>
   2b83c:	6365883a 	add	r18,r12,r13
   2b840:	8ad7883a 	add	r11,r17,r11
   2b844:	9305803a 	cmpltu	r2,r18,r12
   2b848:	58a3883a 	add	r17,r11,r2
   2b84c:	8880202c 	andhi	r2,r17,128
   2b850:	1001061e 	bne	r2,zero,2bc6c <__adddf3+0x7c8>
   2b854:	04000044 	movi	r16,1
   2b858:	908001cc 	andi	r2,r18,7
   2b85c:	103f611e 	bne	r2,zero,2b5e4 <__adddf3+0x140>
   2b860:	00006906 	br	2ba08 <__adddf3+0x564>
   2b864:	28005626 	beq	r5,zero,2b9c0 <__adddf3+0x51c>
   2b868:	140bc83a 	sub	r5,r2,r16
   2b86c:	80008626 	beq	r16,zero,2ba88 <__adddf3+0x5e4>
   2b870:	10c1ffe0 	cmpeqi	r3,r2,2047
   2b874:	1801101e 	bne	r3,zero,2bcb8 <__adddf3+0x814>
   2b878:	28c00e48 	cmpgei	r3,r5,57
   2b87c:	1800da1e 	bne	r3,zero,2bbe8 <__adddf3+0x744>
   2b880:	8c402034 	orhi	r17,r17,128
   2b884:	28c00808 	cmpgei	r3,r5,32
   2b888:	1801241e 	bne	r3,zero,2bd1c <__adddf3+0x878>
   2b88c:	00c00804 	movi	r3,32
   2b890:	1947c83a 	sub	r3,r3,r5
   2b894:	88e4983a 	sll	r18,r17,r3
   2b898:	6148d83a 	srl	r4,r12,r5
   2b89c:	60c6983a 	sll	r3,r12,r3
   2b8a0:	894ad83a 	srl	r5,r17,r5
   2b8a4:	9124b03a 	or	r18,r18,r4
   2b8a8:	1806c03a 	cmpne	r3,r3,zero
   2b8ac:	90e4b03a 	or	r18,r18,r3
   2b8b0:	5957883a 	add	r11,r11,r5
   2b8b4:	9365883a 	add	r18,r18,r13
   2b8b8:	935b803a 	cmpltu	r13,r18,r13
   2b8bc:	6ae3883a 	add	r17,r13,r11
   2b8c0:	1021883a 	mov	r16,r2
   2b8c4:	003fc806 	br	2b7e8 <__adddf3+0x344>
   2b8c8:	9009883a 	mov	r4,r18
   2b8cc:	002dcdc0 	call	2dcdc <__clzsi2>
   2b8d0:	11000604 	addi	r4,r2,24
   2b8d4:	20c00808 	cmpgei	r3,r4,32
   2b8d8:	183f2e26 	beq	r3,zero,2b594 <__adddf3+0xf0>
   2b8dc:	10bffe04 	addi	r2,r2,-8
   2b8e0:	9084983a 	sll	r2,r18,r2
   2b8e4:	24007216 	blt	r4,r16,2bab0 <__adddf3+0x60c>
   2b8e8:	2425c83a 	sub	r18,r4,r16
   2b8ec:	91000044 	addi	r4,r18,1
   2b8f0:	20c00808 	cmpgei	r3,r4,32
   2b8f4:	18012426 	beq	r3,zero,2bd88 <__adddf3+0x8e4>
   2b8f8:	94bff844 	addi	r18,r18,-31
   2b8fc:	20c00820 	cmpeqi	r3,r4,32
   2b900:	14a4d83a 	srl	r18,r2,r18
   2b904:	1800051e 	bne	r3,zero,2b91c <__adddf3+0x478>
   2b908:	00c01004 	movi	r3,64
   2b90c:	1907c83a 	sub	r3,r3,r4
   2b910:	10c4983a 	sll	r2,r2,r3
   2b914:	1004c03a 	cmpne	r2,r2,zero
   2b918:	90a4b03a 	or	r18,r18,r2
   2b91c:	908001cc 	andi	r2,r18,7
   2b920:	0021883a 	mov	r16,zero
   2b924:	103f2f1e 	bne	r2,zero,2b5e4 <__adddf3+0x140>
   2b928:	00003706 	br	2ba08 <__adddf3+0x564>
   2b92c:	9004d0fa 	srli	r2,r18,3
   2b930:	880a977a 	slli	r5,r17,29
   2b934:	8101ffe0 	cmpeqi	r4,r16,2047
   2b938:	8806d0fa 	srli	r3,r17,3
   2b93c:	2884b03a 	or	r2,r5,r2
   2b940:	20000c1e 	bne	r4,zero,2b974 <__adddf3+0x4d0>
   2b944:	01000434 	movhi	r4,16
   2b948:	213fffc4 	addi	r4,r4,-1
   2b94c:	1908703a 	and	r4,r3,r4
   2b950:	80c1ffcc 	andi	r3,r16,2047
   2b954:	003f3906 	br	2b63c <__adddf3+0x198>
   2b958:	1000b31e 	bne	r2,zero,2bc28 <__adddf3+0x784>
   2b95c:	880a977a 	slli	r5,r17,29
   2b960:	00880034 	movhi	r2,8192
   2b964:	10bfffc4 	addi	r2,r2,-1
   2b968:	8806d0fa 	srli	r3,r17,3
   2b96c:	2084703a 	and	r2,r4,r2
   2b970:	1144b03a 	or	r2,r2,r5
   2b974:	10c8b03a 	or	r4,r2,r3
   2b978:	20010726 	beq	r4,zero,2bd98 <__adddf3+0x8f4>
   2b97c:	01400434 	movhi	r5,16
   2b980:	19000234 	orhi	r4,r3,8
   2b984:	297fffc4 	addi	r5,r5,-1
   2b988:	2148703a 	and	r4,r4,r5
   2b98c:	00c1ffc4 	movi	r3,2047
   2b990:	003f2a06 	br	2b63c <__adddf3+0x198>
   2b994:	6819883a 	mov	r12,r13
   2b998:	5823883a 	mov	r17,r11
   2b99c:	3827883a 	mov	r19,r7
   2b9a0:	6004d0fa 	srli	r2,r12,3
   2b9a4:	2821883a 	mov	r16,r5
   2b9a8:	003fe106 	br	2b930 <__adddf3+0x48c>
   2b9ac:	047fe034 	movhi	r17,65408
   2b9b0:	8c7fffc4 	addi	r17,r17,-1
   2b9b4:	8121c83a 	sub	r16,r16,r4
   2b9b8:	1462703a 	and	r17,r2,r17
   2b9bc:	003f0706 	br	2b5dc <__adddf3+0x138>
   2b9c0:	80c00044 	addi	r3,r16,1
   2b9c4:	1881ff8c 	andi	r2,r3,2046
   2b9c8:	1000421e 	bne	r2,zero,2bad4 <__adddf3+0x630>
   2b9cc:	8b04b03a 	or	r2,r17,r12
   2b9d0:	8000921e 	bne	r16,zero,2bc1c <__adddf3+0x778>
   2b9d4:	1000c226 	beq	r2,zero,2bce0 <__adddf3+0x83c>
   2b9d8:	5b44b03a 	or	r2,r11,r13
   2b9dc:	10007326 	beq	r2,zero,2bbac <__adddf3+0x708>
   2b9e0:	6365883a 	add	r18,r12,r13
   2b9e4:	9305803a 	cmpltu	r2,r18,r12
   2b9e8:	8ad7883a 	add	r11,r17,r11
   2b9ec:	58a3883a 	add	r17,r11,r2
   2b9f0:	8880202c 	andhi	r2,r17,128
   2b9f4:	10000426 	beq	r2,zero,2ba08 <__adddf3+0x564>
   2b9f8:	00bfe034 	movhi	r2,65408
   2b9fc:	10bfffc4 	addi	r2,r2,-1
   2ba00:	88a2703a 	and	r17,r17,r2
   2ba04:	04000044 	movi	r16,1
   2ba08:	800b883a 	mov	r5,r16
   2ba0c:	9019883a 	mov	r12,r18
   2ba10:	003fe306 	br	2b9a0 <__adddf3+0x4fc>
   2ba14:	10c1ffe0 	cmpeqi	r3,r2,2047
   2ba18:	18006b1e 	bne	r3,zero,2bbc8 <__adddf3+0x724>
   2ba1c:	28c00e48 	cmpgei	r3,r5,57
   2ba20:	18002a1e 	bne	r3,zero,2bacc <__adddf3+0x628>
   2ba24:	8c402034 	orhi	r17,r17,128
   2ba28:	003f1d06 	br	2b6a0 <__adddf3+0x1fc>
   2ba2c:	6365c83a 	sub	r18,r12,r13
   2ba30:	6485803a 	cmpltu	r2,r12,r18
   2ba34:	8ac7c83a 	sub	r3,r17,r11
   2ba38:	1887c83a 	sub	r3,r3,r2
   2ba3c:	1880202c 	andhi	r2,r3,128
   2ba40:	1000321e 	bne	r2,zero,2bb0c <__adddf3+0x668>
   2ba44:	90c4b03a 	or	r2,r18,r3
   2ba48:	10004926 	beq	r2,zero,2bb70 <__adddf3+0x6cc>
   2ba4c:	1823883a 	mov	r17,r3
   2ba50:	003ecc06 	br	2b584 <__adddf3+0xe0>
   2ba54:	28bff804 	addi	r2,r5,-32
   2ba58:	28c00820 	cmpeqi	r3,r5,32
   2ba5c:	5884d83a 	srl	r2,r11,r2
   2ba60:	1800041e 	bne	r3,zero,2ba74 <__adddf3+0x5d0>
   2ba64:	00c01004 	movi	r3,64
   2ba68:	1947c83a 	sub	r3,r3,r5
   2ba6c:	58c6983a 	sll	r3,r11,r3
   2ba70:	68dab03a 	or	r13,r13,r3
   2ba74:	6824c03a 	cmpne	r18,r13,zero
   2ba78:	90a4b03a 	or	r18,r18,r2
   2ba7c:	003eb906 	br	2b564 <__adddf3+0xc0>
   2ba80:	5ac02034 	orhi	r11,r11,128
   2ba84:	003f2406 	br	2b718 <__adddf3+0x274>
   2ba88:	8b06b03a 	or	r3,r17,r12
   2ba8c:	18009126 	beq	r3,zero,2bcd4 <__adddf3+0x830>
   2ba90:	28ffffc4 	addi	r3,r5,-1
   2ba94:	1800ac26 	beq	r3,zero,2bd48 <__adddf3+0x8a4>
   2ba98:	2941ffe0 	cmpeqi	r5,r5,2047
   2ba9c:	2800861e 	bne	r5,zero,2bcb8 <__adddf3+0x814>
   2baa0:	19000e48 	cmpgei	r4,r3,57
   2baa4:	2000501e 	bne	r4,zero,2bbe8 <__adddf3+0x744>
   2baa8:	180b883a 	mov	r5,r3
   2baac:	003f7506 	br	2b884 <__adddf3+0x3e0>
   2bab0:	00ffe034 	movhi	r3,65408
   2bab4:	18ffffc4 	addi	r3,r3,-1
   2bab8:	10c6703a 	and	r3,r2,r3
   2babc:	1804977a 	slli	r2,r3,29
   2bac0:	8121c83a 	sub	r16,r16,r4
   2bac4:	1806d0fa 	srli	r3,r3,3
   2bac8:	003f9e06 	br	2b944 <__adddf3+0x4a0>
   2bacc:	04800044 	movi	r18,1
   2bad0:	003eff06 	br	2b6d0 <__adddf3+0x22c>
   2bad4:	1881ffe0 	cmpeqi	r2,r3,2047
   2bad8:	103f521e 	bne	r2,zero,2b824 <__adddf3+0x380>
   2badc:	6349883a 	add	r4,r12,r13
   2bae0:	8ad7883a 	add	r11,r17,r11
   2bae4:	2305803a 	cmpltu	r2,r4,r12
   2bae8:	5885883a 	add	r2,r11,r2
   2baec:	2008d07a 	srli	r4,r4,1
   2baf0:	102497fa 	slli	r18,r2,31
   2baf4:	1022d07a 	srli	r17,r2,1
   2baf8:	208001cc 	andi	r2,r4,7
   2bafc:	9124b03a 	or	r18,r18,r4
   2bb00:	1821883a 	mov	r16,r3
   2bb04:	103eb71e 	bne	r2,zero,2b5e4 <__adddf3+0x140>
   2bb08:	003fbf06 	br	2ba08 <__adddf3+0x564>
   2bb0c:	6b25c83a 	sub	r18,r13,r12
   2bb10:	5c57c83a 	sub	r11,r11,r17
   2bb14:	6c9b803a 	cmpltu	r13,r13,r18
   2bb18:	5b63c83a 	sub	r17,r11,r13
   2bb1c:	3827883a 	mov	r19,r7
   2bb20:	5029883a 	mov	r20,r10
   2bb24:	003e9706 	br	2b584 <__adddf3+0xe0>
   2bb28:	283f8b1e 	bne	r5,zero,2b958 <__adddf3+0x4b4>
   2bb2c:	1000261e 	bne	r2,zero,2bbc8 <__adddf3+0x724>
   2bb30:	00bfffc4 	movi	r2,-1
   2bb34:	0027883a 	mov	r19,zero
   2bb38:	003f9006 	br	2b97c <__adddf3+0x4d8>
   2bb3c:	6365c83a 	sub	r18,r12,r13
   2bb40:	8ad7c83a 	sub	r11,r17,r11
   2bb44:	6485803a 	cmpltu	r2,r12,r18
   2bb48:	58a3c83a 	sub	r17,r11,r2
   2bb4c:	04000044 	movi	r16,1
   2bb50:	003e8706 	br	2b570 <__adddf3+0xcc>
   2bb54:	8804977a 	slli	r2,r17,29
   2bb58:	00c80034 	movhi	r3,8192
   2bb5c:	18ffffc4 	addi	r3,r3,-1
   2bb60:	20c8703a 	and	r4,r4,r3
   2bb64:	2084b03a 	or	r2,r4,r2
   2bb68:	8806d0fa 	srli	r3,r17,3
   2bb6c:	003f8106 	br	2b974 <__adddf3+0x4d0>
   2bb70:	0027883a 	mov	r19,zero
   2bb74:	0007883a 	mov	r3,zero
   2bb78:	0009883a 	mov	r4,zero
   2bb7c:	003eaf06 	br	2b63c <__adddf3+0x198>
   2bb80:	28bff804 	addi	r2,r5,-32
   2bb84:	28c00820 	cmpeqi	r3,r5,32
   2bb88:	5884d83a 	srl	r2,r11,r2
   2bb8c:	1800041e 	bne	r3,zero,2bba0 <__adddf3+0x6fc>
   2bb90:	00c01004 	movi	r3,64
   2bb94:	1947c83a 	sub	r3,r3,r5
   2bb98:	58c6983a 	sll	r3,r11,r3
   2bb9c:	68dab03a 	or	r13,r13,r3
   2bba0:	6824c03a 	cmpne	r18,r13,zero
   2bba4:	90a4b03a 	or	r18,r18,r2
   2bba8:	003f0c06 	br	2b7dc <__adddf3+0x338>
   2bbac:	880a977a 	slli	r5,r17,29
   2bbb0:	00880034 	movhi	r2,8192
   2bbb4:	10bfffc4 	addi	r2,r2,-1
   2bbb8:	2084703a 	and	r2,r4,r2
   2bbbc:	8806d0fa 	srli	r3,r17,3
   2bbc0:	1144b03a 	or	r2,r2,r5
   2bbc4:	003f5f06 	br	2b944 <__adddf3+0x4a0>
   2bbc8:	5804977a 	slli	r2,r11,29
   2bbcc:	00c80034 	movhi	r3,8192
   2bbd0:	18ffffc4 	addi	r3,r3,-1
   2bbd4:	30c8703a 	and	r4,r6,r3
   2bbd8:	1104b03a 	or	r2,r2,r4
   2bbdc:	5806d0fa 	srli	r3,r11,3
   2bbe0:	3827883a 	mov	r19,r7
   2bbe4:	003f6306 	br	2b974 <__adddf3+0x4d0>
   2bbe8:	04800044 	movi	r18,1
   2bbec:	003f3106 	br	2b8b4 <__adddf3+0x410>
   2bbf0:	28fff804 	addi	r3,r5,-32
   2bbf4:	29000820 	cmpeqi	r4,r5,32
   2bbf8:	88c6d83a 	srl	r3,r17,r3
   2bbfc:	2000041e 	bne	r4,zero,2bc10 <__adddf3+0x76c>
   2bc00:	01001004 	movi	r4,64
   2bc04:	2149c83a 	sub	r4,r4,r5
   2bc08:	8908983a 	sll	r4,r17,r4
   2bc0c:	6118b03a 	or	r12,r12,r4
   2bc10:	6024c03a 	cmpne	r18,r12,zero
   2bc14:	90e4b03a 	or	r18,r18,r3
   2bc18:	003ead06 	br	2b6d0 <__adddf3+0x22c>
   2bc1c:	10004f26 	beq	r2,zero,2bd5c <__adddf3+0x8b8>
   2bc20:	5b5ab03a 	or	r13,r11,r13
   2bc24:	683f4d26 	beq	r13,zero,2b95c <__adddf3+0x4b8>
   2bc28:	8806d0fa 	srli	r3,r17,3
   2bc2c:	01480034 	movhi	r5,8192
   2bc30:	8822977a 	slli	r17,r17,29
   2bc34:	297fffc4 	addi	r5,r5,-1
   2bc38:	2144703a 	and	r2,r4,r5
   2bc3c:	1900022c 	andhi	r4,r3,8
   2bc40:	1444b03a 	or	r2,r2,r17
   2bc44:	203f4b26 	beq	r4,zero,2b974 <__adddf3+0x4d0>
   2bc48:	5808d0fa 	srli	r4,r11,3
   2bc4c:	2200022c 	andhi	r8,r4,8
   2bc50:	403f481e 	bne	r8,zero,2b974 <__adddf3+0x4d0>
   2bc54:	5804977a 	slli	r2,r11,29
   2bc58:	314a703a 	and	r5,r6,r5
   2bc5c:	3827883a 	mov	r19,r7
   2bc60:	2884b03a 	or	r2,r5,r2
   2bc64:	2007883a 	mov	r3,r4
   2bc68:	003f4206 	br	2b974 <__adddf3+0x4d0>
   2bc6c:	04000084 	movi	r16,2
   2bc70:	003ee206 	br	2b7fc <__adddf3+0x358>
   2bc74:	6b25c83a 	sub	r18,r13,r12
   2bc78:	5c57c83a 	sub	r11,r11,r17
   2bc7c:	6c9b803a 	cmpltu	r13,r13,r18
   2bc80:	5b63c83a 	sub	r17,r11,r13
   2bc84:	3827883a 	mov	r19,r7
   2bc88:	5029883a 	mov	r20,r10
   2bc8c:	04000044 	movi	r16,1
   2bc90:	003e3706 	br	2b570 <__adddf3+0xcc>
   2bc94:	103fb626 	beq	r2,zero,2bb70 <__adddf3+0x6cc>
   2bc98:	5808977a 	slli	r4,r11,29
   2bc9c:	00880034 	movhi	r2,8192
   2bca0:	10bfffc4 	addi	r2,r2,-1
   2bca4:	3084703a 	and	r2,r6,r2
   2bca8:	5806d0fa 	srli	r3,r11,3
   2bcac:	1104b03a 	or	r2,r2,r4
   2bcb0:	3827883a 	mov	r19,r7
   2bcb4:	003f2306 	br	2b944 <__adddf3+0x4a0>
   2bcb8:	5808977a 	slli	r4,r11,29
   2bcbc:	00880034 	movhi	r2,8192
   2bcc0:	10bfffc4 	addi	r2,r2,-1
   2bcc4:	3084703a 	and	r2,r6,r2
   2bcc8:	5806d0fa 	srli	r3,r11,3
   2bccc:	1104b03a 	or	r2,r2,r4
   2bcd0:	003f2806 	br	2b974 <__adddf3+0x4d0>
   2bcd4:	6819883a 	mov	r12,r13
   2bcd8:	5823883a 	mov	r17,r11
   2bcdc:	003f3006 	br	2b9a0 <__adddf3+0x4fc>
   2bce0:	5808977a 	slli	r4,r11,29
   2bce4:	00880034 	movhi	r2,8192
   2bce8:	10bfffc4 	addi	r2,r2,-1
   2bcec:	3084703a 	and	r2,r6,r2
   2bcf0:	5806d0fa 	srli	r3,r11,3
   2bcf4:	1104b03a 	or	r2,r2,r4
   2bcf8:	003f1206 	br	2b944 <__adddf3+0x4a0>
   2bcfc:	5808977a 	slli	r4,r11,29
   2bd00:	00880034 	movhi	r2,8192
   2bd04:	10bfffc4 	addi	r2,r2,-1
   2bd08:	3084703a 	and	r2,r6,r2
   2bd0c:	5806d0fa 	srli	r3,r11,3
   2bd10:	1104b03a 	or	r2,r2,r4
   2bd14:	3827883a 	mov	r19,r7
   2bd18:	003f1606 	br	2b974 <__adddf3+0x4d0>
   2bd1c:	28fff804 	addi	r3,r5,-32
   2bd20:	29000820 	cmpeqi	r4,r5,32
   2bd24:	88c6d83a 	srl	r3,r17,r3
   2bd28:	2000041e 	bne	r4,zero,2bd3c <__adddf3+0x898>
   2bd2c:	01001004 	movi	r4,64
   2bd30:	2149c83a 	sub	r4,r4,r5
   2bd34:	8908983a 	sll	r4,r17,r4
   2bd38:	6118b03a 	or	r12,r12,r4
   2bd3c:	6024c03a 	cmpne	r18,r12,zero
   2bd40:	90e4b03a 	or	r18,r18,r3
   2bd44:	003edb06 	br	2b8b4 <__adddf3+0x410>
   2bd48:	6365883a 	add	r18,r12,r13
   2bd4c:	8ad7883a 	add	r11,r17,r11
   2bd50:	935b803a 	cmpltu	r13,r18,r13
   2bd54:	5b63883a 	add	r17,r11,r13
   2bd58:	003ebc06 	br	2b84c <__adddf3+0x3a8>
   2bd5c:	5804977a 	slli	r2,r11,29
   2bd60:	00c80034 	movhi	r3,8192
   2bd64:	18ffffc4 	addi	r3,r3,-1
   2bd68:	30cc703a 	and	r6,r6,r3
   2bd6c:	1184b03a 	or	r2,r2,r6
   2bd70:	5806d0fa 	srli	r3,r11,3
   2bd74:	003eff06 	br	2b974 <__adddf3+0x4d0>
   2bd78:	90c4b03a 	or	r2,r18,r3
   2bd7c:	103f7c26 	beq	r2,zero,2bb70 <__adddf3+0x6cc>
   2bd80:	1823883a 	mov	r17,r3
   2bd84:	003f2006 	br	2ba08 <__adddf3+0x564>
   2bd88:	00c00804 	movi	r3,32
   2bd8c:	1907c83a 	sub	r3,r3,r4
   2bd90:	000b883a 	mov	r5,zero
   2bd94:	003e0c06 	br	2b5c8 <__adddf3+0x124>
   2bd98:	0005883a 	mov	r2,zero
   2bd9c:	00c1ffc4 	movi	r3,2047
   2bda0:	0009883a 	mov	r4,zero
   2bda4:	003e2506 	br	2b63c <__adddf3+0x198>

0002bda8 <__divdf3>:
   2bda8:	2806d53a 	srli	r3,r5,20
   2bdac:	defff004 	addi	sp,sp,-64
   2bdb0:	00800434 	movhi	r2,16
   2bdb4:	dd800c15 	stw	r22,48(sp)
   2bdb8:	dd400b15 	stw	r21,44(sp)
   2bdbc:	dd000a15 	stw	r20,40(sp)
   2bdc0:	dc800815 	stw	r18,32(sp)
   2bdc4:	dc000615 	stw	r16,24(sp)
   2bdc8:	10bfffc4 	addi	r2,r2,-1
   2bdcc:	dfc00f15 	stw	ra,60(sp)
   2bdd0:	df000e15 	stw	fp,56(sp)
   2bdd4:	ddc00d15 	stw	r23,52(sp)
   2bdd8:	dcc00915 	stw	r19,36(sp)
   2bddc:	dc400715 	stw	r17,28(sp)
   2bde0:	18c1ffcc 	andi	r3,r3,2047
   2bde4:	282cd7fa 	srli	r22,r5,31
   2bde8:	302b883a 	mov	r21,r6
   2bdec:	3821883a 	mov	r16,r7
   2bdf0:	2029883a 	mov	r20,r4
   2bdf4:	28a4703a 	and	r18,r5,r2
   2bdf8:	18013426 	beq	r3,zero,2c2cc <__divdf3+0x524>
   2bdfc:	1881ffe0 	cmpeqi	r2,r3,2047
   2be00:	1001451e 	bne	r2,zero,2c318 <__divdf3+0x570>
   2be04:	900a90fa 	slli	r5,r18,3
   2be08:	2022d77a 	srli	r17,r4,29
   2be0c:	202890fa 	slli	r20,r4,3
   2be10:	1f3f0044 	addi	fp,r3,-1023
   2be14:	8962b03a 	or	r17,r17,r5
   2be18:	8c402034 	orhi	r17,r17,128
   2be1c:	0027883a 	mov	r19,zero
   2be20:	0025883a 	mov	r18,zero
   2be24:	8004d53a 	srli	r2,r16,20
   2be28:	01000434 	movhi	r4,16
   2be2c:	213fffc4 	addi	r4,r4,-1
   2be30:	1081ffcc 	andi	r2,r2,2047
   2be34:	802ed7fa 	srli	r23,r16,31
   2be38:	8120703a 	and	r16,r16,r4
   2be3c:	10011226 	beq	r2,zero,2c288 <__divdf3+0x4e0>
   2be40:	1101ffe0 	cmpeqi	r4,r2,2047
   2be44:	20013b1e 	bne	r4,zero,2c334 <__divdf3+0x58c>
   2be48:	a808d77a 	srli	r4,r21,29
   2be4c:	802090fa 	slli	r16,r16,3
   2be50:	a80e90fa 	slli	r7,r21,3
   2be54:	10bf0044 	addi	r2,r2,-1023
   2be58:	2420b03a 	or	r16,r4,r16
   2be5c:	84002034 	orhi	r16,r16,128
   2be60:	e0b9c83a 	sub	fp,fp,r2
   2be64:	0009883a 	mov	r4,zero
   2be68:	98800428 	cmpgeui	r2,r19,16
   2be6c:	b5eaf03a 	xor	r21,r22,r23
   2be70:	1000391e 	bne	r2,zero,2bf58 <__divdf3+0x1b0>
   2be74:	982690ba 	slli	r19,r19,2
   2be78:	008000f4 	movhi	r2,3
   2be7c:	9885883a 	add	r2,r19,r2
   2be80:	10afa217 	ldw	r2,-16760(r2)
   2be84:	1000683a 	jmp	r2
   2be88:	0002bf58 	cmpnei	zero,zero,2813
   2be8c:	0002bf40 	call	2bf4 <__reset-0x1d40c>
   2be90:	0002bef0 	cmpltui	zero,zero,2811
   2be94:	0002bf50 	cmplti	zero,zero,2813
   2be98:	0002bef0 	cmpltui	zero,zero,2811
   2be9c:	0002c398 	cmpnei	zero,zero,2830
   2bea0:	0002bef0 	cmpltui	zero,zero,2811
   2bea4:	0002bf50 	cmplti	zero,zero,2813
   2bea8:	0002bf40 	call	2bf4 <__reset-0x1d40c>
   2beac:	0002bf40 	call	2bf4 <__reset-0x1d40c>
   2beb0:	0002c398 	cmpnei	zero,zero,2830
   2beb4:	0002bf50 	cmplti	zero,zero,2813
   2beb8:	0002bec8 	cmpgei	zero,zero,2811
   2bebc:	0002bec8 	cmpgei	zero,zero,2811
   2bec0:	0002bec8 	cmpgei	zero,zero,2811
   2bec4:	0002c428 	cmpgeui	zero,zero,2832
   2bec8:	b02b883a 	mov	r21,r22
   2becc:	8821883a 	mov	r16,r17
   2bed0:	a00f883a 	mov	r7,r20
   2bed4:	9009883a 	mov	r4,r18
   2bed8:	208000a0 	cmpeqi	r2,r4,2
   2bedc:	1000181e 	bne	r2,zero,2bf40 <__divdf3+0x198>
   2bee0:	208000e0 	cmpeqi	r2,r4,3
   2bee4:	1001df1e 	bne	r2,zero,2c664 <__divdf3+0x8bc>
   2bee8:	21000060 	cmpeqi	r4,r4,1
   2beec:	2000d326 	beq	r4,zero,2c23c <__divdf3+0x494>
   2bef0:	0009883a 	mov	r4,zero
   2bef4:	0023883a 	mov	r17,zero
   2bef8:	0029883a 	mov	r20,zero
   2befc:	2006953a 	slli	r3,r4,20
   2bf00:	a80c97fa 	slli	r6,r21,31
   2bf04:	a005883a 	mov	r2,r20
   2bf08:	1c46b03a 	or	r3,r3,r17
   2bf0c:	1986b03a 	or	r3,r3,r6
   2bf10:	dfc00f17 	ldw	ra,60(sp)
   2bf14:	df000e17 	ldw	fp,56(sp)
   2bf18:	ddc00d17 	ldw	r23,52(sp)
   2bf1c:	dd800c17 	ldw	r22,48(sp)
   2bf20:	dd400b17 	ldw	r21,44(sp)
   2bf24:	dd000a17 	ldw	r20,40(sp)
   2bf28:	dcc00917 	ldw	r19,36(sp)
   2bf2c:	dc800817 	ldw	r18,32(sp)
   2bf30:	dc400717 	ldw	r17,28(sp)
   2bf34:	dc000617 	ldw	r16,24(sp)
   2bf38:	dec01004 	addi	sp,sp,64
   2bf3c:	f800283a 	ret
   2bf40:	0101ffc4 	movi	r4,2047
   2bf44:	0023883a 	mov	r17,zero
   2bf48:	0029883a 	mov	r20,zero
   2bf4c:	003feb06 	br	2befc <__divdf3+0x154>
   2bf50:	b82b883a 	mov	r21,r23
   2bf54:	003fe006 	br	2bed8 <__divdf3+0x130>
   2bf58:	84414d36 	bltu	r16,r17,2c490 <__divdf3+0x6e8>
   2bf5c:	84414b26 	beq	r16,r17,2c48c <__divdf3+0x6e4>
   2bf60:	a025883a 	mov	r18,r20
   2bf64:	e73fffc4 	addi	fp,fp,-1
   2bf68:	0029883a 	mov	r20,zero
   2bf6c:	8020923a 	slli	r16,r16,8
   2bf70:	3826d63a 	srli	r19,r7,24
   2bf74:	8809883a 	mov	r4,r17
   2bf78:	802ed43a 	srli	r23,r16,16
   2bf7c:	9c26b03a 	or	r19,r19,r16
   2bf80:	9dbfffcc 	andi	r22,r19,65535
   2bf84:	b80b883a 	mov	r5,r23
   2bf88:	d9c00115 	stw	r7,4(sp)
   2bf8c:	dd800015 	stw	r22,0(sp)
   2bf90:	00208400 	call	20840 <__udivsi3>
   2bf94:	b009883a 	mov	r4,r22
   2bf98:	100b883a 	mov	r5,r2
   2bf9c:	1021883a 	mov	r16,r2
   2bfa0:	002b47c0 	call	2b47c <__mulsi3>
   2bfa4:	8809883a 	mov	r4,r17
   2bfa8:	b80b883a 	mov	r5,r23
   2bfac:	102d883a 	mov	r22,r2
   2bfb0:	00208a40 	call	208a4 <__umodsi3>
   2bfb4:	1004943a 	slli	r2,r2,16
   2bfb8:	9008d43a 	srli	r4,r18,16
   2bfbc:	d9c00117 	ldw	r7,4(sp)
   2bfc0:	2088b03a 	or	r4,r4,r2
   2bfc4:	3822923a 	slli	r17,r7,8
   2bfc8:	2580042e 	bgeu	r4,r22,2bfdc <__divdf3+0x234>
   2bfcc:	24c9883a 	add	r4,r4,r19
   2bfd0:	80bfffc4 	addi	r2,r16,-1
   2bfd4:	24c1602e 	bgeu	r4,r19,2c558 <__divdf3+0x7b0>
   2bfd8:	1021883a 	mov	r16,r2
   2bfdc:	25adc83a 	sub	r22,r4,r22
   2bfe0:	b80b883a 	mov	r5,r23
   2bfe4:	b009883a 	mov	r4,r22
   2bfe8:	00208400 	call	20840 <__udivsi3>
   2bfec:	d9000017 	ldw	r4,0(sp)
   2bff0:	100b883a 	mov	r5,r2
   2bff4:	d8800215 	stw	r2,8(sp)
   2bff8:	002b47c0 	call	2b47c <__mulsi3>
   2bffc:	b80b883a 	mov	r5,r23
   2c000:	b009883a 	mov	r4,r22
   2c004:	d8800115 	stw	r2,4(sp)
   2c008:	00208a40 	call	208a4 <__umodsi3>
   2c00c:	1004943a 	slli	r2,r2,16
   2c010:	da400117 	ldw	r9,4(sp)
   2c014:	94bfffcc 	andi	r18,r18,65535
   2c018:	908eb03a 	or	r7,r18,r2
   2c01c:	da000217 	ldw	r8,8(sp)
   2c020:	3a40042e 	bgeu	r7,r9,2c034 <__divdf3+0x28c>
   2c024:	3ccf883a 	add	r7,r7,r19
   2c028:	40bfffc4 	addi	r2,r8,-1
   2c02c:	3cc1462e 	bgeu	r7,r19,2c548 <__divdf3+0x7a0>
   2c030:	1011883a 	mov	r8,r2
   2c034:	8020943a 	slli	r16,r16,16
   2c038:	88bfffcc 	andi	r2,r17,65535
   2c03c:	100b883a 	mov	r5,r2
   2c040:	8220b03a 	or	r16,r16,r8
   2c044:	82bfffcc 	andi	r10,r16,65535
   2c048:	3a51c83a 	sub	r8,r7,r9
   2c04c:	5009883a 	mov	r4,r10
   2c050:	da000415 	stw	r8,16(sp)
   2c054:	da800515 	stw	r10,20(sp)
   2c058:	8024d43a 	srli	r18,r16,16
   2c05c:	d8800115 	stw	r2,4(sp)
   2c060:	002b47c0 	call	2b47c <__mulsi3>
   2c064:	d9400117 	ldw	r5,4(sp)
   2c068:	882cd43a 	srli	r22,r17,16
   2c06c:	9009883a 	mov	r4,r18
   2c070:	d8800315 	stw	r2,12(sp)
   2c074:	002b47c0 	call	2b47c <__mulsi3>
   2c078:	9009883a 	mov	r4,r18
   2c07c:	b00b883a 	mov	r5,r22
   2c080:	d8800215 	stw	r2,8(sp)
   2c084:	002b47c0 	call	2b47c <__mulsi3>
   2c088:	da800517 	ldw	r10,20(sp)
   2c08c:	b009883a 	mov	r4,r22
   2c090:	1025883a 	mov	r18,r2
   2c094:	500b883a 	mov	r5,r10
   2c098:	002b47c0 	call	2b47c <__mulsi3>
   2c09c:	da400317 	ldw	r9,12(sp)
   2c0a0:	d9c00217 	ldw	r7,8(sp)
   2c0a4:	da000417 	ldw	r8,16(sp)
   2c0a8:	4808d43a 	srli	r4,r9,16
   2c0ac:	11c5883a 	add	r2,r2,r7
   2c0b0:	2089883a 	add	r4,r4,r2
   2c0b4:	21c0022e 	bgeu	r4,r7,2c0c0 <__divdf3+0x318>
   2c0b8:	00800074 	movhi	r2,1
   2c0bc:	90a5883a 	add	r18,r18,r2
   2c0c0:	200ad43a 	srli	r5,r4,16
   2c0c4:	200e943a 	slli	r7,r4,16
   2c0c8:	4a7fffcc 	andi	r9,r9,65535
   2c0cc:	2c85883a 	add	r2,r5,r18
   2c0d0:	3a4f883a 	add	r7,r7,r9
   2c0d4:	40800236 	bltu	r8,r2,2c0e0 <__divdf3+0x338>
   2c0d8:	40800a1e 	bne	r8,r2,2c104 <__divdf3+0x35c>
   2c0dc:	a1c0092e 	bgeu	r20,r7,2c104 <__divdf3+0x35c>
   2c0e0:	a469883a 	add	r20,r20,r17
   2c0e4:	a449803a 	cmpltu	r4,r20,r17
   2c0e8:	24c9883a 	add	r4,r4,r19
   2c0ec:	4111883a 	add	r8,r8,r4
   2c0f0:	813fffc4 	addi	r4,r16,-1
   2c0f4:	9a01112e 	bgeu	r19,r8,2c53c <__divdf3+0x794>
   2c0f8:	40814236 	bltu	r8,r2,2c604 <__divdf3+0x85c>
   2c0fc:	12014026 	beq	r2,r8,2c600 <__divdf3+0x858>
   2c100:	2021883a 	mov	r16,r4
   2c104:	a1e5c83a 	sub	r18,r20,r7
   2c108:	4085c83a 	sub	r2,r8,r2
   2c10c:	a4a9803a 	cmpltu	r20,r20,r18
   2c110:	1529c83a 	sub	r20,r2,r20
   2c114:	9d012926 	beq	r19,r20,2c5bc <__divdf3+0x814>
   2c118:	a009883a 	mov	r4,r20
   2c11c:	b80b883a 	mov	r5,r23
   2c120:	00208400 	call	20840 <__udivsi3>
   2c124:	d9000017 	ldw	r4,0(sp)
   2c128:	100b883a 	mov	r5,r2
   2c12c:	d8800215 	stw	r2,8(sp)
   2c130:	002b47c0 	call	2b47c <__mulsi3>
   2c134:	a009883a 	mov	r4,r20
   2c138:	b80b883a 	mov	r5,r23
   2c13c:	1029883a 	mov	r20,r2
   2c140:	00208a40 	call	208a4 <__umodsi3>
   2c144:	1004943a 	slli	r2,r2,16
   2c148:	9008d43a 	srli	r4,r18,16
   2c14c:	2088b03a 	or	r4,r4,r2
   2c150:	2500f136 	bltu	r4,r20,2c518 <__divdf3+0x770>
   2c154:	2529c83a 	sub	r20,r4,r20
   2c158:	a009883a 	mov	r4,r20
   2c15c:	b80b883a 	mov	r5,r23
   2c160:	00208400 	call	20840 <__udivsi3>
   2c164:	d9000017 	ldw	r4,0(sp)
   2c168:	100b883a 	mov	r5,r2
   2c16c:	d8800315 	stw	r2,12(sp)
   2c170:	002b47c0 	call	2b47c <__mulsi3>
   2c174:	a009883a 	mov	r4,r20
   2c178:	b80b883a 	mov	r5,r23
   2c17c:	1029883a 	mov	r20,r2
   2c180:	00208a40 	call	208a4 <__umodsi3>
   2c184:	1004943a 	slli	r2,r2,16
   2c188:	91ffffcc 	andi	r7,r18,65535
   2c18c:	da400317 	ldw	r9,12(sp)
   2c190:	3890b03a 	or	r8,r7,r2
   2c194:	4500d936 	bltu	r8,r20,2c4fc <__divdf3+0x754>
   2c198:	d8800217 	ldw	r2,8(sp)
   2c19c:	ddc00117 	ldw	r23,4(sp)
   2c1a0:	4529c83a 	sub	r20,r8,r20
   2c1a4:	1024943a 	slli	r18,r2,16
   2c1a8:	b809883a 	mov	r4,r23
   2c1ac:	924eb03a 	or	r7,r18,r9
   2c1b0:	3824d43a 	srli	r18,r7,16
   2c1b4:	3a7fffcc 	andi	r9,r7,65535
   2c1b8:	480b883a 	mov	r5,r9
   2c1bc:	d9c00215 	stw	r7,8(sp)
   2c1c0:	da400115 	stw	r9,4(sp)
   2c1c4:	002b47c0 	call	2b47c <__mulsi3>
   2c1c8:	b80b883a 	mov	r5,r23
   2c1cc:	9009883a 	mov	r4,r18
   2c1d0:	102f883a 	mov	r23,r2
   2c1d4:	002b47c0 	call	2b47c <__mulsi3>
   2c1d8:	900b883a 	mov	r5,r18
   2c1dc:	b009883a 	mov	r4,r22
   2c1e0:	d8800015 	stw	r2,0(sp)
   2c1e4:	002b47c0 	call	2b47c <__mulsi3>
   2c1e8:	da400117 	ldw	r9,4(sp)
   2c1ec:	b009883a 	mov	r4,r22
   2c1f0:	1025883a 	mov	r18,r2
   2c1f4:	480b883a 	mov	r5,r9
   2c1f8:	002b47c0 	call	2b47c <__mulsi3>
   2c1fc:	d8c00017 	ldw	r3,0(sp)
   2c200:	b808d43a 	srli	r4,r23,16
   2c204:	d9c00217 	ldw	r7,8(sp)
   2c208:	10cb883a 	add	r5,r2,r3
   2c20c:	2149883a 	add	r4,r4,r5
   2c210:	20c0022e 	bgeu	r4,r3,2c21c <__divdf3+0x474>
   2c214:	00800074 	movhi	r2,1
   2c218:	90a5883a 	add	r18,r18,r2
   2c21c:	200ad43a 	srli	r5,r4,16
   2c220:	2008943a 	slli	r4,r4,16
   2c224:	ba3fffcc 	andi	r8,r23,65535
   2c228:	2c8b883a 	add	r5,r5,r18
   2c22c:	2209883a 	add	r4,r4,r8
   2c230:	a1408f36 	bltu	r20,r5,2c470 <__divdf3+0x6c8>
   2c234:	a1408d26 	beq	r20,r5,2c46c <__divdf3+0x6c4>
   2c238:	39c00054 	ori	r7,r7,1
   2c23c:	e100ffc4 	addi	r4,fp,1023
   2c240:	01005c0e 	bge	zero,r4,2c3b4 <__divdf3+0x60c>
   2c244:	388001cc 	andi	r2,r7,7
   2c248:	1000e41e 	bne	r2,zero,2c5dc <__divdf3+0x834>
   2c24c:	8080402c 	andhi	r2,r16,256
   2c250:	10000426 	beq	r2,zero,2c264 <__divdf3+0x4bc>
   2c254:	00bfc034 	movhi	r2,65280
   2c258:	10bfffc4 	addi	r2,r2,-1
   2c25c:	80a0703a 	and	r16,r16,r2
   2c260:	e1010004 	addi	r4,fp,1024
   2c264:	2081ffc8 	cmpgei	r2,r4,2047
   2c268:	103f351e 	bne	r2,zero,2bf40 <__divdf3+0x198>
   2c26c:	380ed0fa 	srli	r7,r7,3
   2c270:	8024977a 	slli	r18,r16,29
   2c274:	8022927a 	slli	r17,r16,9
   2c278:	2101ffcc 	andi	r4,r4,2047
   2c27c:	91e8b03a 	or	r20,r18,r7
   2c280:	8822d33a 	srli	r17,r17,12
   2c284:	003f1d06 	br	2befc <__divdf3+0x154>
   2c288:	854eb03a 	or	r7,r16,r21
   2c28c:	38003e26 	beq	r7,zero,2c388 <__divdf3+0x5e0>
   2c290:	80008f26 	beq	r16,zero,2c4d0 <__divdf3+0x728>
   2c294:	8009883a 	mov	r4,r16
   2c298:	002dcdc0 	call	2dcdc <__clzsi2>
   2c29c:	117ffd44 	addi	r5,r2,-11
   2c2a0:	01000744 	movi	r4,29
   2c2a4:	11fffe04 	addi	r7,r2,-8
   2c2a8:	2149c83a 	sub	r4,r4,r5
   2c2ac:	81e0983a 	sll	r16,r16,r7
   2c2b0:	a908d83a 	srl	r4,r21,r4
   2c2b4:	a9ce983a 	sll	r7,r21,r7
   2c2b8:	2420b03a 	or	r16,r4,r16
   2c2bc:	1705883a 	add	r2,r2,fp
   2c2c0:	1700fcc4 	addi	fp,r2,1011
   2c2c4:	0009883a 	mov	r4,zero
   2c2c8:	003ee706 	br	2be68 <__divdf3+0xc0>
   2c2cc:	24a2b03a 	or	r17,r4,r18
   2c2d0:	2027883a 	mov	r19,r4
   2c2d4:	88002726 	beq	r17,zero,2c374 <__divdf3+0x5cc>
   2c2d8:	90007326 	beq	r18,zero,2c4a8 <__divdf3+0x700>
   2c2dc:	9009883a 	mov	r4,r18
   2c2e0:	002dcdc0 	call	2dcdc <__clzsi2>
   2c2e4:	10fffd44 	addi	r3,r2,-11
   2c2e8:	04400744 	movi	r17,29
   2c2ec:	153ffe04 	addi	r20,r2,-8
   2c2f0:	88e3c83a 	sub	r17,r17,r3
   2c2f4:	950a983a 	sll	r5,r18,r20
   2c2f8:	9c62d83a 	srl	r17,r19,r17
   2c2fc:	9d28983a 	sll	r20,r19,r20
   2c300:	8962b03a 	or	r17,r17,r5
   2c304:	00ff0344 	movi	r3,-1011
   2c308:	18b9c83a 	sub	fp,r3,r2
   2c30c:	0027883a 	mov	r19,zero
   2c310:	0025883a 	mov	r18,zero
   2c314:	003ec306 	br	2be24 <__divdf3+0x7c>
   2c318:	24a2b03a 	or	r17,r4,r18
   2c31c:	8800101e 	bne	r17,zero,2c360 <__divdf3+0x5b8>
   2c320:	0029883a 	mov	r20,zero
   2c324:	04c00204 	movi	r19,8
   2c328:	0701ffc4 	movi	fp,2047
   2c32c:	04800084 	movi	r18,2
   2c330:	003ebc06 	br	2be24 <__divdf3+0x7c>
   2c334:	854eb03a 	or	r7,r16,r21
   2c338:	e73e0044 	addi	fp,fp,-2047
   2c33c:	3800041e 	bne	r7,zero,2c350 <__divdf3+0x5a8>
   2c340:	9cc00094 	ori	r19,r19,2
   2c344:	0021883a 	mov	r16,zero
   2c348:	01000084 	movi	r4,2
   2c34c:	003ec606 	br	2be68 <__divdf3+0xc0>
   2c350:	9cc000d4 	ori	r19,r19,3
   2c354:	a80f883a 	mov	r7,r21
   2c358:	010000c4 	movi	r4,3
   2c35c:	003ec206 	br	2be68 <__divdf3+0xc0>
   2c360:	9023883a 	mov	r17,r18
   2c364:	04c00304 	movi	r19,12
   2c368:	0701ffc4 	movi	fp,2047
   2c36c:	048000c4 	movi	r18,3
   2c370:	003eac06 	br	2be24 <__divdf3+0x7c>
   2c374:	0029883a 	mov	r20,zero
   2c378:	04c00104 	movi	r19,4
   2c37c:	0039883a 	mov	fp,zero
   2c380:	04800044 	movi	r18,1
   2c384:	003ea706 	br	2be24 <__divdf3+0x7c>
   2c388:	9cc00054 	ori	r19,r19,1
   2c38c:	0021883a 	mov	r16,zero
   2c390:	01000044 	movi	r4,1
   2c394:	003eb406 	br	2be68 <__divdf3+0xc0>
   2c398:	04400434 	movhi	r17,16
   2c39c:	002b883a 	mov	r21,zero
   2c3a0:	8c7fffc4 	addi	r17,r17,-1
   2c3a4:	053fffc4 	movi	r20,-1
   2c3a8:	0101ffc4 	movi	r4,2047
   2c3ac:	003ed306 	br	2befc <__divdf3+0x154>
   2c3b0:	01ffffc4 	movi	r7,-1
   2c3b4:	00800044 	movi	r2,1
   2c3b8:	1105c83a 	sub	r2,r2,r4
   2c3bc:	11400e48 	cmpgei	r5,r2,57
   2c3c0:	283ecb1e 	bne	r5,zero,2bef0 <__divdf3+0x148>
   2c3c4:	11400808 	cmpgei	r5,r2,32
   2c3c8:	2800671e 	bne	r5,zero,2c568 <__divdf3+0x7c0>
   2c3cc:	e0c10784 	addi	r3,fp,1054
   2c3d0:	80e4983a 	sll	r18,r16,r3
   2c3d4:	3888d83a 	srl	r4,r7,r2
   2c3d8:	38c6983a 	sll	r3,r7,r3
   2c3dc:	80a0d83a 	srl	r16,r16,r2
   2c3e0:	9124b03a 	or	r18,r18,r4
   2c3e4:	1806c03a 	cmpne	r3,r3,zero
   2c3e8:	90e4b03a 	or	r18,r18,r3
   2c3ec:	908001cc 	andi	r2,r18,7
   2c3f0:	10000726 	beq	r2,zero,2c410 <__divdf3+0x668>
   2c3f4:	908003cc 	andi	r2,r18,15
   2c3f8:	10800120 	cmpeqi	r2,r2,4
   2c3fc:	1000041e 	bne	r2,zero,2c410 <__divdf3+0x668>
   2c400:	90800104 	addi	r2,r18,4
   2c404:	14a5803a 	cmpltu	r18,r2,r18
   2c408:	84a1883a 	add	r16,r16,r18
   2c40c:	1025883a 	mov	r18,r2
   2c410:	8080202c 	andhi	r2,r16,128
   2c414:	10008f26 	beq	r2,zero,2c654 <__divdf3+0x8ac>
   2c418:	01000044 	movi	r4,1
   2c41c:	0023883a 	mov	r17,zero
   2c420:	0029883a 	mov	r20,zero
   2c424:	003eb506 	br	2befc <__divdf3+0x154>
   2c428:	8880022c 	andhi	r2,r17,8
   2c42c:	10000926 	beq	r2,zero,2c454 <__divdf3+0x6ac>
   2c430:	8080022c 	andhi	r2,r16,8
   2c434:	1000071e 	bne	r2,zero,2c454 <__divdf3+0x6ac>
   2c438:	00800434 	movhi	r2,16
   2c43c:	84400234 	orhi	r17,r16,8
   2c440:	10bfffc4 	addi	r2,r2,-1
   2c444:	88a2703a 	and	r17,r17,r2
   2c448:	b82b883a 	mov	r21,r23
   2c44c:	3829883a 	mov	r20,r7
   2c450:	003fd506 	br	2c3a8 <__divdf3+0x600>
   2c454:	00800434 	movhi	r2,16
   2c458:	8c400234 	orhi	r17,r17,8
   2c45c:	10bfffc4 	addi	r2,r2,-1
   2c460:	88a2703a 	and	r17,r17,r2
   2c464:	b02b883a 	mov	r21,r22
   2c468:	003fcf06 	br	2c3a8 <__divdf3+0x600>
   2c46c:	203f7326 	beq	r4,zero,2c23c <__divdf3+0x494>
   2c470:	9d11883a 	add	r8,r19,r20
   2c474:	38bfffc4 	addi	r2,r7,-1
   2c478:	44c04c36 	bltu	r8,r19,2c5ac <__divdf3+0x804>
   2c47c:	41406736 	bltu	r8,r5,2c61c <__divdf3+0x874>
   2c480:	41407e26 	beq	r8,r5,2c67c <__divdf3+0x8d4>
   2c484:	100f883a 	mov	r7,r2
   2c488:	003f6b06 	br	2c238 <__divdf3+0x490>
   2c48c:	a1feb436 	bltu	r20,r7,2bf60 <__divdf3+0x1b8>
   2c490:	880897fa 	slli	r4,r17,31
   2c494:	a004d07a 	srli	r2,r20,1
   2c498:	8822d07a 	srli	r17,r17,1
   2c49c:	a02897fa 	slli	r20,r20,31
   2c4a0:	20a4b03a 	or	r18,r4,r2
   2c4a4:	003eb106 	br	2bf6c <__divdf3+0x1c4>
   2c4a8:	002dcdc0 	call	2dcdc <__clzsi2>
   2c4ac:	10c00544 	addi	r3,r2,21
   2c4b0:	19000748 	cmpgei	r4,r3,29
   2c4b4:	1023883a 	mov	r17,r2
   2c4b8:	10800804 	addi	r2,r2,32
   2c4bc:	203f8a26 	beq	r4,zero,2c2e8 <__divdf3+0x540>
   2c4c0:	8c7ffe04 	addi	r17,r17,-8
   2c4c4:	a462983a 	sll	r17,r20,r17
   2c4c8:	0029883a 	mov	r20,zero
   2c4cc:	003f8d06 	br	2c304 <__divdf3+0x55c>
   2c4d0:	a809883a 	mov	r4,r21
   2c4d4:	002dcdc0 	call	2dcdc <__clzsi2>
   2c4d8:	11400544 	addi	r5,r2,21
   2c4dc:	29800748 	cmpgei	r6,r5,29
   2c4e0:	1009883a 	mov	r4,r2
   2c4e4:	10800804 	addi	r2,r2,32
   2c4e8:	303f6d26 	beq	r6,zero,2c2a0 <__divdf3+0x4f8>
   2c4ec:	213ffe04 	addi	r4,r4,-8
   2c4f0:	a920983a 	sll	r16,r21,r4
   2c4f4:	000f883a 	mov	r7,zero
   2c4f8:	003f7006 	br	2c2bc <__divdf3+0x514>
   2c4fc:	44d1883a 	add	r8,r8,r19
   2c500:	48bfffc4 	addi	r2,r9,-1
   2c504:	44c03c36 	bltu	r8,r19,2c5f8 <__divdf3+0x850>
   2c508:	45003b2e 	bgeu	r8,r20,2c5f8 <__divdf3+0x850>
   2c50c:	4a7fff84 	addi	r9,r9,-2
   2c510:	44d1883a 	add	r8,r8,r19
   2c514:	003f2006 	br	2c198 <__divdf3+0x3f0>
   2c518:	d8c00217 	ldw	r3,8(sp)
   2c51c:	24c9883a 	add	r4,r4,r19
   2c520:	18bfffc4 	addi	r2,r3,-1
   2c524:	24c03236 	bltu	r4,r19,2c5f0 <__divdf3+0x848>
   2c528:	2500312e 	bgeu	r4,r20,2c5f0 <__divdf3+0x848>
   2c52c:	18bfff84 	addi	r2,r3,-2
   2c530:	d8800215 	stw	r2,8(sp)
   2c534:	24c9883a 	add	r4,r4,r19
   2c538:	003f0606 	br	2c154 <__divdf3+0x3ac>
   2c53c:	9a3ef01e 	bne	r19,r8,2c100 <__divdf3+0x358>
   2c540:	a47eef36 	bltu	r20,r17,2c100 <__divdf3+0x358>
   2c544:	003eec06 	br	2c0f8 <__divdf3+0x350>
   2c548:	3a7eb92e 	bgeu	r7,r9,2c030 <__divdf3+0x288>
   2c54c:	423fff84 	addi	r8,r8,-2
   2c550:	3ccf883a 	add	r7,r7,r19
   2c554:	003eb706 	br	2c034 <__divdf3+0x28c>
   2c558:	25be9f2e 	bgeu	r4,r22,2bfd8 <__divdf3+0x230>
   2c55c:	843fff84 	addi	r16,r16,-2
   2c560:	24c9883a 	add	r4,r4,r19
   2c564:	003e9d06 	br	2bfdc <__divdf3+0x234>
   2c568:	017ff844 	movi	r5,-31
   2c56c:	2909c83a 	sub	r4,r5,r4
   2c570:	10800820 	cmpeqi	r2,r2,32
   2c574:	8108d83a 	srl	r4,r16,r4
   2c578:	1000031e 	bne	r2,zero,2c588 <__divdf3+0x7e0>
   2c57c:	e0c10f84 	addi	r3,fp,1086
   2c580:	80c6983a 	sll	r3,r16,r3
   2c584:	38ceb03a 	or	r7,r7,r3
   2c588:	3824c03a 	cmpne	r18,r7,zero
   2c58c:	9124b03a 	or	r18,r18,r4
   2c590:	940001cc 	andi	r16,r18,7
   2c594:	8000291e 	bne	r16,zero,2c63c <__divdf3+0x894>
   2c598:	0023883a 	mov	r17,zero
   2c59c:	9024d0fa 	srli	r18,r18,3
   2c5a0:	0009883a 	mov	r4,zero
   2c5a4:	9428b03a 	or	r20,r18,r16
   2c5a8:	003e5406 	br	2befc <__divdf3+0x154>
   2c5ac:	100f883a 	mov	r7,r2
   2c5b0:	417f211e 	bne	r8,r5,2c238 <__divdf3+0x490>
   2c5b4:	247f201e 	bne	r4,r17,2c238 <__divdf3+0x490>
   2c5b8:	003f2006 	br	2c23c <__divdf3+0x494>
   2c5bc:	e0bf0088 	cmpgei	r2,fp,-1022
   2c5c0:	e100ffc4 	addi	r4,fp,1023
   2c5c4:	103f7a26 	beq	r2,zero,2c3b0 <__divdf3+0x608>
   2c5c8:	00bfffc4 	movi	r2,-1
   2c5cc:	11c00104 	addi	r7,r2,4
   2c5d0:	3885803a 	cmpltu	r2,r7,r2
   2c5d4:	80a1883a 	add	r16,r16,r2
   2c5d8:	003f1c06 	br	2c24c <__divdf3+0x4a4>
   2c5dc:	388003cc 	andi	r2,r7,15
   2c5e0:	10800120 	cmpeqi	r2,r2,4
   2c5e4:	103f191e 	bne	r2,zero,2c24c <__divdf3+0x4a4>
   2c5e8:	3805883a 	mov	r2,r7
   2c5ec:	003ff706 	br	2c5cc <__divdf3+0x824>
   2c5f0:	d8800215 	stw	r2,8(sp)
   2c5f4:	003ed706 	br	2c154 <__divdf3+0x3ac>
   2c5f8:	1013883a 	mov	r9,r2
   2c5fc:	003ee606 	br	2c198 <__divdf3+0x3f0>
   2c600:	a1febf2e 	bgeu	r20,r7,2c100 <__divdf3+0x358>
   2c604:	a469883a 	add	r20,r20,r17
   2c608:	a449803a 	cmpltu	r4,r20,r17
   2c60c:	24c9883a 	add	r4,r4,r19
   2c610:	843fff84 	addi	r16,r16,-2
   2c614:	4111883a 	add	r8,r8,r4
   2c618:	003eba06 	br	2c104 <__divdf3+0x35c>
   2c61c:	8c45883a 	add	r2,r17,r17
   2c620:	1463803a 	cmpltu	r17,r2,r17
   2c624:	8ce3883a 	add	r17,r17,r19
   2c628:	4451883a 	add	r8,r8,r17
   2c62c:	39ffff84 	addi	r7,r7,-2
   2c630:	1023883a 	mov	r17,r2
   2c634:	417fdf26 	beq	r8,r5,2c5b4 <__divdf3+0x80c>
   2c638:	003eff06 	br	2c238 <__divdf3+0x490>
   2c63c:	908003cc 	andi	r2,r18,15
   2c640:	10800120 	cmpeqi	r2,r2,4
   2c644:	1000111e 	bne	r2,zero,2c68c <__divdf3+0x8e4>
   2c648:	90800104 	addi	r2,r18,4
   2c64c:	14a1803a 	cmpltu	r16,r2,r18
   2c650:	1025883a 	mov	r18,r2
   2c654:	8022927a 	slli	r17,r16,9
   2c658:	8020977a 	slli	r16,r16,29
   2c65c:	8822d33a 	srli	r17,r17,12
   2c660:	003fce06 	br	2c59c <__divdf3+0x7f4>
   2c664:	00800434 	movhi	r2,16
   2c668:	84400234 	orhi	r17,r16,8
   2c66c:	10bfffc4 	addi	r2,r2,-1
   2c670:	88a2703a 	and	r17,r17,r2
   2c674:	3829883a 	mov	r20,r7
   2c678:	003f4b06 	br	2c3a8 <__divdf3+0x600>
   2c67c:	893fe736 	bltu	r17,r4,2c61c <__divdf3+0x874>
   2c680:	100f883a 	mov	r7,r2
   2c684:	247eec1e 	bne	r4,r17,2c238 <__divdf3+0x490>
   2c688:	003eec06 	br	2c23c <__divdf3+0x494>
   2c68c:	0021883a 	mov	r16,zero
   2c690:	003ff006 	br	2c654 <__divdf3+0x8ac>

0002c694 <__eqdf2>:
   2c694:	2810d53a 	srli	r8,r5,20
   2c698:	3804d53a 	srli	r2,r7,20
   2c69c:	00c00434 	movhi	r3,16
   2c6a0:	4201ffcc 	andi	r8,r8,2047
   2c6a4:	18ffffc4 	addi	r3,r3,-1
   2c6a8:	4241ffe0 	cmpeqi	r9,r8,2047
   2c6ac:	2816d7fa 	srli	r11,r5,31
   2c6b0:	3814d7fa 	srli	r10,r7,31
   2c6b4:	28ca703a 	and	r5,r5,r3
   2c6b8:	38ce703a 	and	r7,r7,r3
   2c6bc:	1081ffcc 	andi	r2,r2,2047
   2c6c0:	4800061e 	bne	r9,zero,2c6dc <__eqdf2+0x48>
   2c6c4:	10c1ffe0 	cmpeqi	r3,r2,2047
   2c6c8:	1800061e 	bne	r3,zero,2c6e4 <__eqdf2+0x50>
   2c6cc:	4080051e 	bne	r8,r2,2c6e4 <__eqdf2+0x50>
   2c6d0:	00800044 	movi	r2,1
   2c6d4:	29c00b26 	beq	r5,r7,2c704 <__eqdf2+0x70>
   2c6d8:	f800283a 	ret
   2c6dc:	1081ffd8 	cmpnei	r2,r2,2047
   2c6e0:	10000226 	beq	r2,zero,2c6ec <__eqdf2+0x58>
   2c6e4:	00800044 	movi	r2,1
   2c6e8:	f800283a 	ret
   2c6ec:	29cab03a 	or	r5,r5,r7
   2c6f0:	2984b03a 	or	r2,r5,r6
   2c6f4:	1104b03a 	or	r2,r2,r4
   2c6f8:	103ffa1e 	bne	r2,zero,2c6e4 <__eqdf2+0x50>
   2c6fc:	5a84c03a 	cmpne	r2,r11,r10
   2c700:	f800283a 	ret
   2c704:	21800126 	beq	r4,r6,2c70c <__eqdf2+0x78>
   2c708:	f800283a 	ret
   2c70c:	5a800426 	beq	r11,r10,2c720 <__eqdf2+0x8c>
   2c710:	403ffd1e 	bne	r8,zero,2c708 <__eqdf2+0x74>
   2c714:	290ab03a 	or	r5,r5,r4
   2c718:	2804c03a 	cmpne	r2,r5,zero
   2c71c:	f800283a 	ret
   2c720:	0005883a 	mov	r2,zero
   2c724:	003ff806 	br	2c708 <__eqdf2+0x74>

0002c728 <__gedf2>:
   2c728:	2810d53a 	srli	r8,r5,20
   2c72c:	3812d53a 	srli	r9,r7,20
   2c730:	00c00434 	movhi	r3,16
   2c734:	4201ffcc 	andi	r8,r8,2047
   2c738:	18ffffc4 	addi	r3,r3,-1
   2c73c:	4281ffd8 	cmpnei	r10,r8,2047
   2c740:	2816d7fa 	srli	r11,r5,31
   2c744:	3804d7fa 	srli	r2,r7,31
   2c748:	28ca703a 	and	r5,r5,r3
   2c74c:	38ce703a 	and	r7,r7,r3
   2c750:	48c1ffcc 	andi	r3,r9,2047
   2c754:	50001426 	beq	r10,zero,2c7a8 <__gedf2+0x80>
   2c758:	1a41ffd8 	cmpnei	r9,r3,2047
   2c75c:	48000926 	beq	r9,zero,2c784 <__gedf2+0x5c>
   2c760:	40001b1e 	bne	r8,zero,2c7d0 <__gedf2+0xa8>
   2c764:	2910b03a 	or	r8,r5,r4
   2c768:	1800161e 	bne	r3,zero,2c7c4 <__gedf2+0x9c>
   2c76c:	3986b03a 	or	r3,r7,r6
   2c770:	18002126 	beq	r3,zero,2c7f8 <__gedf2+0xd0>
   2c774:	4000291e 	bne	r8,zero,2c81c <__gedf2+0xf4>
   2c778:	1000111e 	bne	r2,zero,2c7c0 <__gedf2+0x98>
   2c77c:	00bfffc4 	movi	r2,-1
   2c780:	f800283a 	ret
   2c784:	398eb03a 	or	r7,r7,r6
   2c788:	3800221e 	bne	r7,zero,2c814 <__gedf2+0xec>
   2c78c:	4000021e 	bne	r8,zero,2c798 <__gedf2+0x70>
   2c790:	2908b03a 	or	r4,r5,r4
   2c794:	203ff826 	beq	r4,zero,2c778 <__gedf2+0x50>
   2c798:	5880071e 	bne	r11,r2,2c7b8 <__gedf2+0x90>
   2c79c:	583ff726 	beq	r11,zero,2c77c <__gedf2+0x54>
   2c7a0:	5805883a 	mov	r2,r11
   2c7a4:	f800283a 	ret
   2c7a8:	290ab03a 	or	r5,r5,r4
   2c7ac:	2800191e 	bne	r5,zero,2c814 <__gedf2+0xec>
   2c7b0:	1901ffe0 	cmpeqi	r4,r3,2047
   2c7b4:	2000131e 	bne	r4,zero,2c804 <__gedf2+0xdc>
   2c7b8:	00800044 	movi	r2,1
   2c7bc:	583fef1e 	bne	r11,zero,2c77c <__gedf2+0x54>
   2c7c0:	f800283a 	ret
   2c7c4:	403ff41e 	bne	r8,zero,2c798 <__gedf2+0x70>
   2c7c8:	103ffd1e 	bne	r2,zero,2c7c0 <__gedf2+0x98>
   2c7cc:	003feb06 	br	2c77c <__gedf2+0x54>
   2c7d0:	183ff926 	beq	r3,zero,2c7b8 <__gedf2+0x90>
   2c7d4:	58bff81e 	bne	r11,r2,2c7b8 <__gedf2+0x90>
   2c7d8:	1a3ff716 	blt	r3,r8,2c7b8 <__gedf2+0x90>
   2c7dc:	40ffef16 	blt	r8,r3,2c79c <__gedf2+0x74>
   2c7e0:	397ff536 	bltu	r7,r5,2c7b8 <__gedf2+0x90>
   2c7e4:	29ffed1e 	bne	r5,r7,2c79c <__gedf2+0x74>
   2c7e8:	313ff336 	bltu	r6,r4,2c7b8 <__gedf2+0x90>
   2c7ec:	21bfeb36 	bltu	r4,r6,2c79c <__gedf2+0x74>
   2c7f0:	0005883a 	mov	r2,zero
   2c7f4:	f800283a 	ret
   2c7f8:	0005883a 	mov	r2,zero
   2c7fc:	403fee1e 	bne	r8,zero,2c7b8 <__gedf2+0x90>
   2c800:	f800283a 	ret
   2c804:	398eb03a 	or	r7,r7,r6
   2c808:	3800021e 	bne	r7,zero,2c814 <__gedf2+0xec>
   2c80c:	58bff826 	beq	r11,r2,2c7f0 <__gedf2+0xc8>
   2c810:	003fe906 	br	2c7b8 <__gedf2+0x90>
   2c814:	00bfff84 	movi	r2,-2
   2c818:	f800283a 	ret
   2c81c:	58bff026 	beq	r11,r2,2c7e0 <__gedf2+0xb8>
   2c820:	003fe506 	br	2c7b8 <__gedf2+0x90>

0002c824 <__ledf2>:
   2c824:	2810d53a 	srli	r8,r5,20
   2c828:	3812d53a 	srli	r9,r7,20
   2c82c:	00c00434 	movhi	r3,16
   2c830:	4201ffcc 	andi	r8,r8,2047
   2c834:	18ffffc4 	addi	r3,r3,-1
   2c838:	4281ffd8 	cmpnei	r10,r8,2047
   2c83c:	2816d7fa 	srli	r11,r5,31
   2c840:	3804d7fa 	srli	r2,r7,31
   2c844:	28ca703a 	and	r5,r5,r3
   2c848:	38ce703a 	and	r7,r7,r3
   2c84c:	48c1ffcc 	andi	r3,r9,2047
   2c850:	50001426 	beq	r10,zero,2c8a4 <__ledf2+0x80>
   2c854:	1a41ffd8 	cmpnei	r9,r3,2047
   2c858:	48000926 	beq	r9,zero,2c880 <__ledf2+0x5c>
   2c85c:	4000191e 	bne	r8,zero,2c8c4 <__ledf2+0xa0>
   2c860:	2910b03a 	or	r8,r5,r4
   2c864:	1800221e 	bne	r3,zero,2c8f0 <__ledf2+0xcc>
   2c868:	3986b03a 	or	r3,r7,r6
   2c86c:	18002326 	beq	r3,zero,2c8fc <__ledf2+0xd8>
   2c870:	4000281e 	bne	r8,zero,2c914 <__ledf2+0xf0>
   2c874:	10000a1e 	bne	r2,zero,2c8a0 <__ledf2+0x7c>
   2c878:	00bfffc4 	movi	r2,-1
   2c87c:	f800283a 	ret
   2c880:	398eb03a 	or	r7,r7,r6
   2c884:	38000d1e 	bne	r7,zero,2c8bc <__ledf2+0x98>
   2c888:	4000021e 	bne	r8,zero,2c894 <__ledf2+0x70>
   2c88c:	290ab03a 	or	r5,r5,r4
   2c890:	283ff826 	beq	r5,zero,2c874 <__ledf2+0x50>
   2c894:	58801326 	beq	r11,r2,2c8e4 <__ledf2+0xc0>
   2c898:	00800044 	movi	r2,1
   2c89c:	583ff61e 	bne	r11,zero,2c878 <__ledf2+0x54>
   2c8a0:	f800283a 	ret
   2c8a4:	290ab03a 	or	r5,r5,r4
   2c8a8:	2800041e 	bne	r5,zero,2c8bc <__ledf2+0x98>
   2c8ac:	1901ffe0 	cmpeqi	r4,r3,2047
   2c8b0:	203ff926 	beq	r4,zero,2c898 <__ledf2+0x74>
   2c8b4:	398eb03a 	or	r7,r7,r6
   2c8b8:	38001326 	beq	r7,zero,2c908 <__ledf2+0xe4>
   2c8bc:	00800084 	movi	r2,2
   2c8c0:	f800283a 	ret
   2c8c4:	183ff426 	beq	r3,zero,2c898 <__ledf2+0x74>
   2c8c8:	58bff31e 	bne	r11,r2,2c898 <__ledf2+0x74>
   2c8cc:	1a3ff216 	blt	r3,r8,2c898 <__ledf2+0x74>
   2c8d0:	40c00416 	blt	r8,r3,2c8e4 <__ledf2+0xc0>
   2c8d4:	397ff036 	bltu	r7,r5,2c898 <__ledf2+0x74>
   2c8d8:	29c0021e 	bne	r5,r7,2c8e4 <__ledf2+0xc0>
   2c8dc:	313fee36 	bltu	r6,r4,2c898 <__ledf2+0x74>
   2c8e0:	21800a2e 	bgeu	r4,r6,2c90c <__ledf2+0xe8>
   2c8e4:	583fe426 	beq	r11,zero,2c878 <__ledf2+0x54>
   2c8e8:	5805883a 	mov	r2,r11
   2c8ec:	f800283a 	ret
   2c8f0:	403fe81e 	bne	r8,zero,2c894 <__ledf2+0x70>
   2c8f4:	103fea1e 	bne	r2,zero,2c8a0 <__ledf2+0x7c>
   2c8f8:	003fdf06 	br	2c878 <__ledf2+0x54>
   2c8fc:	0005883a 	mov	r2,zero
   2c900:	403fe726 	beq	r8,zero,2c8a0 <__ledf2+0x7c>
   2c904:	003fe406 	br	2c898 <__ledf2+0x74>
   2c908:	58bfe31e 	bne	r11,r2,2c898 <__ledf2+0x74>
   2c90c:	0005883a 	mov	r2,zero
   2c910:	f800283a 	ret
   2c914:	58bfef26 	beq	r11,r2,2c8d4 <__ledf2+0xb0>
   2c918:	003fdf06 	br	2c898 <__ledf2+0x74>

0002c91c <__muldf3>:
   2c91c:	deffef04 	addi	sp,sp,-68
   2c920:	2804d53a 	srli	r2,r5,20
   2c924:	ddc00e15 	stw	r23,56(sp)
   2c928:	282ed7fa 	srli	r23,r5,31
   2c92c:	00c00434 	movhi	r3,16
   2c930:	df000f15 	stw	fp,60(sp)
   2c934:	dc400815 	stw	r17,32(sp)
   2c938:	dc000715 	stw	r16,28(sp)
   2c93c:	18ffffc4 	addi	r3,r3,-1
   2c940:	dfc01015 	stw	ra,64(sp)
   2c944:	dd800d15 	stw	r22,52(sp)
   2c948:	dd400c15 	stw	r21,48(sp)
   2c94c:	dd000b15 	stw	r20,44(sp)
   2c950:	dcc00a15 	stw	r19,40(sp)
   2c954:	dc800915 	stw	r18,36(sp)
   2c958:	1081ffcc 	andi	r2,r2,2047
   2c95c:	2021883a 	mov	r16,r4
   2c960:	3039883a 	mov	fp,r6
   2c964:	28e2703a 	and	r17,r5,r3
   2c968:	b811883a 	mov	r8,r23
   2c96c:	10009226 	beq	r2,zero,2cbb8 <__muldf3+0x29c>
   2c970:	10c1ffe0 	cmpeqi	r3,r2,2047
   2c974:	1800a71e 	bne	r3,zero,2cc14 <__muldf3+0x2f8>
   2c978:	882290fa 	slli	r17,r17,3
   2c97c:	2006d77a 	srli	r3,r4,29
   2c980:	202690fa 	slli	r19,r4,3
   2c984:	157f0044 	addi	r21,r2,-1023
   2c988:	1c62b03a 	or	r17,r3,r17
   2c98c:	8c402034 	orhi	r17,r17,128
   2c990:	0029883a 	mov	r20,zero
   2c994:	000d883a 	mov	r6,zero
   2c998:	3804d53a 	srli	r2,r7,20
   2c99c:	04000434 	movhi	r16,16
   2c9a0:	843fffc4 	addi	r16,r16,-1
   2c9a4:	1081ffcc 	andi	r2,r2,2047
   2c9a8:	380ad7fa 	srli	r5,r7,31
   2c9ac:	e025883a 	mov	r18,fp
   2c9b0:	3c20703a 	and	r16,r7,r16
   2c9b4:	10006526 	beq	r2,zero,2cb4c <__muldf3+0x230>
   2c9b8:	10c1ffe0 	cmpeqi	r3,r2,2047
   2c9bc:	1800291e 	bne	r3,zero,2ca64 <__muldf3+0x148>
   2c9c0:	e006d77a 	srli	r3,fp,29
   2c9c4:	802090fa 	slli	r16,r16,3
   2c9c8:	10bf0044 	addi	r2,r2,-1023
   2c9cc:	e02490fa 	slli	r18,fp,3
   2c9d0:	1c20b03a 	or	r16,r3,r16
   2c9d4:	1547883a 	add	r3,r2,r21
   2c9d8:	a08002c8 	cmpgei	r2,r20,11
   2c9dc:	84002034 	orhi	r16,r16,128
   2c9e0:	0009883a 	mov	r4,zero
   2c9e4:	1d400044 	addi	r21,r3,1
   2c9e8:	10002c1e 	bne	r2,zero,2ca9c <__muldf3+0x180>
   2c9ec:	2dd0f03a 	xor	r8,r5,r23
   2c9f0:	a08000c8 	cmpgei	r2,r20,3
   2c9f4:	1000251e 	bne	r2,zero,2ca8c <__muldf3+0x170>
   2c9f8:	a53fffc4 	addi	r20,r20,-1
   2c9fc:	a50000a8 	cmpgeui	r20,r20,2
   2ca00:	a000ce1e 	bne	r20,zero,2cd3c <__muldf3+0x420>
   2ca04:	208000a0 	cmpeqi	r2,r4,2
   2ca08:	1000891e 	bne	r2,zero,2cc30 <__muldf3+0x314>
   2ca0c:	21000060 	cmpeqi	r4,r4,1
   2ca10:	20002b26 	beq	r4,zero,2cac0 <__muldf3+0x1a4>
   2ca14:	0009883a 	mov	r4,zero
   2ca18:	0021883a 	mov	r16,zero
   2ca1c:	0027883a 	mov	r19,zero
   2ca20:	2006953a 	slli	r3,r4,20
   2ca24:	401097fa 	slli	r8,r8,31
   2ca28:	9805883a 	mov	r2,r19
   2ca2c:	1c06b03a 	or	r3,r3,r16
   2ca30:	1a06b03a 	or	r3,r3,r8
   2ca34:	dfc01017 	ldw	ra,64(sp)
   2ca38:	df000f17 	ldw	fp,60(sp)
   2ca3c:	ddc00e17 	ldw	r23,56(sp)
   2ca40:	dd800d17 	ldw	r22,52(sp)
   2ca44:	dd400c17 	ldw	r21,48(sp)
   2ca48:	dd000b17 	ldw	r20,44(sp)
   2ca4c:	dcc00a17 	ldw	r19,40(sp)
   2ca50:	dc800917 	ldw	r18,36(sp)
   2ca54:	dc400817 	ldw	r17,32(sp)
   2ca58:	dc000717 	ldw	r16,28(sp)
   2ca5c:	dec01104 	addi	sp,sp,68
   2ca60:	f800283a 	ret
   2ca64:	8704b03a 	or	r2,r16,fp
   2ca68:	a8c1ffc4 	addi	r3,r21,2047
   2ca6c:	10007a26 	beq	r2,zero,2cc58 <__muldf3+0x33c>
   2ca70:	a50000d4 	ori	r20,r20,3
   2ca74:	a08002c8 	cmpgei	r2,r20,11
   2ca78:	2deef03a 	xor	r23,r5,r23
   2ca7c:	ad420004 	addi	r21,r21,2048
   2ca80:	10019c1e 	bne	r2,zero,2d0f4 <__muldf3+0x7d8>
   2ca84:	b811883a 	mov	r8,r23
   2ca88:	010000c4 	movi	r4,3
   2ca8c:	00800044 	movi	r2,1
   2ca90:	1504983a 	sll	r2,r2,r20
   2ca94:	11c14c0c 	andi	r7,r2,1328
   2ca98:	38002326 	beq	r7,zero,2cb28 <__muldf3+0x20c>
   2ca9c:	308000a0 	cmpeqi	r2,r6,2
   2caa0:	1000631e 	bne	r2,zero,2cc30 <__muldf3+0x314>
   2caa4:	308000e0 	cmpeqi	r2,r6,3
   2caa8:	1001571e 	bne	r2,zero,2d008 <__muldf3+0x6ec>
   2caac:	3009883a 	mov	r4,r6
   2cab0:	21000060 	cmpeqi	r4,r4,1
   2cab4:	8821883a 	mov	r16,r17
   2cab8:	9825883a 	mov	r18,r19
   2cabc:	203fd51e 	bne	r4,zero,2ca14 <__muldf3+0xf8>
   2cac0:	a900ffc4 	addi	r4,r21,1023
   2cac4:	0100800e 	bge	zero,r4,2ccc8 <__muldf3+0x3ac>
   2cac8:	908001cc 	andi	r2,r18,7
   2cacc:	10000726 	beq	r2,zero,2caec <__muldf3+0x1d0>
   2cad0:	908003cc 	andi	r2,r18,15
   2cad4:	10800120 	cmpeqi	r2,r2,4
   2cad8:	1000041e 	bne	r2,zero,2caec <__muldf3+0x1d0>
   2cadc:	90800104 	addi	r2,r18,4
   2cae0:	14a5803a 	cmpltu	r18,r2,r18
   2cae4:	84a1883a 	add	r16,r16,r18
   2cae8:	1025883a 	mov	r18,r2
   2caec:	8080402c 	andhi	r2,r16,256
   2caf0:	10000426 	beq	r2,zero,2cb04 <__muldf3+0x1e8>
   2caf4:	00bfc034 	movhi	r2,65280
   2caf8:	10bfffc4 	addi	r2,r2,-1
   2cafc:	80a0703a 	and	r16,r16,r2
   2cb00:	a9010004 	addi	r4,r21,1024
   2cb04:	2081ffc8 	cmpgei	r2,r4,2047
   2cb08:	1000491e 	bne	r2,zero,2cc30 <__muldf3+0x314>
   2cb0c:	8026977a 	slli	r19,r16,29
   2cb10:	9024d0fa 	srli	r18,r18,3
   2cb14:	8020927a 	slli	r16,r16,9
   2cb18:	2101ffcc 	andi	r4,r4,2047
   2cb1c:	9ca6b03a 	or	r19,r19,r18
   2cb20:	8020d33a 	srli	r16,r16,12
   2cb24:	003fbe06 	br	2ca20 <__muldf3+0x104>
   2cb28:	1180900c 	andi	r6,r2,576
   2cb2c:	3000441e 	bne	r6,zero,2cc40 <__muldf3+0x324>
   2cb30:	1080220c 	andi	r2,r2,136
   2cb34:	10008126 	beq	r2,zero,2cd3c <__muldf3+0x420>
   2cb38:	2811883a 	mov	r8,r5
   2cb3c:	8023883a 	mov	r17,r16
   2cb40:	9027883a 	mov	r19,r18
   2cb44:	200d883a 	mov	r6,r4
   2cb48:	003fd406 	br	2ca9c <__muldf3+0x180>
   2cb4c:	8704b03a 	or	r2,r16,fp
   2cb50:	10005426 	beq	r2,zero,2cca4 <__muldf3+0x388>
   2cb54:	d9400215 	stw	r5,8(sp)
   2cb58:	da000115 	stw	r8,4(sp)
   2cb5c:	d9800015 	stw	r6,0(sp)
   2cb60:	80013926 	beq	r16,zero,2d048 <__muldf3+0x72c>
   2cb64:	8009883a 	mov	r4,r16
   2cb68:	002dcdc0 	call	2dcdc <__clzsi2>
   2cb6c:	d9800017 	ldw	r6,0(sp)
   2cb70:	da000117 	ldw	r8,4(sp)
   2cb74:	d9400217 	ldw	r5,8(sp)
   2cb78:	1007883a 	mov	r3,r2
   2cb7c:	113ffd44 	addi	r4,r2,-11
   2cb80:	00800744 	movi	r2,29
   2cb84:	1cbffe04 	addi	r18,r3,-8
   2cb88:	1105c83a 	sub	r2,r2,r4
   2cb8c:	84a0983a 	sll	r16,r16,r18
   2cb90:	e084d83a 	srl	r2,fp,r2
   2cb94:	e4a4983a 	sll	r18,fp,r18
   2cb98:	1420b03a 	or	r16,r2,r16
   2cb9c:	a8c7c83a 	sub	r3,r21,r3
   2cba0:	18ff0344 	addi	r3,r3,-1011
   2cba4:	a08002c8 	cmpgei	r2,r20,11
   2cba8:	0009883a 	mov	r4,zero
   2cbac:	1d400044 	addi	r21,r3,1
   2cbb0:	103f8e26 	beq	r2,zero,2c9ec <__muldf3+0xd0>
   2cbb4:	003fb906 	br	2ca9c <__muldf3+0x180>
   2cbb8:	2466b03a 	or	r19,r4,r17
   2cbbc:	98003426 	beq	r19,zero,2cc90 <__muldf3+0x374>
   2cbc0:	d9c00115 	stw	r7,4(sp)
   2cbc4:	da000015 	stw	r8,0(sp)
   2cbc8:	88011426 	beq	r17,zero,2d01c <__muldf3+0x700>
   2cbcc:	8809883a 	mov	r4,r17
   2cbd0:	002dcdc0 	call	2dcdc <__clzsi2>
   2cbd4:	da000017 	ldw	r8,0(sp)
   2cbd8:	d9c00117 	ldw	r7,4(sp)
   2cbdc:	1009883a 	mov	r4,r2
   2cbe0:	117ffd44 	addi	r5,r2,-11
   2cbe4:	00c00744 	movi	r3,29
   2cbe8:	24fffe04 	addi	r19,r4,-8
   2cbec:	1947c83a 	sub	r3,r3,r5
   2cbf0:	8ce2983a 	sll	r17,r17,r19
   2cbf4:	80c6d83a 	srl	r3,r16,r3
   2cbf8:	84e6983a 	sll	r19,r16,r19
   2cbfc:	1c62b03a 	or	r17,r3,r17
   2cc00:	00bf0344 	movi	r2,-1011
   2cc04:	112bc83a 	sub	r21,r2,r4
   2cc08:	0029883a 	mov	r20,zero
   2cc0c:	000d883a 	mov	r6,zero
   2cc10:	003f6106 	br	2c998 <__muldf3+0x7c>
   2cc14:	2466b03a 	or	r19,r4,r17
   2cc18:	9800181e 	bne	r19,zero,2cc7c <__muldf3+0x360>
   2cc1c:	0023883a 	mov	r17,zero
   2cc20:	05000204 	movi	r20,8
   2cc24:	0541ffc4 	movi	r21,2047
   2cc28:	01800084 	movi	r6,2
   2cc2c:	003f5a06 	br	2c998 <__muldf3+0x7c>
   2cc30:	0101ffc4 	movi	r4,2047
   2cc34:	0021883a 	mov	r16,zero
   2cc38:	0027883a 	mov	r19,zero
   2cc3c:	003f7806 	br	2ca20 <__muldf3+0x104>
   2cc40:	04000434 	movhi	r16,16
   2cc44:	0011883a 	mov	r8,zero
   2cc48:	843fffc4 	addi	r16,r16,-1
   2cc4c:	04ffffc4 	movi	r19,-1
   2cc50:	0101ffc4 	movi	r4,2047
   2cc54:	003f7206 	br	2ca20 <__muldf3+0x104>
   2cc58:	a5000094 	ori	r20,r20,2
   2cc5c:	a08002c8 	cmpgei	r2,r20,11
   2cc60:	ad420004 	addi	r21,r21,2048
   2cc64:	103f8d1e 	bne	r2,zero,2ca9c <__muldf3+0x180>
   2cc68:	2dd0f03a 	xor	r8,r5,r23
   2cc6c:	0025883a 	mov	r18,zero
   2cc70:	0021883a 	mov	r16,zero
   2cc74:	01000084 	movi	r4,2
   2cc78:	003f5d06 	br	2c9f0 <__muldf3+0xd4>
   2cc7c:	2027883a 	mov	r19,r4
   2cc80:	05000304 	movi	r20,12
   2cc84:	0541ffc4 	movi	r21,2047
   2cc88:	018000c4 	movi	r6,3
   2cc8c:	003f4206 	br	2c998 <__muldf3+0x7c>
   2cc90:	0023883a 	mov	r17,zero
   2cc94:	05000104 	movi	r20,4
   2cc98:	002b883a 	mov	r21,zero
   2cc9c:	01800044 	movi	r6,1
   2cca0:	003f3d06 	br	2c998 <__muldf3+0x7c>
   2cca4:	a5000054 	ori	r20,r20,1
   2cca8:	a807883a 	mov	r3,r21
   2ccac:	a08002c8 	cmpgei	r2,r20,11
   2ccb0:	0021883a 	mov	r16,zero
   2ccb4:	0025883a 	mov	r18,zero
   2ccb8:	01000044 	movi	r4,1
   2ccbc:	1d400044 	addi	r21,r3,1
   2ccc0:	103f4a26 	beq	r2,zero,2c9ec <__muldf3+0xd0>
   2ccc4:	003f7506 	br	2ca9c <__muldf3+0x180>
   2ccc8:	00c00044 	movi	r3,1
   2cccc:	1907c83a 	sub	r3,r3,r4
   2ccd0:	18800e48 	cmpgei	r2,r3,57
   2ccd4:	103f4f1e 	bne	r2,zero,2ca14 <__muldf3+0xf8>
   2ccd8:	18800808 	cmpgei	r2,r3,32
   2ccdc:	1000ea1e 	bne	r2,zero,2d088 <__muldf3+0x76c>
   2cce0:	ad410784 	addi	r21,r21,1054
   2cce4:	90c4d83a 	srl	r2,r18,r3
   2cce8:	8566983a 	sll	r19,r16,r21
   2ccec:	9552983a 	sll	r9,r18,r21
   2ccf0:	80c6d83a 	srl	r3,r16,r3
   2ccf4:	98a6b03a 	or	r19,r19,r2
   2ccf8:	4812c03a 	cmpne	r9,r9,zero
   2ccfc:	9a66b03a 	or	r19,r19,r9
   2cd00:	988001cc 	andi	r2,r19,7
   2cd04:	10000726 	beq	r2,zero,2cd24 <__muldf3+0x408>
   2cd08:	988003cc 	andi	r2,r19,15
   2cd0c:	10800120 	cmpeqi	r2,r2,4
   2cd10:	1000041e 	bne	r2,zero,2cd24 <__muldf3+0x408>
   2cd14:	98800104 	addi	r2,r19,4
   2cd18:	14e7803a 	cmpltu	r19,r2,r19
   2cd1c:	1cc7883a 	add	r3,r3,r19
   2cd20:	1027883a 	mov	r19,r2
   2cd24:	1880202c 	andhi	r2,r3,128
   2cd28:	1000ee26 	beq	r2,zero,2d0e4 <__muldf3+0x7c8>
   2cd2c:	01000044 	movi	r4,1
   2cd30:	0021883a 	mov	r16,zero
   2cd34:	0027883a 	mov	r19,zero
   2cd38:	003f3906 	br	2ca20 <__muldf3+0x104>
   2cd3c:	9828d43a 	srli	r20,r19,16
   2cd40:	973fffcc 	andi	fp,r18,65535
   2cd44:	9cffffcc 	andi	r19,r19,65535
   2cd48:	980b883a 	mov	r5,r19
   2cd4c:	e009883a 	mov	r4,fp
   2cd50:	d8c00215 	stw	r3,8(sp)
   2cd54:	da000115 	stw	r8,4(sp)
   2cd58:	9024d43a 	srli	r18,r18,16
   2cd5c:	002b47c0 	call	2b47c <__mulsi3>
   2cd60:	e00b883a 	mov	r5,fp
   2cd64:	a009883a 	mov	r4,r20
   2cd68:	102d883a 	mov	r22,r2
   2cd6c:	002b47c0 	call	2b47c <__mulsi3>
   2cd70:	900b883a 	mov	r5,r18
   2cd74:	a009883a 	mov	r4,r20
   2cd78:	102f883a 	mov	r23,r2
   2cd7c:	002b47c0 	call	2b47c <__mulsi3>
   2cd80:	980b883a 	mov	r5,r19
   2cd84:	9009883a 	mov	r4,r18
   2cd88:	d8800015 	stw	r2,0(sp)
   2cd8c:	002b47c0 	call	2b47c <__mulsi3>
   2cd90:	b00cd43a 	srli	r6,r22,16
   2cd94:	15c5883a 	add	r2,r2,r23
   2cd98:	da000117 	ldw	r8,4(sp)
   2cd9c:	308d883a 	add	r6,r6,r2
   2cda0:	d8c00217 	ldw	r3,8(sp)
   2cda4:	35c0042e 	bgeu	r6,r23,2cdb8 <__muldf3+0x49c>
   2cda8:	d9000017 	ldw	r4,0(sp)
   2cdac:	00800074 	movhi	r2,1
   2cdb0:	2085883a 	add	r2,r4,r2
   2cdb4:	d8800015 	stw	r2,0(sp)
   2cdb8:	3004943a 	slli	r2,r6,16
   2cdbc:	d8c00615 	stw	r3,24(sp)
   2cdc0:	3006d43a 	srli	r3,r6,16
   2cdc4:	85ffffcc 	andi	r23,r16,65535
   2cdc8:	b5bfffcc 	andi	r22,r22,65535
   2cdcc:	980b883a 	mov	r5,r19
   2cdd0:	b809883a 	mov	r4,r23
   2cdd4:	1585883a 	add	r2,r2,r22
   2cdd8:	da000515 	stw	r8,20(sp)
   2cddc:	d8c00115 	stw	r3,4(sp)
   2cde0:	8020d43a 	srli	r16,r16,16
   2cde4:	d8800215 	stw	r2,8(sp)
   2cde8:	002b47c0 	call	2b47c <__mulsi3>
   2cdec:	a009883a 	mov	r4,r20
   2cdf0:	b80b883a 	mov	r5,r23
   2cdf4:	d8800415 	stw	r2,16(sp)
   2cdf8:	002b47c0 	call	2b47c <__mulsi3>
   2cdfc:	a009883a 	mov	r4,r20
   2ce00:	800b883a 	mov	r5,r16
   2ce04:	1029883a 	mov	r20,r2
   2ce08:	002b47c0 	call	2b47c <__mulsi3>
   2ce0c:	980b883a 	mov	r5,r19
   2ce10:	8009883a 	mov	r4,r16
   2ce14:	d8800315 	stw	r2,12(sp)
   2ce18:	002b47c0 	call	2b47c <__mulsi3>
   2ce1c:	d9800417 	ldw	r6,16(sp)
   2ce20:	1505883a 	add	r2,r2,r20
   2ce24:	d9c00317 	ldw	r7,12(sp)
   2ce28:	3026d43a 	srli	r19,r6,16
   2ce2c:	da000517 	ldw	r8,20(sp)
   2ce30:	d8c00617 	ldw	r3,24(sp)
   2ce34:	98a7883a 	add	r19,r19,r2
   2ce38:	9d00022e 	bgeu	r19,r20,2ce44 <__muldf3+0x528>
   2ce3c:	00800074 	movhi	r2,1
   2ce40:	388f883a 	add	r7,r7,r2
   2ce44:	9828d43a 	srli	r20,r19,16
   2ce48:	9826943a 	slli	r19,r19,16
   2ce4c:	882cd43a 	srli	r22,r17,16
   2ce50:	8c7fffcc 	andi	r17,r17,65535
   2ce54:	31bfffcc 	andi	r6,r6,65535
   2ce58:	e009883a 	mov	r4,fp
   2ce5c:	880b883a 	mov	r5,r17
   2ce60:	99a7883a 	add	r19,r19,r6
   2ce64:	d8c00615 	stw	r3,24(sp)
   2ce68:	da000515 	stw	r8,20(sp)
   2ce6c:	a1e9883a 	add	r20,r20,r7
   2ce70:	002b47c0 	call	2b47c <__mulsi3>
   2ce74:	e00b883a 	mov	r5,fp
   2ce78:	b009883a 	mov	r4,r22
   2ce7c:	d8800415 	stw	r2,16(sp)
   2ce80:	002b47c0 	call	2b47c <__mulsi3>
   2ce84:	b00b883a 	mov	r5,r22
   2ce88:	9009883a 	mov	r4,r18
   2ce8c:	d8800315 	stw	r2,12(sp)
   2ce90:	002b47c0 	call	2b47c <__mulsi3>
   2ce94:	9009883a 	mov	r4,r18
   2ce98:	880b883a 	mov	r5,r17
   2ce9c:	1039883a 	mov	fp,r2
   2cea0:	002b47c0 	call	2b47c <__mulsi3>
   2cea4:	d9c00417 	ldw	r7,16(sp)
   2cea8:	dac00317 	ldw	r11,12(sp)
   2ceac:	da000517 	ldw	r8,20(sp)
   2ceb0:	380cd43a 	srli	r6,r7,16
   2ceb4:	12c9883a 	add	r4,r2,r11
   2ceb8:	d8800117 	ldw	r2,4(sp)
   2cebc:	310d883a 	add	r6,r6,r4
   2cec0:	d8c00617 	ldw	r3,24(sp)
   2cec4:	14d5883a 	add	r10,r2,r19
   2cec8:	32c0022e 	bgeu	r6,r11,2ced4 <__muldf3+0x5b8>
   2cecc:	00800074 	movhi	r2,1
   2ced0:	e0b9883a 	add	fp,fp,r2
   2ced4:	3024d43a 	srli	r18,r6,16
   2ced8:	300c943a 	slli	r6,r6,16
   2cedc:	39ffffcc 	andi	r7,r7,65535
   2cee0:	880b883a 	mov	r5,r17
   2cee4:	b809883a 	mov	r4,r23
   2cee8:	d8c00415 	stw	r3,16(sp)
   2ceec:	da000315 	stw	r8,12(sp)
   2cef0:	da800115 	stw	r10,4(sp)
   2cef4:	9725883a 	add	r18,r18,fp
   2cef8:	31f9883a 	add	fp,r6,r7
   2cefc:	002b47c0 	call	2b47c <__mulsi3>
   2cf00:	b80b883a 	mov	r5,r23
   2cf04:	b009883a 	mov	r4,r22
   2cf08:	102f883a 	mov	r23,r2
   2cf0c:	002b47c0 	call	2b47c <__mulsi3>
   2cf10:	b00b883a 	mov	r5,r22
   2cf14:	8009883a 	mov	r4,r16
   2cf18:	102d883a 	mov	r22,r2
   2cf1c:	002b47c0 	call	2b47c <__mulsi3>
   2cf20:	880b883a 	mov	r5,r17
   2cf24:	8009883a 	mov	r4,r16
   2cf28:	1023883a 	mov	r17,r2
   2cf2c:	002b47c0 	call	2b47c <__mulsi3>
   2cf30:	b80ed43a 	srli	r7,r23,16
   2cf34:	1585883a 	add	r2,r2,r22
   2cf38:	da800117 	ldw	r10,4(sp)
   2cf3c:	388f883a 	add	r7,r7,r2
   2cf40:	da000317 	ldw	r8,12(sp)
   2cf44:	d8c00417 	ldw	r3,16(sp)
   2cf48:	3d80022e 	bgeu	r7,r22,2cf54 <__muldf3+0x638>
   2cf4c:	00800074 	movhi	r2,1
   2cf50:	88a3883a 	add	r17,r17,r2
   2cf54:	3808943a 	slli	r4,r7,16
   2cf58:	d8800017 	ldw	r2,0(sp)
   2cf5c:	bdffffcc 	andi	r23,r23,65535
   2cf60:	25c9883a 	add	r4,r4,r23
   2cf64:	508b883a 	add	r5,r10,r2
   2cf68:	2ce7803a 	cmpltu	r19,r5,r19
   2cf6c:	2509883a 	add	r4,r4,r20
   2cf70:	2f0b883a 	add	r5,r5,fp
   2cf74:	24d7883a 	add	r11,r4,r19
   2cf78:	5c85883a 	add	r2,r11,r18
   2cf7c:	2f0d803a 	cmpltu	r6,r5,fp
   2cf80:	380ed43a 	srli	r7,r7,16
   2cf84:	1195883a 	add	r10,r2,r6
   2cf88:	2521803a 	cmpltu	r16,r4,r20
   2cf8c:	5cd7803a 	cmpltu	r11,r11,r19
   2cf90:	1485803a 	cmpltu	r2,r2,r18
   2cf94:	518d803a 	cmpltu	r6,r10,r6
   2cf98:	82e0b03a 	or	r16,r16,r11
   2cf9c:	1184b03a 	or	r2,r2,r6
   2cfa0:	81e1883a 	add	r16,r16,r7
   2cfa4:	2824927a 	slli	r18,r5,9
   2cfa8:	d9000217 	ldw	r4,8(sp)
   2cfac:	80a1883a 	add	r16,r16,r2
   2cfb0:	8461883a 	add	r16,r16,r17
   2cfb4:	8020927a 	slli	r16,r16,9
   2cfb8:	280ad5fa 	srli	r5,r5,23
   2cfbc:	9124b03a 	or	r18,r18,r4
   2cfc0:	500cd5fa 	srli	r6,r10,23
   2cfc4:	5004927a 	slli	r2,r10,9
   2cfc8:	9024c03a 	cmpne	r18,r18,zero
   2cfcc:	9164b03a 	or	r18,r18,r5
   2cfd0:	8100402c 	andhi	r4,r16,256
   2cfd4:	90a4b03a 	or	r18,r18,r2
   2cfd8:	81a0b03a 	or	r16,r16,r6
   2cfdc:	20002826 	beq	r4,zero,2d080 <__muldf3+0x764>
   2cfe0:	9006d07a 	srli	r3,r18,1
   2cfe4:	800497fa 	slli	r2,r16,31
   2cfe8:	9480004c 	andi	r18,r18,1
   2cfec:	1c86b03a 	or	r3,r3,r18
   2cff0:	8020d07a 	srli	r16,r16,1
   2cff4:	18a4b03a 	or	r18,r3,r2
   2cff8:	003eb106 	br	2cac0 <__muldf3+0x1a4>
   2cffc:	2811883a 	mov	r8,r5
   2d000:	8023883a 	mov	r17,r16
   2d004:	e027883a 	mov	r19,fp
   2d008:	00800434 	movhi	r2,16
   2d00c:	8c000234 	orhi	r16,r17,8
   2d010:	10bfffc4 	addi	r2,r2,-1
   2d014:	80a0703a 	and	r16,r16,r2
   2d018:	003f0d06 	br	2cc50 <__muldf3+0x334>
   2d01c:	002dcdc0 	call	2dcdc <__clzsi2>
   2d020:	11400544 	addi	r5,r2,21
   2d024:	28c00748 	cmpgei	r3,r5,29
   2d028:	da000017 	ldw	r8,0(sp)
   2d02c:	d9c00117 	ldw	r7,4(sp)
   2d030:	11000804 	addi	r4,r2,32
   2d034:	183eeb26 	beq	r3,zero,2cbe4 <__muldf3+0x2c8>
   2d038:	10bffe04 	addi	r2,r2,-8
   2d03c:	80a2983a 	sll	r17,r16,r2
   2d040:	0027883a 	mov	r19,zero
   2d044:	003eee06 	br	2cc00 <__muldf3+0x2e4>
   2d048:	e009883a 	mov	r4,fp
   2d04c:	002dcdc0 	call	2dcdc <__clzsi2>
   2d050:	11000544 	addi	r4,r2,21
   2d054:	21c00748 	cmpgei	r7,r4,29
   2d058:	d9800017 	ldw	r6,0(sp)
   2d05c:	da000117 	ldw	r8,4(sp)
   2d060:	d9400217 	ldw	r5,8(sp)
   2d064:	10c00804 	addi	r3,r2,32
   2d068:	383ec526 	beq	r7,zero,2cb80 <__muldf3+0x264>
   2d06c:	10bffe04 	addi	r2,r2,-8
   2d070:	e084983a 	sll	r2,fp,r2
   2d074:	0025883a 	mov	r18,zero
   2d078:	1021883a 	mov	r16,r2
   2d07c:	003ec706 	br	2cb9c <__muldf3+0x280>
   2d080:	182b883a 	mov	r21,r3
   2d084:	003e8e06 	br	2cac0 <__muldf3+0x1a4>
   2d088:	00bff844 	movi	r2,-31
   2d08c:	1109c83a 	sub	r4,r2,r4
   2d090:	18c00820 	cmpeqi	r3,r3,32
   2d094:	8108d83a 	srl	r4,r16,r4
   2d098:	1800031e 	bne	r3,zero,2d0a8 <__muldf3+0x78c>
   2d09c:	aa410f84 	addi	r9,r21,1086
   2d0a0:	8252983a 	sll	r9,r16,r9
   2d0a4:	9264b03a 	or	r18,r18,r9
   2d0a8:	9026c03a 	cmpne	r19,r18,zero
   2d0ac:	9926b03a 	or	r19,r19,r4
   2d0b0:	98c001cc 	andi	r3,r19,7
   2d0b4:	1800051e 	bne	r3,zero,2d0cc <__muldf3+0x7b0>
   2d0b8:	0021883a 	mov	r16,zero
   2d0bc:	9826d0fa 	srli	r19,r19,3
   2d0c0:	0009883a 	mov	r4,zero
   2d0c4:	98e6b03a 	or	r19,r19,r3
   2d0c8:	003e5506 	br	2ca20 <__muldf3+0x104>
   2d0cc:	988003cc 	andi	r2,r19,15
   2d0d0:	10800120 	cmpeqi	r2,r2,4
   2d0d4:	1000111e 	bne	r2,zero,2d11c <__muldf3+0x800>
   2d0d8:	98800104 	addi	r2,r19,4
   2d0dc:	14c7803a 	cmpltu	r3,r2,r19
   2d0e0:	1027883a 	mov	r19,r2
   2d0e4:	1820927a 	slli	r16,r3,9
   2d0e8:	1806977a 	slli	r3,r3,29
   2d0ec:	8020d33a 	srli	r16,r16,12
   2d0f0:	003ff206 	br	2d0bc <__muldf3+0x7a0>
   2d0f4:	a50003e0 	cmpeqi	r20,r20,15
   2d0f8:	a03fc026 	beq	r20,zero,2cffc <__muldf3+0x6e0>
   2d0fc:	8880022c 	andhi	r2,r17,8
   2d100:	103fc126 	beq	r2,zero,2d008 <__muldf3+0x6ec>
   2d104:	39c0022c 	andhi	r7,r7,8
   2d108:	383fbf1e 	bne	r7,zero,2d008 <__muldf3+0x6ec>
   2d10c:	84000234 	orhi	r16,r16,8
   2d110:	2811883a 	mov	r8,r5
   2d114:	e027883a 	mov	r19,fp
   2d118:	003ecd06 	br	2cc50 <__muldf3+0x334>
   2d11c:	0007883a 	mov	r3,zero
   2d120:	003ff006 	br	2d0e4 <__muldf3+0x7c8>

0002d124 <__subdf3>:
   2d124:	00800434 	movhi	r2,16
   2d128:	3806d53a 	srli	r3,r7,20
   2d12c:	10bfffc4 	addi	r2,r2,-1
   2d130:	defffa04 	addi	sp,sp,-24
   2d134:	2890703a 	and	r8,r5,r2
   2d138:	3884703a 	and	r2,r7,r2
   2d13c:	2812d7fa 	srli	r9,r5,31
   2d140:	401090fa 	slli	r8,r8,3
   2d144:	280ad53a 	srli	r5,r5,20
   2d148:	100490fa 	slli	r2,r2,3
   2d14c:	3016d77a 	srli	r11,r6,29
   2d150:	dc400115 	stw	r17,4(sp)
   2d154:	2022d77a 	srli	r17,r4,29
   2d158:	18c1ffcc 	andi	r3,r3,2047
   2d15c:	dd000415 	stw	r20,16(sp)
   2d160:	dcc00315 	stw	r19,12(sp)
   2d164:	dc000015 	stw	r16,0(sp)
   2d168:	dfc00515 	stw	ra,20(sp)
   2d16c:	dc800215 	stw	r18,8(sp)
   2d170:	1a81ffd8 	cmpnei	r10,r3,2047
   2d174:	2c01ffcc 	andi	r16,r5,2047
   2d178:	380ed7fa 	srli	r7,r7,31
   2d17c:	201890fa 	slli	r12,r4,3
   2d180:	301a90fa 	slli	r13,r6,3
   2d184:	4829883a 	mov	r20,r9
   2d188:	4cc03fcc 	andi	r19,r9,255
   2d18c:	8a22b03a 	or	r17,r17,r8
   2d190:	588ab03a 	or	r5,r11,r2
   2d194:	50007126 	beq	r10,zero,2d35c <__subdf3+0x238>
   2d198:	39c0005c 	xori	r7,r7,1
   2d19c:	3813883a 	mov	r9,r7
   2d1a0:	3a803fcc 	andi	r10,r7,255
   2d1a4:	80d1c83a 	sub	r8,r16,r3
   2d1a8:	99c05526 	beq	r19,r7,2d300 <__subdf3+0x1dc>
   2d1ac:	0202320e 	bge	zero,r8,2da78 <__subdf3+0x954>
   2d1b0:	18008426 	beq	r3,zero,2d3c4 <__subdf3+0x2a0>
   2d1b4:	8081ffe0 	cmpeqi	r2,r16,2047
   2d1b8:	10011b1e 	bne	r2,zero,2d628 <__subdf3+0x504>
   2d1bc:	40800e48 	cmpgei	r2,r8,57
   2d1c0:	1000881e 	bne	r2,zero,2d3e4 <__subdf3+0x2c0>
   2d1c4:	29402034 	orhi	r5,r5,128
   2d1c8:	40800808 	cmpgei	r2,r8,32
   2d1cc:	1001451e 	bne	r2,zero,2d6e4 <__subdf3+0x5c0>
   2d1d0:	00800804 	movi	r2,32
   2d1d4:	1205c83a 	sub	r2,r2,r8
   2d1d8:	28a4983a 	sll	r18,r5,r2
   2d1dc:	6a06d83a 	srl	r3,r13,r8
   2d1e0:	6884983a 	sll	r2,r13,r2
   2d1e4:	2a10d83a 	srl	r8,r5,r8
   2d1e8:	90e4b03a 	or	r18,r18,r3
   2d1ec:	1004c03a 	cmpne	r2,r2,zero
   2d1f0:	90a4b03a 	or	r18,r18,r2
   2d1f4:	8a23c83a 	sub	r17,r17,r8
   2d1f8:	64a5c83a 	sub	r18,r12,r18
   2d1fc:	6485803a 	cmpltu	r2,r12,r18
   2d200:	88a3c83a 	sub	r17,r17,r2
   2d204:	8880202c 	andhi	r2,r17,128
   2d208:	1000ae26 	beq	r2,zero,2d4c4 <__subdf3+0x3a0>
   2d20c:	00802034 	movhi	r2,128
   2d210:	10bfffc4 	addi	r2,r2,-1
   2d214:	88a2703a 	and	r17,r17,r2
   2d218:	8800de26 	beq	r17,zero,2d594 <__subdf3+0x470>
   2d21c:	8809883a 	mov	r4,r17
   2d220:	002dcdc0 	call	2dcdc <__clzsi2>
   2d224:	10fffe04 	addi	r3,r2,-8
   2d228:	01000804 	movi	r4,32
   2d22c:	20c5c83a 	sub	r2,r4,r3
   2d230:	9084d83a 	srl	r2,r18,r2
   2d234:	88e2983a 	sll	r17,r17,r3
   2d238:	90e4983a 	sll	r18,r18,r3
   2d23c:	1444b03a 	or	r2,r2,r17
   2d240:	1c010516 	blt	r3,r16,2d658 <__subdf3+0x534>
   2d244:	1c07c83a 	sub	r3,r3,r16
   2d248:	18c00044 	addi	r3,r3,1
   2d24c:	20c9c83a 	sub	r4,r4,r3
   2d250:	910a983a 	sll	r5,r18,r4
   2d254:	90e2d83a 	srl	r17,r18,r3
   2d258:	280ac03a 	cmpne	r5,r5,zero
   2d25c:	1108983a 	sll	r4,r2,r4
   2d260:	894ab03a 	or	r5,r17,r5
   2d264:	10e2d83a 	srl	r17,r2,r3
   2d268:	0021883a 	mov	r16,zero
   2d26c:	2164b03a 	or	r18,r4,r5
   2d270:	908001cc 	andi	r2,r18,7
   2d274:	10000726 	beq	r2,zero,2d294 <__subdf3+0x170>
   2d278:	908003cc 	andi	r2,r18,15
   2d27c:	10800120 	cmpeqi	r2,r2,4
   2d280:	1000041e 	bne	r2,zero,2d294 <__subdf3+0x170>
   2d284:	90800104 	addi	r2,r18,4
   2d288:	14a5803a 	cmpltu	r18,r2,r18
   2d28c:	8ca3883a 	add	r17,r17,r18
   2d290:	1025883a 	mov	r18,r2
   2d294:	8880202c 	andhi	r2,r17,128
   2d298:	1000d726 	beq	r2,zero,2d5f8 <__subdf3+0x4d4>
   2d29c:	8081ffa0 	cmpeqi	r2,r16,2046
   2d2a0:	84000044 	addi	r16,r16,1
   2d2a4:	10007c1e 	bne	r2,zero,2d498 <__subdf3+0x374>
   2d2a8:	013fe034 	movhi	r4,65408
   2d2ac:	213fffc4 	addi	r4,r4,-1
   2d2b0:	8908703a 	and	r4,r17,r4
   2d2b4:	2004977a 	slli	r2,r4,29
   2d2b8:	2008927a 	slli	r4,r4,9
   2d2bc:	9024d0fa 	srli	r18,r18,3
   2d2c0:	80c1ffcc 	andi	r3,r16,2047
   2d2c4:	2008d33a 	srli	r4,r4,12
   2d2c8:	1484b03a 	or	r2,r2,r18
   2d2cc:	9d00004c 	andi	r20,r19,1
   2d2d0:	1806953a 	slli	r3,r3,20
   2d2d4:	a02897fa 	slli	r20,r20,31
   2d2d8:	1906b03a 	or	r3,r3,r4
   2d2dc:	1d06b03a 	or	r3,r3,r20
   2d2e0:	dfc00517 	ldw	ra,20(sp)
   2d2e4:	dd000417 	ldw	r20,16(sp)
   2d2e8:	dcc00317 	ldw	r19,12(sp)
   2d2ec:	dc800217 	ldw	r18,8(sp)
   2d2f0:	dc400117 	ldw	r17,4(sp)
   2d2f4:	dc000017 	ldw	r16,0(sp)
   2d2f8:	dec00604 	addi	sp,sp,24
   2d2fc:	f800283a 	ret
   2d300:	0201e60e 	bge	zero,r8,2da9c <__subdf3+0x978>
   2d304:	18004d1e 	bne	r3,zero,2d43c <__subdf3+0x318>
   2d308:	2b44b03a 	or	r2,r5,r13
   2d30c:	1000d026 	beq	r2,zero,2d650 <__subdf3+0x52c>
   2d310:	823fffc4 	addi	r8,r16,-1
   2d314:	40006426 	beq	r8,zero,2d4a8 <__subdf3+0x384>
   2d318:	8081ffe0 	cmpeqi	r2,r16,2047
   2d31c:	10018e1e 	bne	r2,zero,2d958 <__subdf3+0x834>
   2d320:	40800e48 	cmpgei	r2,r8,57
   2d324:	1000491e 	bne	r2,zero,2d44c <__subdf3+0x328>
   2d328:	40800808 	cmpgei	r2,r8,32
   2d32c:	1001431e 	bne	r2,zero,2d83c <__subdf3+0x718>
   2d330:	00800804 	movi	r2,32
   2d334:	1205c83a 	sub	r2,r2,r8
   2d338:	28a4983a 	sll	r18,r5,r2
   2d33c:	6a06d83a 	srl	r3,r13,r8
   2d340:	6884983a 	sll	r2,r13,r2
   2d344:	2a10d83a 	srl	r8,r5,r8
   2d348:	90e4b03a 	or	r18,r18,r3
   2d34c:	1004c03a 	cmpne	r2,r2,zero
   2d350:	90a4b03a 	or	r18,r18,r2
   2d354:	8a23883a 	add	r17,r17,r8
   2d358:	00003d06 	br	2d450 <__subdf3+0x32c>
   2d35c:	2b44b03a 	or	r2,r5,r13
   2d360:	823e0044 	addi	r8,r16,-2047
   2d364:	1000211e 	bne	r2,zero,2d3ec <__subdf3+0x2c8>
   2d368:	39c0005c 	xori	r7,r7,1
   2d36c:	3813883a 	mov	r9,r7
   2d370:	3a803fcc 	andi	r10,r7,255
   2d374:	99c06b26 	beq	r19,r7,2d524 <__subdf3+0x400>
   2d378:	40005526 	beq	r8,zero,2d4d0 <__subdf3+0x3ac>
   2d37c:	8000201e 	bne	r16,zero,2d400 <__subdf3+0x2dc>
   2d380:	0401ffc4 	movi	r16,2047
   2d384:	8b04b03a 	or	r2,r17,r12
   2d388:	1000ae26 	beq	r2,zero,2d644 <__subdf3+0x520>
   2d38c:	80bfffc4 	addi	r2,r16,-1
   2d390:	10015e26 	beq	r2,zero,2d90c <__subdf3+0x7e8>
   2d394:	8401ffe0 	cmpeqi	r16,r16,2047
   2d398:	8001801e 	bne	r16,zero,2d99c <__subdf3+0x878>
   2d39c:	11000e48 	cmpgei	r4,r2,57
   2d3a0:	5027883a 	mov	r19,r10
   2d3a4:	4829883a 	mov	r20,r9
   2d3a8:	20011326 	beq	r4,zero,2d7f8 <__subdf3+0x6d4>
   2d3ac:	04800044 	movi	r18,1
   2d3b0:	6ca5c83a 	sub	r18,r13,r18
   2d3b4:	6c9b803a 	cmpltu	r13,r13,r18
   2d3b8:	2b63c83a 	sub	r17,r5,r13
   2d3bc:	1821883a 	mov	r16,r3
   2d3c0:	003f9006 	br	2d204 <__subdf3+0xe0>
   2d3c4:	2b44b03a 	or	r2,r5,r13
   2d3c8:	1000a126 	beq	r2,zero,2d650 <__subdf3+0x52c>
   2d3cc:	823fffc4 	addi	r8,r16,-1
   2d3d0:	4000fe26 	beq	r8,zero,2d7cc <__subdf3+0x6a8>
   2d3d4:	8081ffe0 	cmpeqi	r2,r16,2047
   2d3d8:	1000931e 	bne	r2,zero,2d628 <__subdf3+0x504>
   2d3dc:	40800e48 	cmpgei	r2,r8,57
   2d3e0:	103f7926 	beq	r2,zero,2d1c8 <__subdf3+0xa4>
   2d3e4:	04800044 	movi	r18,1
   2d3e8:	003f8306 	br	2d1f8 <__subdf3+0xd4>
   2d3ec:	3a803fcc 	andi	r10,r7,255
   2d3f0:	99c04c26 	beq	r19,r7,2d524 <__subdf3+0x400>
   2d3f4:	40003626 	beq	r8,zero,2d4d0 <__subdf3+0x3ac>
   2d3f8:	3813883a 	mov	r9,r7
   2d3fc:	803fe026 	beq	r16,zero,2d380 <__subdf3+0x25c>
   2d400:	2804977a 	slli	r2,r5,29
   2d404:	00c80034 	movhi	r3,8192
   2d408:	18ffffc4 	addi	r3,r3,-1
   2d40c:	280ad0fa 	srli	r5,r5,3
   2d410:	30c6703a 	and	r3,r6,r3
   2d414:	10c4b03a 	or	r2,r2,r3
   2d418:	4829883a 	mov	r20,r9
   2d41c:	1146b03a 	or	r3,r2,r5
   2d420:	18019126 	beq	r3,zero,2da68 <__subdf3+0x944>
   2d424:	00c00434 	movhi	r3,16
   2d428:	18ffffc4 	addi	r3,r3,-1
   2d42c:	29000234 	orhi	r4,r5,8
   2d430:	20c8703a 	and	r4,r4,r3
   2d434:	00c1ffc4 	movi	r3,2047
   2d438:	003fa506 	br	2d2d0 <__subdf3+0x1ac>
   2d43c:	8081ffe0 	cmpeqi	r2,r16,2047
   2d440:	1000791e 	bne	r2,zero,2d628 <__subdf3+0x504>
   2d444:	40800e48 	cmpgei	r2,r8,57
   2d448:	1000b126 	beq	r2,zero,2d710 <__subdf3+0x5ec>
   2d44c:	04800044 	movi	r18,1
   2d450:	9325883a 	add	r18,r18,r12
   2d454:	9305803a 	cmpltu	r2,r18,r12
   2d458:	88a3883a 	add	r17,r17,r2
   2d45c:	8880202c 	andhi	r2,r17,128
   2d460:	10001826 	beq	r2,zero,2d4c4 <__subdf3+0x3a0>
   2d464:	84000044 	addi	r16,r16,1
   2d468:	8081ffe0 	cmpeqi	r2,r16,2047
   2d46c:	10000a1e 	bne	r2,zero,2d498 <__subdf3+0x374>
   2d470:	00bfe034 	movhi	r2,65408
   2d474:	10bfffc4 	addi	r2,r2,-1
   2d478:	9006d07a 	srli	r3,r18,1
   2d47c:	8884703a 	and	r2,r17,r2
   2d480:	100897fa 	slli	r4,r2,31
   2d484:	9480004c 	andi	r18,r18,1
   2d488:	1c86b03a 	or	r3,r3,r18
   2d48c:	1022d07a 	srli	r17,r2,1
   2d490:	20e4b03a 	or	r18,r4,r3
   2d494:	003f7606 	br	2d270 <__subdf3+0x14c>
   2d498:	00c1ffc4 	movi	r3,2047
   2d49c:	0009883a 	mov	r4,zero
   2d4a0:	0005883a 	mov	r2,zero
   2d4a4:	003f8a06 	br	2d2d0 <__subdf3+0x1ac>
   2d4a8:	6365883a 	add	r18,r12,r13
   2d4ac:	894b883a 	add	r5,r17,r5
   2d4b0:	9305803a 	cmpltu	r2,r18,r12
   2d4b4:	28a3883a 	add	r17,r5,r2
   2d4b8:	8880202c 	andhi	r2,r17,128
   2d4bc:	1001241e 	bne	r2,zero,2d950 <__subdf3+0x82c>
   2d4c0:	04000044 	movi	r16,1
   2d4c4:	908001cc 	andi	r2,r18,7
   2d4c8:	103f6b1e 	bne	r2,zero,2d278 <__subdf3+0x154>
   2d4cc:	00007906 	br	2d6b4 <__subdf3+0x590>
   2d4d0:	80800044 	addi	r2,r16,1
   2d4d4:	1081ff8c 	andi	r2,r2,2046
   2d4d8:	1000781e 	bne	r2,zero,2d6bc <__subdf3+0x598>
   2d4dc:	2b44b03a 	or	r2,r5,r13
   2d4e0:	8b06b03a 	or	r3,r17,r12
   2d4e4:	8000af1e 	bne	r16,zero,2d7a4 <__subdf3+0x680>
   2d4e8:	18011026 	beq	r3,zero,2d92c <__subdf3+0x808>
   2d4ec:	1000de26 	beq	r2,zero,2d868 <__subdf3+0x744>
   2d4f0:	6365c83a 	sub	r18,r12,r13
   2d4f4:	6485803a 	cmpltu	r2,r12,r18
   2d4f8:	8947c83a 	sub	r3,r17,r5
   2d4fc:	1887c83a 	sub	r3,r3,r2
   2d500:	1880202c 	andhi	r2,r3,128
   2d504:	10014426 	beq	r2,zero,2da18 <__subdf3+0x8f4>
   2d508:	6b25c83a 	sub	r18,r13,r12
   2d50c:	2c4bc83a 	sub	r5,r5,r17
   2d510:	6c9b803a 	cmpltu	r13,r13,r18
   2d514:	2b63c83a 	sub	r17,r5,r13
   2d518:	5029883a 	mov	r20,r10
   2d51c:	5027883a 	mov	r19,r10
   2d520:	003f5306 	br	2d270 <__subdf3+0x14c>
   2d524:	40005126 	beq	r8,zero,2d66c <__subdf3+0x548>
   2d528:	80007b1e 	bne	r16,zero,2d718 <__subdf3+0x5f4>
   2d52c:	0401ffc4 	movi	r16,2047
   2d530:	8b04b03a 	or	r2,r17,r12
   2d534:	10010f26 	beq	r2,zero,2d974 <__subdf3+0x850>
   2d538:	80bfffc4 	addi	r2,r16,-1
   2d53c:	10012a26 	beq	r2,zero,2d9e8 <__subdf3+0x8c4>
   2d540:	8401ffe0 	cmpeqi	r16,r16,2047
   2d544:	80013d1e 	bne	r16,zero,2da3c <__subdf3+0x918>
   2d548:	11000e48 	cmpgei	r4,r2,57
   2d54c:	2000cd1e 	bne	r4,zero,2d884 <__subdf3+0x760>
   2d550:	11000808 	cmpgei	r4,r2,32
   2d554:	2001191e 	bne	r4,zero,2d9bc <__subdf3+0x898>
   2d558:	01000804 	movi	r4,32
   2d55c:	2089c83a 	sub	r4,r4,r2
   2d560:	8924983a 	sll	r18,r17,r4
   2d564:	608cd83a 	srl	r6,r12,r2
   2d568:	6108983a 	sll	r4,r12,r4
   2d56c:	8884d83a 	srl	r2,r17,r2
   2d570:	91a4b03a 	or	r18,r18,r6
   2d574:	2008c03a 	cmpne	r4,r4,zero
   2d578:	9124b03a 	or	r18,r18,r4
   2d57c:	288b883a 	add	r5,r5,r2
   2d580:	9365883a 	add	r18,r18,r13
   2d584:	935b803a 	cmpltu	r13,r18,r13
   2d588:	6963883a 	add	r17,r13,r5
   2d58c:	1821883a 	mov	r16,r3
   2d590:	003fb206 	br	2d45c <__subdf3+0x338>
   2d594:	9009883a 	mov	r4,r18
   2d598:	002dcdc0 	call	2dcdc <__clzsi2>
   2d59c:	10c00604 	addi	r3,r2,24
   2d5a0:	19000808 	cmpgei	r4,r3,32
   2d5a4:	203f2026 	beq	r4,zero,2d228 <__subdf3+0x104>
   2d5a8:	10bffe04 	addi	r2,r2,-8
   2d5ac:	9084983a 	sll	r2,r18,r2
   2d5b0:	1c006016 	blt	r3,r16,2d734 <__subdf3+0x610>
   2d5b4:	1c25c83a 	sub	r18,r3,r16
   2d5b8:	90c00044 	addi	r3,r18,1
   2d5bc:	19000808 	cmpgei	r4,r3,32
   2d5c0:	20012526 	beq	r4,zero,2da58 <__subdf3+0x934>
   2d5c4:	94bff844 	addi	r18,r18,-31
   2d5c8:	19000820 	cmpeqi	r4,r3,32
   2d5cc:	14a4d83a 	srl	r18,r2,r18
   2d5d0:	2000051e 	bne	r4,zero,2d5e8 <__subdf3+0x4c4>
   2d5d4:	01001004 	movi	r4,64
   2d5d8:	20c7c83a 	sub	r3,r4,r3
   2d5dc:	10c4983a 	sll	r2,r2,r3
   2d5e0:	1004c03a 	cmpne	r2,r2,zero
   2d5e4:	90a4b03a 	or	r18,r18,r2
   2d5e8:	908001cc 	andi	r2,r18,7
   2d5ec:	0021883a 	mov	r16,zero
   2d5f0:	103f211e 	bne	r2,zero,2d278 <__subdf3+0x154>
   2d5f4:	00002f06 	br	2d6b4 <__subdf3+0x590>
   2d5f8:	9004d0fa 	srli	r2,r18,3
   2d5fc:	8808977a 	slli	r4,r17,29
   2d600:	80c1ffe0 	cmpeqi	r3,r16,2047
   2d604:	880ad0fa 	srli	r5,r17,3
   2d608:	2084b03a 	or	r2,r4,r2
   2d60c:	183f831e 	bne	r3,zero,2d41c <__subdf3+0x2f8>
   2d610:	01000434 	movhi	r4,16
   2d614:	213fffc4 	addi	r4,r4,-1
   2d618:	2908703a 	and	r4,r5,r4
   2d61c:	80c1ffcc 	andi	r3,r16,2047
   2d620:	003f2b06 	br	2d2d0 <__subdf3+0x1ac>
   2d624:	1000a71e 	bne	r2,zero,2d8c4 <__subdf3+0x7a0>
   2d628:	8806977a 	slli	r3,r17,29
   2d62c:	00880034 	movhi	r2,8192
   2d630:	10bfffc4 	addi	r2,r2,-1
   2d634:	2084703a 	and	r2,r4,r2
   2d638:	880ad0fa 	srli	r5,r17,3
   2d63c:	10c4b03a 	or	r2,r2,r3
   2d640:	003f7606 	br	2d41c <__subdf3+0x2f8>
   2d644:	6819883a 	mov	r12,r13
   2d648:	2823883a 	mov	r17,r5
   2d64c:	4829883a 	mov	r20,r9
   2d650:	6004d0fa 	srli	r2,r12,3
   2d654:	003fe906 	br	2d5fc <__subdf3+0x4d8>
   2d658:	047fe034 	movhi	r17,65408
   2d65c:	8c7fffc4 	addi	r17,r17,-1
   2d660:	80e1c83a 	sub	r16,r16,r3
   2d664:	1462703a 	and	r17,r2,r17
   2d668:	003f0106 	br	2d270 <__subdf3+0x14c>
   2d66c:	80c00044 	addi	r3,r16,1
   2d670:	1881ff8c 	andi	r2,r3,2046
   2d674:	1000361e 	bne	r2,zero,2d750 <__subdf3+0x62c>
   2d678:	8b04b03a 	or	r2,r17,r12
   2d67c:	80008e1e 	bne	r16,zero,2d8b8 <__subdf3+0x794>
   2d680:	1000bf26 	beq	r2,zero,2d980 <__subdf3+0x85c>
   2d684:	2b44b03a 	or	r2,r5,r13
   2d688:	10007726 	beq	r2,zero,2d868 <__subdf3+0x744>
   2d68c:	6365883a 	add	r18,r12,r13
   2d690:	9305803a 	cmpltu	r2,r18,r12
   2d694:	894b883a 	add	r5,r17,r5
   2d698:	28a3883a 	add	r17,r5,r2
   2d69c:	8880202c 	andhi	r2,r17,128
   2d6a0:	10000426 	beq	r2,zero,2d6b4 <__subdf3+0x590>
   2d6a4:	00bfe034 	movhi	r2,65408
   2d6a8:	10bfffc4 	addi	r2,r2,-1
   2d6ac:	88a2703a 	and	r17,r17,r2
   2d6b0:	04000044 	movi	r16,1
   2d6b4:	9019883a 	mov	r12,r18
   2d6b8:	003fe506 	br	2d650 <__subdf3+0x52c>
   2d6bc:	6365c83a 	sub	r18,r12,r13
   2d6c0:	6485803a 	cmpltu	r2,r12,r18
   2d6c4:	8947c83a 	sub	r3,r17,r5
   2d6c8:	1887c83a 	sub	r3,r3,r2
   2d6cc:	1880202c 	andhi	r2,r3,128
   2d6d0:	10002d1e 	bne	r2,zero,2d788 <__subdf3+0x664>
   2d6d4:	90c4b03a 	or	r2,r18,r3
   2d6d8:	10005426 	beq	r2,zero,2d82c <__subdf3+0x708>
   2d6dc:	1823883a 	mov	r17,r3
   2d6e0:	003ecd06 	br	2d218 <__subdf3+0xf4>
   2d6e4:	40bff804 	addi	r2,r8,-32
   2d6e8:	40c00820 	cmpeqi	r3,r8,32
   2d6ec:	2884d83a 	srl	r2,r5,r2
   2d6f0:	1800041e 	bne	r3,zero,2d704 <__subdf3+0x5e0>
   2d6f4:	00c01004 	movi	r3,64
   2d6f8:	1a07c83a 	sub	r3,r3,r8
   2d6fc:	28c6983a 	sll	r3,r5,r3
   2d700:	68dab03a 	or	r13,r13,r3
   2d704:	6824c03a 	cmpne	r18,r13,zero
   2d708:	90a4b03a 	or	r18,r18,r2
   2d70c:	003eba06 	br	2d1f8 <__subdf3+0xd4>
   2d710:	29402034 	orhi	r5,r5,128
   2d714:	003f0406 	br	2d328 <__subdf3+0x204>
   2d718:	2804977a 	slli	r2,r5,29
   2d71c:	00c80034 	movhi	r3,8192
   2d720:	18ffffc4 	addi	r3,r3,-1
   2d724:	30c6703a 	and	r3,r6,r3
   2d728:	280ad0fa 	srli	r5,r5,3
   2d72c:	10c4b03a 	or	r2,r2,r3
   2d730:	003f3a06 	br	2d41c <__subdf3+0x2f8>
   2d734:	017fe034 	movhi	r5,65408
   2d738:	297fffc4 	addi	r5,r5,-1
   2d73c:	114a703a 	and	r5,r2,r5
   2d740:	2804977a 	slli	r2,r5,29
   2d744:	80e1c83a 	sub	r16,r16,r3
   2d748:	280ad0fa 	srli	r5,r5,3
   2d74c:	003fb006 	br	2d610 <__subdf3+0x4ec>
   2d750:	1881ffe0 	cmpeqi	r2,r3,2047
   2d754:	103f501e 	bne	r2,zero,2d498 <__subdf3+0x374>
   2d758:	6349883a 	add	r4,r12,r13
   2d75c:	894b883a 	add	r5,r17,r5
   2d760:	2305803a 	cmpltu	r2,r4,r12
   2d764:	2885883a 	add	r2,r5,r2
   2d768:	2008d07a 	srli	r4,r4,1
   2d76c:	102497fa 	slli	r18,r2,31
   2d770:	1022d07a 	srli	r17,r2,1
   2d774:	208001cc 	andi	r2,r4,7
   2d778:	9124b03a 	or	r18,r18,r4
   2d77c:	1821883a 	mov	r16,r3
   2d780:	103ebd1e 	bne	r2,zero,2d278 <__subdf3+0x154>
   2d784:	003fcb06 	br	2d6b4 <__subdf3+0x590>
   2d788:	6b25c83a 	sub	r18,r13,r12
   2d78c:	2c4bc83a 	sub	r5,r5,r17
   2d790:	6c9b803a 	cmpltu	r13,r13,r18
   2d794:	2b63c83a 	sub	r17,r5,r13
   2d798:	5029883a 	mov	r20,r10
   2d79c:	5027883a 	mov	r19,r10
   2d7a0:	003e9d06 	br	2d218 <__subdf3+0xf4>
   2d7a4:	183f9f1e 	bne	r3,zero,2d624 <__subdf3+0x500>
   2d7a8:	10009f26 	beq	r2,zero,2da28 <__subdf3+0x904>
   2d7ac:	2804977a 	slli	r2,r5,29
   2d7b0:	00c80034 	movhi	r3,8192
   2d7b4:	18ffffc4 	addi	r3,r3,-1
   2d7b8:	30c6703a 	and	r3,r6,r3
   2d7bc:	280ad0fa 	srli	r5,r5,3
   2d7c0:	5029883a 	mov	r20,r10
   2d7c4:	10c4b03a 	or	r2,r2,r3
   2d7c8:	003f1406 	br	2d41c <__subdf3+0x2f8>
   2d7cc:	6365c83a 	sub	r18,r12,r13
   2d7d0:	894bc83a 	sub	r5,r17,r5
   2d7d4:	6485803a 	cmpltu	r2,r12,r18
   2d7d8:	28a3c83a 	sub	r17,r5,r2
   2d7dc:	04000044 	movi	r16,1
   2d7e0:	003e8806 	br	2d204 <__subdf3+0xe0>
   2d7e4:	11000e48 	cmpgei	r4,r2,57
   2d7e8:	2000a81e 	bne	r4,zero,2da8c <__subdf3+0x968>
   2d7ec:	8c402034 	orhi	r17,r17,128
   2d7f0:	5027883a 	mov	r19,r10
   2d7f4:	3829883a 	mov	r20,r7
   2d7f8:	11000808 	cmpgei	r4,r2,32
   2d7fc:	2000231e 	bne	r4,zero,2d88c <__subdf3+0x768>
   2d800:	01000804 	movi	r4,32
   2d804:	2089c83a 	sub	r4,r4,r2
   2d808:	8924983a 	sll	r18,r17,r4
   2d80c:	608cd83a 	srl	r6,r12,r2
   2d810:	6108983a 	sll	r4,r12,r4
   2d814:	8884d83a 	srl	r2,r17,r2
   2d818:	91a4b03a 	or	r18,r18,r6
   2d81c:	2008c03a 	cmpne	r4,r4,zero
   2d820:	9124b03a 	or	r18,r18,r4
   2d824:	288bc83a 	sub	r5,r5,r2
   2d828:	003ee106 	br	2d3b0 <__subdf3+0x28c>
   2d82c:	0029883a 	mov	r20,zero
   2d830:	0007883a 	mov	r3,zero
   2d834:	0009883a 	mov	r4,zero
   2d838:	003ea506 	br	2d2d0 <__subdf3+0x1ac>
   2d83c:	40bff804 	addi	r2,r8,-32
   2d840:	40c00820 	cmpeqi	r3,r8,32
   2d844:	2884d83a 	srl	r2,r5,r2
   2d848:	1800041e 	bne	r3,zero,2d85c <__subdf3+0x738>
   2d84c:	00c01004 	movi	r3,64
   2d850:	1a07c83a 	sub	r3,r3,r8
   2d854:	28c6983a 	sll	r3,r5,r3
   2d858:	68dab03a 	or	r13,r13,r3
   2d85c:	6824c03a 	cmpne	r18,r13,zero
   2d860:	90a4b03a 	or	r18,r18,r2
   2d864:	003efa06 	br	2d450 <__subdf3+0x32c>
   2d868:	8806977a 	slli	r3,r17,29
   2d86c:	00880034 	movhi	r2,8192
   2d870:	10bfffc4 	addi	r2,r2,-1
   2d874:	2084703a 	and	r2,r4,r2
   2d878:	880ad0fa 	srli	r5,r17,3
   2d87c:	10c4b03a 	or	r2,r2,r3
   2d880:	003f6306 	br	2d610 <__subdf3+0x4ec>
   2d884:	04800044 	movi	r18,1
   2d888:	003f3d06 	br	2d580 <__subdf3+0x45c>
   2d88c:	113ff804 	addi	r4,r2,-32
   2d890:	11800820 	cmpeqi	r6,r2,32
   2d894:	8908d83a 	srl	r4,r17,r4
   2d898:	3000041e 	bne	r6,zero,2d8ac <__subdf3+0x788>
   2d89c:	01801004 	movi	r6,64
   2d8a0:	3085c83a 	sub	r2,r6,r2
   2d8a4:	8884983a 	sll	r2,r17,r2
   2d8a8:	6098b03a 	or	r12,r12,r2
   2d8ac:	6024c03a 	cmpne	r18,r12,zero
   2d8b0:	9124b03a 	or	r18,r18,r4
   2d8b4:	003ebe06 	br	2d3b0 <__subdf3+0x28c>
   2d8b8:	10005026 	beq	r2,zero,2d9fc <__subdf3+0x8d8>
   2d8bc:	2b5ab03a 	or	r13,r5,r13
   2d8c0:	683f5926 	beq	r13,zero,2d628 <__subdf3+0x504>
   2d8c4:	880ed0fa 	srli	r7,r17,3
   2d8c8:	00c80034 	movhi	r3,8192
   2d8cc:	8822977a 	slli	r17,r17,29
   2d8d0:	18ffffc4 	addi	r3,r3,-1
   2d8d4:	20c4703a 	and	r2,r4,r3
   2d8d8:	3900022c 	andhi	r4,r7,8
   2d8dc:	1444b03a 	or	r2,r2,r17
   2d8e0:	20000826 	beq	r4,zero,2d904 <__subdf3+0x7e0>
   2d8e4:	2808d0fa 	srli	r4,r5,3
   2d8e8:	2200022c 	andhi	r8,r4,8
   2d8ec:	4000051e 	bne	r8,zero,2d904 <__subdf3+0x7e0>
   2d8f0:	2804977a 	slli	r2,r5,29
   2d8f4:	30c6703a 	and	r3,r6,r3
   2d8f8:	5029883a 	mov	r20,r10
   2d8fc:	1884b03a 	or	r2,r3,r2
   2d900:	200f883a 	mov	r7,r4
   2d904:	380b883a 	mov	r5,r7
   2d908:	003ec406 	br	2d41c <__subdf3+0x2f8>
   2d90c:	6b25c83a 	sub	r18,r13,r12
   2d910:	2c4bc83a 	sub	r5,r5,r17
   2d914:	6c9b803a 	cmpltu	r13,r13,r18
   2d918:	2b63c83a 	sub	r17,r5,r13
   2d91c:	4829883a 	mov	r20,r9
   2d920:	5027883a 	mov	r19,r10
   2d924:	04000044 	movi	r16,1
   2d928:	003e3606 	br	2d204 <__subdf3+0xe0>
   2d92c:	103fbf26 	beq	r2,zero,2d82c <__subdf3+0x708>
   2d930:	2806977a 	slli	r3,r5,29
   2d934:	00880034 	movhi	r2,8192
   2d938:	10bfffc4 	addi	r2,r2,-1
   2d93c:	3084703a 	and	r2,r6,r2
   2d940:	280ad0fa 	srli	r5,r5,3
   2d944:	5029883a 	mov	r20,r10
   2d948:	10c4b03a 	or	r2,r2,r3
   2d94c:	003f3006 	br	2d610 <__subdf3+0x4ec>
   2d950:	04000084 	movi	r16,2
   2d954:	003ec606 	br	2d470 <__subdf3+0x34c>
   2d958:	8804977a 	slli	r2,r17,29
   2d95c:	00c80034 	movhi	r3,8192
   2d960:	18ffffc4 	addi	r3,r3,-1
   2d964:	20c8703a 	and	r4,r4,r3
   2d968:	880ad0fa 	srli	r5,r17,3
   2d96c:	1104b03a 	or	r2,r2,r4
   2d970:	003eaa06 	br	2d41c <__subdf3+0x2f8>
   2d974:	6819883a 	mov	r12,r13
   2d978:	2823883a 	mov	r17,r5
   2d97c:	003f3406 	br	2d650 <__subdf3+0x52c>
   2d980:	2806977a 	slli	r3,r5,29
   2d984:	00880034 	movhi	r2,8192
   2d988:	10bfffc4 	addi	r2,r2,-1
   2d98c:	3084703a 	and	r2,r6,r2
   2d990:	280ad0fa 	srli	r5,r5,3
   2d994:	10c4b03a 	or	r2,r2,r3
   2d998:	003f1d06 	br	2d610 <__subdf3+0x4ec>
   2d99c:	2806977a 	slli	r3,r5,29
   2d9a0:	00880034 	movhi	r2,8192
   2d9a4:	10bfffc4 	addi	r2,r2,-1
   2d9a8:	3084703a 	and	r2,r6,r2
   2d9ac:	280ad0fa 	srli	r5,r5,3
   2d9b0:	10c4b03a 	or	r2,r2,r3
   2d9b4:	4829883a 	mov	r20,r9
   2d9b8:	003e9806 	br	2d41c <__subdf3+0x2f8>
   2d9bc:	113ff804 	addi	r4,r2,-32
   2d9c0:	11800820 	cmpeqi	r6,r2,32
   2d9c4:	8908d83a 	srl	r4,r17,r4
   2d9c8:	3000041e 	bne	r6,zero,2d9dc <__subdf3+0x8b8>
   2d9cc:	01801004 	movi	r6,64
   2d9d0:	3085c83a 	sub	r2,r6,r2
   2d9d4:	8884983a 	sll	r2,r17,r2
   2d9d8:	6098b03a 	or	r12,r12,r2
   2d9dc:	6024c03a 	cmpne	r18,r12,zero
   2d9e0:	9124b03a 	or	r18,r18,r4
   2d9e4:	003ee606 	br	2d580 <__subdf3+0x45c>
   2d9e8:	6365883a 	add	r18,r12,r13
   2d9ec:	894b883a 	add	r5,r17,r5
   2d9f0:	935b803a 	cmpltu	r13,r18,r13
   2d9f4:	2b63883a 	add	r17,r5,r13
   2d9f8:	003eaf06 	br	2d4b8 <__subdf3+0x394>
   2d9fc:	2804977a 	slli	r2,r5,29
   2da00:	00c80034 	movhi	r3,8192
   2da04:	18ffffc4 	addi	r3,r3,-1
   2da08:	30cc703a 	and	r6,r6,r3
   2da0c:	280ad0fa 	srli	r5,r5,3
   2da10:	3084b03a 	or	r2,r6,r2
   2da14:	003e8106 	br	2d41c <__subdf3+0x2f8>
   2da18:	90c4b03a 	or	r2,r18,r3
   2da1c:	103f8326 	beq	r2,zero,2d82c <__subdf3+0x708>
   2da20:	1823883a 	mov	r17,r3
   2da24:	003f2306 	br	2d6b4 <__subdf3+0x590>
   2da28:	01400434 	movhi	r5,16
   2da2c:	297fffc4 	addi	r5,r5,-1
   2da30:	00bfffc4 	movi	r2,-1
   2da34:	0029883a 	mov	r20,zero
   2da38:	003e7a06 	br	2d424 <__subdf3+0x300>
   2da3c:	2806977a 	slli	r3,r5,29
   2da40:	00880034 	movhi	r2,8192
   2da44:	10bfffc4 	addi	r2,r2,-1
   2da48:	3084703a 	and	r2,r6,r2
   2da4c:	280ad0fa 	srli	r5,r5,3
   2da50:	10c4b03a 	or	r2,r2,r3
   2da54:	003e7106 	br	2d41c <__subdf3+0x2f8>
   2da58:	01000804 	movi	r4,32
   2da5c:	20c9c83a 	sub	r4,r4,r3
   2da60:	000b883a 	mov	r5,zero
   2da64:	003dfd06 	br	2d25c <__subdf3+0x138>
   2da68:	0005883a 	mov	r2,zero
   2da6c:	00c1ffc4 	movi	r3,2047
   2da70:	0009883a 	mov	r4,zero
   2da74:	003e1606 	br	2d2d0 <__subdf3+0x1ac>
   2da78:	403e9526 	beq	r8,zero,2d4d0 <__subdf3+0x3ac>
   2da7c:	1c05c83a 	sub	r2,r3,r16
   2da80:	803f581e 	bne	r16,zero,2d7e4 <__subdf3+0x6c0>
   2da84:	1021883a 	mov	r16,r2
   2da88:	003e3e06 	br	2d384 <__subdf3+0x260>
   2da8c:	5027883a 	mov	r19,r10
   2da90:	3829883a 	mov	r20,r7
   2da94:	04800044 	movi	r18,1
   2da98:	003e4506 	br	2d3b0 <__subdf3+0x28c>
   2da9c:	403ef326 	beq	r8,zero,2d66c <__subdf3+0x548>
   2daa0:	1c05c83a 	sub	r2,r3,r16
   2daa4:	8000021e 	bne	r16,zero,2dab0 <__subdf3+0x98c>
   2daa8:	1021883a 	mov	r16,r2
   2daac:	003ea006 	br	2d530 <__subdf3+0x40c>
   2dab0:	11000e48 	cmpgei	r4,r2,57
   2dab4:	203f731e 	bne	r4,zero,2d884 <__subdf3+0x760>
   2dab8:	8c402034 	orhi	r17,r17,128
   2dabc:	003ea406 	br	2d550 <__subdf3+0x42c>

0002dac0 <__unorddf2>:
   2dac0:	2804d53a 	srli	r2,r5,20
   2dac4:	3806d53a 	srli	r3,r7,20
   2dac8:	02000434 	movhi	r8,16
   2dacc:	1081ffcc 	andi	r2,r2,2047
   2dad0:	423fffc4 	addi	r8,r8,-1
   2dad4:	1081ffd8 	cmpnei	r2,r2,2047
   2dad8:	2a0a703a 	and	r5,r5,r8
   2dadc:	3a0e703a 	and	r7,r7,r8
   2dae0:	18c1ffcc 	andi	r3,r3,2047
   2dae4:	10000426 	beq	r2,zero,2daf8 <__unorddf2+0x38>
   2dae8:	18c1ffd8 	cmpnei	r3,r3,2047
   2daec:	18000626 	beq	r3,zero,2db08 <__unorddf2+0x48>
   2daf0:	0005883a 	mov	r2,zero
   2daf4:	f800283a 	ret
   2daf8:	290ab03a 	or	r5,r5,r4
   2dafc:	283ffa26 	beq	r5,zero,2dae8 <__unorddf2+0x28>
   2db00:	00800044 	movi	r2,1
   2db04:	f800283a 	ret
   2db08:	398eb03a 	or	r7,r7,r6
   2db0c:	3804c03a 	cmpne	r2,r7,zero
   2db10:	f800283a 	ret

0002db14 <__fixdfsi>:
   2db14:	2804d53a 	srli	r2,r5,20
   2db18:	00c00434 	movhi	r3,16
   2db1c:	18ffffc4 	addi	r3,r3,-1
   2db20:	1081ffcc 	andi	r2,r2,2047
   2db24:	1180ffd0 	cmplti	r6,r2,1023
   2db28:	280ed7fa 	srli	r7,r5,31
   2db2c:	28ca703a 	and	r5,r5,r3
   2db30:	3000061e 	bne	r6,zero,2db4c <__fixdfsi+0x38>
   2db34:	10c10790 	cmplti	r3,r2,1054
   2db38:	1800061e 	bne	r3,zero,2db54 <__fixdfsi+0x40>
   2db3c:	00a00034 	movhi	r2,32768
   2db40:	10bfffc4 	addi	r2,r2,-1
   2db44:	3885883a 	add	r2,r7,r2
   2db48:	f800283a 	ret
   2db4c:	0005883a 	mov	r2,zero
   2db50:	f800283a 	ret
   2db54:	00c10cc4 	movi	r3,1075
   2db58:	1887c83a 	sub	r3,r3,r2
   2db5c:	19800808 	cmpgei	r6,r3,32
   2db60:	29400434 	orhi	r5,r5,16
   2db64:	3000071e 	bne	r6,zero,2db84 <__fixdfsi+0x70>
   2db68:	10befb44 	addi	r2,r2,-1043
   2db6c:	2884983a 	sll	r2,r5,r2
   2db70:	20c8d83a 	srl	r4,r4,r3
   2db74:	1104b03a 	or	r2,r2,r4
   2db78:	383ff526 	beq	r7,zero,2db50 <__fixdfsi+0x3c>
   2db7c:	0085c83a 	sub	r2,zero,r2
   2db80:	f800283a 	ret
   2db84:	00c104c4 	movi	r3,1043
   2db88:	1885c83a 	sub	r2,r3,r2
   2db8c:	2884d83a 	srl	r2,r5,r2
   2db90:	003ff906 	br	2db78 <__fixdfsi+0x64>

0002db94 <__floatsidf>:
   2db94:	defffd04 	addi	sp,sp,-12
   2db98:	dfc00215 	stw	ra,8(sp)
   2db9c:	dc400115 	stw	r17,4(sp)
   2dba0:	dc000015 	stw	r16,0(sp)
   2dba4:	20001326 	beq	r4,zero,2dbf4 <__floatsidf+0x60>
   2dba8:	2022d7fa 	srli	r17,r4,31
   2dbac:	2021883a 	mov	r16,r4
   2dbb0:	20002416 	blt	r4,zero,2dc44 <__floatsidf+0xb0>
   2dbb4:	8009883a 	mov	r4,r16
   2dbb8:	002dcdc0 	call	2dcdc <__clzsi2>
   2dbbc:	01010784 	movi	r4,1054
   2dbc0:	2089c83a 	sub	r4,r4,r2
   2dbc4:	10c002c8 	cmpgei	r3,r2,11
   2dbc8:	2101ffcc 	andi	r4,r4,2047
   2dbcc:	1800161e 	bne	r3,zero,2dc28 <__floatsidf+0x94>
   2dbd0:	014002c4 	movi	r5,11
   2dbd4:	288bc83a 	sub	r5,r5,r2
   2dbd8:	814ad83a 	srl	r5,r16,r5
   2dbdc:	00c00434 	movhi	r3,16
   2dbe0:	10800544 	addi	r2,r2,21
   2dbe4:	18ffffc4 	addi	r3,r3,-1
   2dbe8:	8084983a 	sll	r2,r16,r2
   2dbec:	28ca703a 	and	r5,r5,r3
   2dbf0:	00000406 	br	2dc04 <__floatsidf+0x70>
   2dbf4:	0023883a 	mov	r17,zero
   2dbf8:	0009883a 	mov	r4,zero
   2dbfc:	000b883a 	mov	r5,zero
   2dc00:	0005883a 	mov	r2,zero
   2dc04:	2008953a 	slli	r4,r4,20
   2dc08:	880697fa 	slli	r3,r17,31
   2dc0c:	2148b03a 	or	r4,r4,r5
   2dc10:	20c6b03a 	or	r3,r4,r3
   2dc14:	dfc00217 	ldw	ra,8(sp)
   2dc18:	dc400117 	ldw	r17,4(sp)
   2dc1c:	dc000017 	ldw	r16,0(sp)
   2dc20:	dec00304 	addi	sp,sp,12
   2dc24:	f800283a 	ret
   2dc28:	10bffd44 	addi	r2,r2,-11
   2dc2c:	808a983a 	sll	r5,r16,r2
   2dc30:	00800434 	movhi	r2,16
   2dc34:	10bfffc4 	addi	r2,r2,-1
   2dc38:	288a703a 	and	r5,r5,r2
   2dc3c:	0005883a 	mov	r2,zero
   2dc40:	003ff006 	br	2dc04 <__floatsidf+0x70>
   2dc44:	0121c83a 	sub	r16,zero,r4
   2dc48:	003fda06 	br	2dbb4 <__floatsidf+0x20>

0002dc4c <__floatunsidf>:
   2dc4c:	defffe04 	addi	sp,sp,-8
   2dc50:	dc000015 	stw	r16,0(sp)
   2dc54:	dfc00115 	stw	ra,4(sp)
   2dc58:	2021883a 	mov	r16,r4
   2dc5c:	20000f26 	beq	r4,zero,2dc9c <__floatunsidf+0x50>
   2dc60:	002dcdc0 	call	2dcdc <__clzsi2>
   2dc64:	00c10784 	movi	r3,1054
   2dc68:	1887c83a 	sub	r3,r3,r2
   2dc6c:	110002c8 	cmpgei	r4,r2,11
   2dc70:	18c1ffcc 	andi	r3,r3,2047
   2dc74:	2000121e 	bne	r4,zero,2dcc0 <__floatunsidf+0x74>
   2dc78:	010002c4 	movi	r4,11
   2dc7c:	2089c83a 	sub	r4,r4,r2
   2dc80:	8108d83a 	srl	r4,r16,r4
   2dc84:	01400434 	movhi	r5,16
   2dc88:	10800544 	addi	r2,r2,21
   2dc8c:	297fffc4 	addi	r5,r5,-1
   2dc90:	80a0983a 	sll	r16,r16,r2
   2dc94:	214a703a 	and	r5,r4,r5
   2dc98:	00000206 	br	2dca4 <__floatunsidf+0x58>
   2dc9c:	0007883a 	mov	r3,zero
   2dca0:	000b883a 	mov	r5,zero
   2dca4:	1806953a 	slli	r3,r3,20
   2dca8:	8005883a 	mov	r2,r16
   2dcac:	1946b03a 	or	r3,r3,r5
   2dcb0:	dfc00117 	ldw	ra,4(sp)
   2dcb4:	dc000017 	ldw	r16,0(sp)
   2dcb8:	dec00204 	addi	sp,sp,8
   2dcbc:	f800283a 	ret
   2dcc0:	117ffd44 	addi	r5,r2,-11
   2dcc4:	814a983a 	sll	r5,r16,r5
   2dcc8:	00800434 	movhi	r2,16
   2dccc:	10bfffc4 	addi	r2,r2,-1
   2dcd0:	288a703a 	and	r5,r5,r2
   2dcd4:	0021883a 	mov	r16,zero
   2dcd8:	003ff206 	br	2dca4 <__floatunsidf+0x58>

0002dcdc <__clzsi2>:
   2dcdc:	00bfffd4 	movui	r2,65535
   2dce0:	11000a36 	bltu	r2,r4,2dd0c <__clzsi2+0x30>
   2dce4:	20c04028 	cmpgeui	r3,r4,256
   2dce8:	180690fa 	slli	r3,r3,3
   2dcec:	00800804 	movi	r2,32
   2dcf0:	10c5c83a 	sub	r2,r2,r3
   2dcf4:	20c8d83a 	srl	r4,r4,r3
   2dcf8:	00c000f4 	movhi	r3,3
   2dcfc:	20c7883a 	add	r3,r4,r3
   2dd00:	18c25803 	ldbu	r3,2400(r3)
   2dd04:	10c5c83a 	sub	r2,r2,r3
   2dd08:	f800283a 	ret
   2dd0c:	00804034 	movhi	r2,256
   2dd10:	2080032e 	bgeu	r4,r2,2dd20 <__clzsi2+0x44>
   2dd14:	00800404 	movi	r2,16
   2dd18:	00c00404 	movi	r3,16
   2dd1c:	003ff506 	br	2dcf4 <__clzsi2+0x18>
   2dd20:	00800204 	movi	r2,8
   2dd24:	00c00604 	movi	r3,24
   2dd28:	003ff206 	br	2dcf4 <__clzsi2+0x18>

0002dd2c <alt_get_errno>:
   2dd2c:	defffe04 	addi	sp,sp,-8
   2dd30:	dfc00115 	stw	ra,4(sp)
   2dd34:	df000015 	stw	fp,0(sp)
   2dd38:	d839883a 	mov	fp,sp
   2dd3c:	d0a00917 	ldw	r2,-32732(gp)
   2dd40:	10000326 	beq	r2,zero,2dd50 <alt_get_errno+0x24>
   2dd44:	d0a00917 	ldw	r2,-32732(gp)
   2dd48:	103ee83a 	callr	r2
   2dd4c:	00000106 	br	2dd54 <alt_get_errno+0x28>
   2dd50:	d0a64804 	addi	r2,gp,-26336
   2dd54:	e037883a 	mov	sp,fp
   2dd58:	dfc00117 	ldw	ra,4(sp)
   2dd5c:	df000017 	ldw	fp,0(sp)
   2dd60:	dec00204 	addi	sp,sp,8
   2dd64:	f800283a 	ret

0002dd68 <close>:
   2dd68:	defffb04 	addi	sp,sp,-20
   2dd6c:	dfc00415 	stw	ra,16(sp)
   2dd70:	df000315 	stw	fp,12(sp)
   2dd74:	df000304 	addi	fp,sp,12
   2dd78:	e13ffd15 	stw	r4,-12(fp)
   2dd7c:	e0bffd17 	ldw	r2,-12(fp)
   2dd80:	10000916 	blt	r2,zero,2dda8 <close+0x40>
   2dd84:	e0fffd17 	ldw	r3,-12(fp)
   2dd88:	1805883a 	mov	r2,r3
   2dd8c:	1085883a 	add	r2,r2,r2
   2dd90:	10c5883a 	add	r2,r2,r3
   2dd94:	100490ba 	slli	r2,r2,2
   2dd98:	00c000f4 	movhi	r3,3
   2dd9c:	18c45404 	addi	r3,r3,4432
   2dda0:	10c5883a 	add	r2,r2,r3
   2dda4:	00000106 	br	2ddac <close+0x44>
   2dda8:	0005883a 	mov	r2,zero
   2ddac:	e0bfff15 	stw	r2,-4(fp)
   2ddb0:	e0bfff17 	ldw	r2,-4(fp)
   2ddb4:	10001926 	beq	r2,zero,2de1c <close+0xb4>
   2ddb8:	e0bfff17 	ldw	r2,-4(fp)
   2ddbc:	10800017 	ldw	r2,0(r2)
   2ddc0:	10800417 	ldw	r2,16(r2)
   2ddc4:	10000626 	beq	r2,zero,2dde0 <close+0x78>
   2ddc8:	e0bfff17 	ldw	r2,-4(fp)
   2ddcc:	10800017 	ldw	r2,0(r2)
   2ddd0:	10800417 	ldw	r2,16(r2)
   2ddd4:	e13fff17 	ldw	r4,-4(fp)
   2ddd8:	103ee83a 	callr	r2
   2dddc:	00000106 	br	2dde4 <close+0x7c>
   2dde0:	0005883a 	mov	r2,zero
   2dde4:	e0bffe15 	stw	r2,-8(fp)
   2dde8:	e13ffd17 	ldw	r4,-12(fp)
   2ddec:	002e8840 	call	2e884 <alt_release_fd>
   2ddf0:	e0bffe17 	ldw	r2,-8(fp)
   2ddf4:	1000070e 	bge	r2,zero,2de14 <close+0xac>
   2ddf8:	002dd2c0 	call	2dd2c <alt_get_errno>
   2ddfc:	1007883a 	mov	r3,r2
   2de00:	e0bffe17 	ldw	r2,-8(fp)
   2de04:	0085c83a 	sub	r2,zero,r2
   2de08:	18800015 	stw	r2,0(r3)
   2de0c:	00bfffc4 	movi	r2,-1
   2de10:	00000706 	br	2de30 <close+0xc8>
   2de14:	0005883a 	mov	r2,zero
   2de18:	00000506 	br	2de30 <close+0xc8>
   2de1c:	002dd2c0 	call	2dd2c <alt_get_errno>
   2de20:	1007883a 	mov	r3,r2
   2de24:	00801444 	movi	r2,81
   2de28:	18800015 	stw	r2,0(r3)
   2de2c:	00bfffc4 	movi	r2,-1
   2de30:	e037883a 	mov	sp,fp
   2de34:	dfc00117 	ldw	ra,4(sp)
   2de38:	df000017 	ldw	fp,0(sp)
   2de3c:	dec00204 	addi	sp,sp,8
   2de40:	f800283a 	ret

0002de44 <alt_dev_null_write>:
   2de44:	defffc04 	addi	sp,sp,-16
   2de48:	df000315 	stw	fp,12(sp)
   2de4c:	df000304 	addi	fp,sp,12
   2de50:	e13fff15 	stw	r4,-4(fp)
   2de54:	e17ffe15 	stw	r5,-8(fp)
   2de58:	e1bffd15 	stw	r6,-12(fp)
   2de5c:	e0bffd17 	ldw	r2,-12(fp)
   2de60:	e037883a 	mov	sp,fp
   2de64:	df000017 	ldw	fp,0(sp)
   2de68:	dec00104 	addi	sp,sp,4
   2de6c:	f800283a 	ret

0002de70 <_exit>:
   2de70:	defffd04 	addi	sp,sp,-12
   2de74:	df000215 	stw	fp,8(sp)
   2de78:	df000204 	addi	fp,sp,8
   2de7c:	e13ffe15 	stw	r4,-8(fp)
   2de80:	0001883a 	nop
   2de84:	e0bffe17 	ldw	r2,-8(fp)
   2de88:	e0bfff15 	stw	r2,-4(fp)
   2de8c:	e0bfff17 	ldw	r2,-4(fp)
   2de90:	10000226 	beq	r2,zero,2de9c <_exit+0x2c>
   2de94:	002af070 	cmpltui	zero,zero,43969
   2de98:	00000106 	br	2dea0 <_exit+0x30>
   2de9c:	002af0b0 	cmpltui	zero,zero,43970
   2dea0:	0001883a 	nop
   2dea4:	0001883a 	nop
   2dea8:	003ffe06 	br	2dea4 <_exit+0x34>

0002deac <alt_get_errno>:
   2deac:	defffe04 	addi	sp,sp,-8
   2deb0:	dfc00115 	stw	ra,4(sp)
   2deb4:	df000015 	stw	fp,0(sp)
   2deb8:	d839883a 	mov	fp,sp
   2debc:	d0a00917 	ldw	r2,-32732(gp)
   2dec0:	10000326 	beq	r2,zero,2ded0 <alt_get_errno+0x24>
   2dec4:	d0a00917 	ldw	r2,-32732(gp)
   2dec8:	103ee83a 	callr	r2
   2decc:	00000106 	br	2ded4 <alt_get_errno+0x28>
   2ded0:	d0a64804 	addi	r2,gp,-26336
   2ded4:	e037883a 	mov	sp,fp
   2ded8:	dfc00117 	ldw	ra,4(sp)
   2dedc:	df000017 	ldw	fp,0(sp)
   2dee0:	dec00204 	addi	sp,sp,8
   2dee4:	f800283a 	ret

0002dee8 <fstat>:
   2dee8:	defffb04 	addi	sp,sp,-20
   2deec:	dfc00415 	stw	ra,16(sp)
   2def0:	df000315 	stw	fp,12(sp)
   2def4:	df000304 	addi	fp,sp,12
   2def8:	e13ffe15 	stw	r4,-8(fp)
   2defc:	e17ffd15 	stw	r5,-12(fp)
   2df00:	e0bffe17 	ldw	r2,-8(fp)
   2df04:	10000916 	blt	r2,zero,2df2c <fstat+0x44>
   2df08:	e0fffe17 	ldw	r3,-8(fp)
   2df0c:	1805883a 	mov	r2,r3
   2df10:	1085883a 	add	r2,r2,r2
   2df14:	10c5883a 	add	r2,r2,r3
   2df18:	100490ba 	slli	r2,r2,2
   2df1c:	00c000f4 	movhi	r3,3
   2df20:	18c45404 	addi	r3,r3,4432
   2df24:	10c5883a 	add	r2,r2,r3
   2df28:	00000106 	br	2df30 <fstat+0x48>
   2df2c:	0005883a 	mov	r2,zero
   2df30:	e0bfff15 	stw	r2,-4(fp)
   2df34:	e0bfff17 	ldw	r2,-4(fp)
   2df38:	10001026 	beq	r2,zero,2df7c <fstat+0x94>
   2df3c:	e0bfff17 	ldw	r2,-4(fp)
   2df40:	10800017 	ldw	r2,0(r2)
   2df44:	10800817 	ldw	r2,32(r2)
   2df48:	10000726 	beq	r2,zero,2df68 <fstat+0x80>
   2df4c:	e0bfff17 	ldw	r2,-4(fp)
   2df50:	10800017 	ldw	r2,0(r2)
   2df54:	10800817 	ldw	r2,32(r2)
   2df58:	e17ffd17 	ldw	r5,-12(fp)
   2df5c:	e13fff17 	ldw	r4,-4(fp)
   2df60:	103ee83a 	callr	r2
   2df64:	00000a06 	br	2df90 <fstat+0xa8>
   2df68:	e0bffd17 	ldw	r2,-12(fp)
   2df6c:	00c80004 	movi	r3,8192
   2df70:	10c00115 	stw	r3,4(r2)
   2df74:	0005883a 	mov	r2,zero
   2df78:	00000506 	br	2df90 <fstat+0xa8>
   2df7c:	002deac0 	call	2deac <alt_get_errno>
   2df80:	1007883a 	mov	r3,r2
   2df84:	00801444 	movi	r2,81
   2df88:	18800015 	stw	r2,0(r3)
   2df8c:	00bfffc4 	movi	r2,-1
   2df90:	e037883a 	mov	sp,fp
   2df94:	dfc00117 	ldw	ra,4(sp)
   2df98:	df000017 	ldw	fp,0(sp)
   2df9c:	dec00204 	addi	sp,sp,8
   2dfa0:	f800283a 	ret

0002dfa4 <getpid>:
   2dfa4:	deffff04 	addi	sp,sp,-4
   2dfa8:	df000015 	stw	fp,0(sp)
   2dfac:	d839883a 	mov	fp,sp
   2dfb0:	0005883a 	mov	r2,zero
   2dfb4:	e037883a 	mov	sp,fp
   2dfb8:	df000017 	ldw	fp,0(sp)
   2dfbc:	dec00104 	addi	sp,sp,4
   2dfc0:	f800283a 	ret

0002dfc4 <alt_ic_isr_register>:
   2dfc4:	defff904 	addi	sp,sp,-28
   2dfc8:	dfc00615 	stw	ra,24(sp)
   2dfcc:	df000515 	stw	fp,20(sp)
   2dfd0:	df000504 	addi	fp,sp,20
   2dfd4:	e13fff15 	stw	r4,-4(fp)
   2dfd8:	e17ffe15 	stw	r5,-8(fp)
   2dfdc:	e1bffd15 	stw	r6,-12(fp)
   2dfe0:	e1fffc15 	stw	r7,-16(fp)
   2dfe4:	e0800217 	ldw	r2,8(fp)
   2dfe8:	d8800015 	stw	r2,0(sp)
   2dfec:	e1fffc17 	ldw	r7,-16(fp)
   2dff0:	e1bffd17 	ldw	r6,-12(fp)
   2dff4:	e17ffe17 	ldw	r5,-8(fp)
   2dff8:	e13fff17 	ldw	r4,-4(fp)
   2dffc:	002e1740 	call	2e174 <alt_iic_isr_register>
   2e000:	e037883a 	mov	sp,fp
   2e004:	dfc00117 	ldw	ra,4(sp)
   2e008:	df000017 	ldw	fp,0(sp)
   2e00c:	dec00204 	addi	sp,sp,8
   2e010:	f800283a 	ret

0002e014 <alt_ic_irq_enable>:
   2e014:	defff904 	addi	sp,sp,-28
   2e018:	df000615 	stw	fp,24(sp)
   2e01c:	df000604 	addi	fp,sp,24
   2e020:	e13ffb15 	stw	r4,-20(fp)
   2e024:	e17ffa15 	stw	r5,-24(fp)
   2e028:	e0bffa17 	ldw	r2,-24(fp)
   2e02c:	e0bfff15 	stw	r2,-4(fp)
   2e030:	0005303a 	rdctl	r2,status
   2e034:	e0bffe15 	stw	r2,-8(fp)
   2e038:	e0fffe17 	ldw	r3,-8(fp)
   2e03c:	00bfff84 	movi	r2,-2
   2e040:	1884703a 	and	r2,r3,r2
   2e044:	1001703a 	wrctl	status,r2
   2e048:	e0bffe17 	ldw	r2,-8(fp)
   2e04c:	e0bffd15 	stw	r2,-12(fp)
   2e050:	00c00044 	movi	r3,1
   2e054:	e0bfff17 	ldw	r2,-4(fp)
   2e058:	1884983a 	sll	r2,r3,r2
   2e05c:	1007883a 	mov	r3,r2
   2e060:	d0a64e17 	ldw	r2,-26312(gp)
   2e064:	1884b03a 	or	r2,r3,r2
   2e068:	d0a64e15 	stw	r2,-26312(gp)
   2e06c:	d0a64e17 	ldw	r2,-26312(gp)
   2e070:	100170fa 	wrctl	ienable,r2
   2e074:	e0bffd17 	ldw	r2,-12(fp)
   2e078:	e0bffc15 	stw	r2,-16(fp)
   2e07c:	e0bffc17 	ldw	r2,-16(fp)
   2e080:	1001703a 	wrctl	status,r2
   2e084:	0001883a 	nop
   2e088:	0005883a 	mov	r2,zero
   2e08c:	e037883a 	mov	sp,fp
   2e090:	df000017 	ldw	fp,0(sp)
   2e094:	dec00104 	addi	sp,sp,4
   2e098:	f800283a 	ret

0002e09c <alt_ic_irq_disable>:
   2e09c:	defff904 	addi	sp,sp,-28
   2e0a0:	df000615 	stw	fp,24(sp)
   2e0a4:	df000604 	addi	fp,sp,24
   2e0a8:	e13ffb15 	stw	r4,-20(fp)
   2e0ac:	e17ffa15 	stw	r5,-24(fp)
   2e0b0:	e0bffa17 	ldw	r2,-24(fp)
   2e0b4:	e0bfff15 	stw	r2,-4(fp)
   2e0b8:	0005303a 	rdctl	r2,status
   2e0bc:	e0bffe15 	stw	r2,-8(fp)
   2e0c0:	e0fffe17 	ldw	r3,-8(fp)
   2e0c4:	00bfff84 	movi	r2,-2
   2e0c8:	1884703a 	and	r2,r3,r2
   2e0cc:	1001703a 	wrctl	status,r2
   2e0d0:	e0bffe17 	ldw	r2,-8(fp)
   2e0d4:	e0bffd15 	stw	r2,-12(fp)
   2e0d8:	00c00044 	movi	r3,1
   2e0dc:	e0bfff17 	ldw	r2,-4(fp)
   2e0e0:	1884983a 	sll	r2,r3,r2
   2e0e4:	0084303a 	nor	r2,zero,r2
   2e0e8:	1007883a 	mov	r3,r2
   2e0ec:	d0a64e17 	ldw	r2,-26312(gp)
   2e0f0:	1884703a 	and	r2,r3,r2
   2e0f4:	d0a64e15 	stw	r2,-26312(gp)
   2e0f8:	d0a64e17 	ldw	r2,-26312(gp)
   2e0fc:	100170fa 	wrctl	ienable,r2
   2e100:	e0bffd17 	ldw	r2,-12(fp)
   2e104:	e0bffc15 	stw	r2,-16(fp)
   2e108:	e0bffc17 	ldw	r2,-16(fp)
   2e10c:	1001703a 	wrctl	status,r2
   2e110:	0001883a 	nop
   2e114:	0005883a 	mov	r2,zero
   2e118:	e037883a 	mov	sp,fp
   2e11c:	df000017 	ldw	fp,0(sp)
   2e120:	dec00104 	addi	sp,sp,4
   2e124:	f800283a 	ret

0002e128 <alt_ic_irq_enabled>:
   2e128:	defffc04 	addi	sp,sp,-16
   2e12c:	df000315 	stw	fp,12(sp)
   2e130:	df000304 	addi	fp,sp,12
   2e134:	e13ffe15 	stw	r4,-8(fp)
   2e138:	e17ffd15 	stw	r5,-12(fp)
   2e13c:	000530fa 	rdctl	r2,ienable
   2e140:	e0bfff15 	stw	r2,-4(fp)
   2e144:	00c00044 	movi	r3,1
   2e148:	e0bffd17 	ldw	r2,-12(fp)
   2e14c:	1884983a 	sll	r2,r3,r2
   2e150:	1007883a 	mov	r3,r2
   2e154:	e0bfff17 	ldw	r2,-4(fp)
   2e158:	1884703a 	and	r2,r3,r2
   2e15c:	1004c03a 	cmpne	r2,r2,zero
   2e160:	10803fcc 	andi	r2,r2,255
   2e164:	e037883a 	mov	sp,fp
   2e168:	df000017 	ldw	fp,0(sp)
   2e16c:	dec00104 	addi	sp,sp,4
   2e170:	f800283a 	ret

0002e174 <alt_iic_isr_register>:
   2e174:	defff504 	addi	sp,sp,-44
   2e178:	dfc00a15 	stw	ra,40(sp)
   2e17c:	df000915 	stw	fp,36(sp)
   2e180:	df000904 	addi	fp,sp,36
   2e184:	e13ffa15 	stw	r4,-24(fp)
   2e188:	e17ff915 	stw	r5,-28(fp)
   2e18c:	e1bff815 	stw	r6,-32(fp)
   2e190:	e1fff715 	stw	r7,-36(fp)
   2e194:	00bffa84 	movi	r2,-22
   2e198:	e0bfff15 	stw	r2,-4(fp)
   2e19c:	e0bff917 	ldw	r2,-28(fp)
   2e1a0:	e0bffe15 	stw	r2,-8(fp)
   2e1a4:	e0bffe17 	ldw	r2,-8(fp)
   2e1a8:	10800808 	cmpgei	r2,r2,32
   2e1ac:	1000251e 	bne	r2,zero,2e244 <alt_iic_isr_register+0xd0>
   2e1b0:	0005303a 	rdctl	r2,status
   2e1b4:	e0bffc15 	stw	r2,-16(fp)
   2e1b8:	e0fffc17 	ldw	r3,-16(fp)
   2e1bc:	00bfff84 	movi	r2,-2
   2e1c0:	1884703a 	and	r2,r3,r2
   2e1c4:	1001703a 	wrctl	status,r2
   2e1c8:	e0bffc17 	ldw	r2,-16(fp)
   2e1cc:	e0bffd15 	stw	r2,-12(fp)
   2e1d0:	e0bffe17 	ldw	r2,-8(fp)
   2e1d4:	100890fa 	slli	r4,r2,3
   2e1d8:	e0fff817 	ldw	r3,-32(fp)
   2e1dc:	008000f4 	movhi	r2,3
   2e1e0:	2085883a 	add	r2,r4,r2
   2e1e4:	10cf7a15 	stw	r3,15848(r2)
   2e1e8:	e0bffe17 	ldw	r2,-8(fp)
   2e1ec:	100890fa 	slli	r4,r2,3
   2e1f0:	e0fff717 	ldw	r3,-36(fp)
   2e1f4:	008000f4 	movhi	r2,3
   2e1f8:	2085883a 	add	r2,r4,r2
   2e1fc:	10cf7b15 	stw	r3,15852(r2)
   2e200:	e0bff817 	ldw	r2,-32(fp)
   2e204:	10000526 	beq	r2,zero,2e21c <alt_iic_isr_register+0xa8>
   2e208:	e0bffe17 	ldw	r2,-8(fp)
   2e20c:	100b883a 	mov	r5,r2
   2e210:	e13ffa17 	ldw	r4,-24(fp)
   2e214:	002e0140 	call	2e014 <alt_ic_irq_enable>
   2e218:	00000406 	br	2e22c <alt_iic_isr_register+0xb8>
   2e21c:	e0bffe17 	ldw	r2,-8(fp)
   2e220:	100b883a 	mov	r5,r2
   2e224:	e13ffa17 	ldw	r4,-24(fp)
   2e228:	002e09c0 	call	2e09c <alt_ic_irq_disable>
   2e22c:	e0bfff15 	stw	r2,-4(fp)
   2e230:	e0bffd17 	ldw	r2,-12(fp)
   2e234:	e0bffb15 	stw	r2,-20(fp)
   2e238:	e0bffb17 	ldw	r2,-20(fp)
   2e23c:	1001703a 	wrctl	status,r2
   2e240:	0001883a 	nop
   2e244:	e0bfff17 	ldw	r2,-4(fp)
   2e248:	e037883a 	mov	sp,fp
   2e24c:	dfc00117 	ldw	ra,4(sp)
   2e250:	df000017 	ldw	fp,0(sp)
   2e254:	dec00204 	addi	sp,sp,8
   2e258:	f800283a 	ret

0002e25c <alt_get_errno>:
   2e25c:	defffe04 	addi	sp,sp,-8
   2e260:	dfc00115 	stw	ra,4(sp)
   2e264:	df000015 	stw	fp,0(sp)
   2e268:	d839883a 	mov	fp,sp
   2e26c:	d0a00917 	ldw	r2,-32732(gp)
   2e270:	10000326 	beq	r2,zero,2e280 <alt_get_errno+0x24>
   2e274:	d0a00917 	ldw	r2,-32732(gp)
   2e278:	103ee83a 	callr	r2
   2e27c:	00000106 	br	2e284 <alt_get_errno+0x28>
   2e280:	d0a64804 	addi	r2,gp,-26336
   2e284:	e037883a 	mov	sp,fp
   2e288:	dfc00117 	ldw	ra,4(sp)
   2e28c:	df000017 	ldw	fp,0(sp)
   2e290:	dec00204 	addi	sp,sp,8
   2e294:	f800283a 	ret

0002e298 <isatty>:
   2e298:	deffea04 	addi	sp,sp,-88
   2e29c:	dfc01515 	stw	ra,84(sp)
   2e2a0:	df001415 	stw	fp,80(sp)
   2e2a4:	df001404 	addi	fp,sp,80
   2e2a8:	e13fec15 	stw	r4,-80(fp)
   2e2ac:	e0bfec17 	ldw	r2,-80(fp)
   2e2b0:	10000916 	blt	r2,zero,2e2d8 <isatty+0x40>
   2e2b4:	e0ffec17 	ldw	r3,-80(fp)
   2e2b8:	1805883a 	mov	r2,r3
   2e2bc:	1085883a 	add	r2,r2,r2
   2e2c0:	10c5883a 	add	r2,r2,r3
   2e2c4:	100490ba 	slli	r2,r2,2
   2e2c8:	00c000f4 	movhi	r3,3
   2e2cc:	18c45404 	addi	r3,r3,4432
   2e2d0:	10c5883a 	add	r2,r2,r3
   2e2d4:	00000106 	br	2e2dc <isatty+0x44>
   2e2d8:	0005883a 	mov	r2,zero
   2e2dc:	e0bfff15 	stw	r2,-4(fp)
   2e2e0:	e0bfff17 	ldw	r2,-4(fp)
   2e2e4:	10000e26 	beq	r2,zero,2e320 <isatty+0x88>
   2e2e8:	e0bfff17 	ldw	r2,-4(fp)
   2e2ec:	10800017 	ldw	r2,0(r2)
   2e2f0:	10800817 	ldw	r2,32(r2)
   2e2f4:	1000021e 	bne	r2,zero,2e300 <isatty+0x68>
   2e2f8:	00800044 	movi	r2,1
   2e2fc:	00000d06 	br	2e334 <isatty+0x9c>
   2e300:	e0bfed04 	addi	r2,fp,-76
   2e304:	100b883a 	mov	r5,r2
   2e308:	e13fec17 	ldw	r4,-80(fp)
   2e30c:	002dee80 	call	2dee8 <fstat>
   2e310:	e0bfee17 	ldw	r2,-72(fp)
   2e314:	10880020 	cmpeqi	r2,r2,8192
   2e318:	10803fcc 	andi	r2,r2,255
   2e31c:	00000506 	br	2e334 <isatty+0x9c>
   2e320:	002e25c0 	call	2e25c <alt_get_errno>
   2e324:	1007883a 	mov	r3,r2
   2e328:	00801444 	movi	r2,81
   2e32c:	18800015 	stw	r2,0(r3)
   2e330:	0005883a 	mov	r2,zero
   2e334:	e037883a 	mov	sp,fp
   2e338:	dfc00117 	ldw	ra,4(sp)
   2e33c:	df000017 	ldw	fp,0(sp)
   2e340:	dec00204 	addi	sp,sp,8
   2e344:	f800283a 	ret

0002e348 <alt_get_errno>:
   2e348:	defffe04 	addi	sp,sp,-8
   2e34c:	dfc00115 	stw	ra,4(sp)
   2e350:	df000015 	stw	fp,0(sp)
   2e354:	d839883a 	mov	fp,sp
   2e358:	d0a00917 	ldw	r2,-32732(gp)
   2e35c:	10000326 	beq	r2,zero,2e36c <alt_get_errno+0x24>
   2e360:	d0a00917 	ldw	r2,-32732(gp)
   2e364:	103ee83a 	callr	r2
   2e368:	00000106 	br	2e370 <alt_get_errno+0x28>
   2e36c:	d0a64804 	addi	r2,gp,-26336
   2e370:	e037883a 	mov	sp,fp
   2e374:	dfc00117 	ldw	ra,4(sp)
   2e378:	df000017 	ldw	fp,0(sp)
   2e37c:	dec00204 	addi	sp,sp,8
   2e380:	f800283a 	ret

0002e384 <kill>:
   2e384:	defffb04 	addi	sp,sp,-20
   2e388:	dfc00415 	stw	ra,16(sp)
   2e38c:	df000315 	stw	fp,12(sp)
   2e390:	df000304 	addi	fp,sp,12
   2e394:	e13ffe15 	stw	r4,-8(fp)
   2e398:	e17ffd15 	stw	r5,-12(fp)
   2e39c:	e03fff15 	stw	zero,-4(fp)
   2e3a0:	e0bffe17 	ldw	r2,-8(fp)
   2e3a4:	00801d16 	blt	zero,r2,2e41c <kill+0x98>
   2e3a8:	e0bffd17 	ldw	r2,-12(fp)
   2e3ac:	10002026 	beq	r2,zero,2e430 <kill+0xac>
   2e3b0:	e0bffd17 	ldw	r2,-12(fp)
   2e3b4:	10001616 	blt	r2,zero,2e410 <kill+0x8c>
   2e3b8:	e0bffd17 	ldw	r2,-12(fp)
   2e3bc:	10800808 	cmpgei	r2,r2,32
   2e3c0:	1000131e 	bne	r2,zero,2e410 <kill+0x8c>
   2e3c4:	e0bffd17 	ldw	r2,-12(fp)
   2e3c8:	108000d0 	cmplti	r2,r2,3
   2e3cc:	1000101e 	bne	r2,zero,2e410 <kill+0x8c>
   2e3d0:	e0bffd17 	ldw	r2,-12(fp)
   2e3d4:	00c00044 	movi	r3,1
   2e3d8:	1886983a 	sll	r3,r3,r2
   2e3dc:	00b3e074 	movhi	r2,53121
   2e3e0:	10bfde04 	addi	r2,r2,-136
   2e3e4:	1884703a 	and	r2,r3,r2
   2e3e8:	1004c03a 	cmpne	r2,r2,zero
   2e3ec:	10803fcc 	andi	r2,r2,255
   2e3f0:	1000051e 	bne	r2,zero,2e408 <kill+0x84>
   2e3f4:	1880046c 	andhi	r2,r3,17
   2e3f8:	1004c03a 	cmpne	r2,r2,zero
   2e3fc:	10803fcc 	andi	r2,r2,255
   2e400:	10000d1e 	bne	r2,zero,2e438 <kill+0xb4>
   2e404:	00000206 	br	2e410 <kill+0x8c>
   2e408:	0009883a 	mov	r4,zero
   2e40c:	002de700 	call	2de70 <_exit>
   2e410:	00800584 	movi	r2,22
   2e414:	e0bfff15 	stw	r2,-4(fp)
   2e418:	00000806 	br	2e43c <kill+0xb8>
   2e41c:	e0bffe17 	ldw	r2,-8(fp)
   2e420:	0080060e 	bge	zero,r2,2e43c <kill+0xb8>
   2e424:	008000c4 	movi	r2,3
   2e428:	e0bfff15 	stw	r2,-4(fp)
   2e42c:	00000306 	br	2e43c <kill+0xb8>
   2e430:	0001883a 	nop
   2e434:	00000106 	br	2e43c <kill+0xb8>
   2e438:	0001883a 	nop
   2e43c:	e0bfff17 	ldw	r2,-4(fp)
   2e440:	10000626 	beq	r2,zero,2e45c <kill+0xd8>
   2e444:	002e3480 	call	2e348 <alt_get_errno>
   2e448:	1007883a 	mov	r3,r2
   2e44c:	e0bfff17 	ldw	r2,-4(fp)
   2e450:	18800015 	stw	r2,0(r3)
   2e454:	00bfffc4 	movi	r2,-1
   2e458:	00000106 	br	2e460 <kill+0xdc>
   2e45c:	0005883a 	mov	r2,zero
   2e460:	e037883a 	mov	sp,fp
   2e464:	dfc00117 	ldw	ra,4(sp)
   2e468:	df000017 	ldw	fp,0(sp)
   2e46c:	dec00204 	addi	sp,sp,8
   2e470:	f800283a 	ret

0002e474 <alt_load_section>:
   2e474:	defffc04 	addi	sp,sp,-16
   2e478:	df000315 	stw	fp,12(sp)
   2e47c:	df000304 	addi	fp,sp,12
   2e480:	e13fff15 	stw	r4,-4(fp)
   2e484:	e17ffe15 	stw	r5,-8(fp)
   2e488:	e1bffd15 	stw	r6,-12(fp)
   2e48c:	e0fffe17 	ldw	r3,-8(fp)
   2e490:	e0bfff17 	ldw	r2,-4(fp)
   2e494:	18800c26 	beq	r3,r2,2e4c8 <alt_load_section+0x54>
   2e498:	00000806 	br	2e4bc <alt_load_section+0x48>
   2e49c:	e0ffff17 	ldw	r3,-4(fp)
   2e4a0:	18800104 	addi	r2,r3,4
   2e4a4:	e0bfff15 	stw	r2,-4(fp)
   2e4a8:	e0bffe17 	ldw	r2,-8(fp)
   2e4ac:	11000104 	addi	r4,r2,4
   2e4b0:	e13ffe15 	stw	r4,-8(fp)
   2e4b4:	18c00017 	ldw	r3,0(r3)
   2e4b8:	10c00015 	stw	r3,0(r2)
   2e4bc:	e0fffe17 	ldw	r3,-8(fp)
   2e4c0:	e0bffd17 	ldw	r2,-12(fp)
   2e4c4:	18bff51e 	bne	r3,r2,2e49c <alt_load_section+0x28>
   2e4c8:	0001883a 	nop
   2e4cc:	e037883a 	mov	sp,fp
   2e4d0:	df000017 	ldw	fp,0(sp)
   2e4d4:	dec00104 	addi	sp,sp,4
   2e4d8:	f800283a 	ret

0002e4dc <alt_load>:
   2e4dc:	defffe04 	addi	sp,sp,-8
   2e4e0:	dfc00115 	stw	ra,4(sp)
   2e4e4:	df000015 	stw	fp,0(sp)
   2e4e8:	d839883a 	mov	fp,sp
   2e4ec:	018000f4 	movhi	r6,3
   2e4f0:	3188da04 	addi	r6,r6,9064
   2e4f4:	014000f4 	movhi	r5,3
   2e4f8:	2942a304 	addi	r5,r5,2700
   2e4fc:	010000f4 	movhi	r4,3
   2e500:	2108da04 	addi	r4,r4,9064
   2e504:	002e4740 	call	2e474 <alt_load_section>
   2e508:	018000b4 	movhi	r6,2
   2e50c:	31808904 	addi	r6,r6,548
   2e510:	014000b4 	movhi	r5,2
   2e514:	29400804 	addi	r5,r5,32
   2e518:	010000b4 	movhi	r4,2
   2e51c:	21000804 	addi	r4,r4,32
   2e520:	002e4740 	call	2e474 <alt_load_section>
   2e524:	018000f4 	movhi	r6,3
   2e528:	3182a304 	addi	r6,r6,2700
   2e52c:	014000f4 	movhi	r5,3
   2e530:	29410b04 	addi	r5,r5,1068
   2e534:	010000f4 	movhi	r4,3
   2e538:	21010b04 	addi	r4,r4,1068
   2e53c:	002e4740 	call	2e474 <alt_load_section>
   2e540:	002f8a00 	call	2f8a0 <alt_dcache_flush_all>
   2e544:	002fa6c0 	call	2fa6c <alt_icache_flush_all>
   2e548:	0001883a 	nop
   2e54c:	e037883a 	mov	sp,fp
   2e550:	dfc00117 	ldw	ra,4(sp)
   2e554:	df000017 	ldw	fp,0(sp)
   2e558:	dec00204 	addi	sp,sp,8
   2e55c:	f800283a 	ret

0002e560 <alt_get_errno>:
   2e560:	defffe04 	addi	sp,sp,-8
   2e564:	dfc00115 	stw	ra,4(sp)
   2e568:	df000015 	stw	fp,0(sp)
   2e56c:	d839883a 	mov	fp,sp
   2e570:	d0a00917 	ldw	r2,-32732(gp)
   2e574:	10000326 	beq	r2,zero,2e584 <alt_get_errno+0x24>
   2e578:	d0a00917 	ldw	r2,-32732(gp)
   2e57c:	103ee83a 	callr	r2
   2e580:	00000106 	br	2e588 <alt_get_errno+0x28>
   2e584:	d0a64804 	addi	r2,gp,-26336
   2e588:	e037883a 	mov	sp,fp
   2e58c:	dfc00117 	ldw	ra,4(sp)
   2e590:	df000017 	ldw	fp,0(sp)
   2e594:	dec00204 	addi	sp,sp,8
   2e598:	f800283a 	ret

0002e59c <lseek>:
   2e59c:	defff904 	addi	sp,sp,-28
   2e5a0:	dfc00615 	stw	ra,24(sp)
   2e5a4:	df000515 	stw	fp,20(sp)
   2e5a8:	df000504 	addi	fp,sp,20
   2e5ac:	e13ffd15 	stw	r4,-12(fp)
   2e5b0:	e17ffc15 	stw	r5,-16(fp)
   2e5b4:	e1bffb15 	stw	r6,-20(fp)
   2e5b8:	e03fff15 	stw	zero,-4(fp)
   2e5bc:	e0bffd17 	ldw	r2,-12(fp)
   2e5c0:	10000916 	blt	r2,zero,2e5e8 <lseek+0x4c>
   2e5c4:	e0fffd17 	ldw	r3,-12(fp)
   2e5c8:	1805883a 	mov	r2,r3
   2e5cc:	1085883a 	add	r2,r2,r2
   2e5d0:	10c5883a 	add	r2,r2,r3
   2e5d4:	100490ba 	slli	r2,r2,2
   2e5d8:	00c000f4 	movhi	r3,3
   2e5dc:	18c45404 	addi	r3,r3,4432
   2e5e0:	10c5883a 	add	r2,r2,r3
   2e5e4:	00000106 	br	2e5ec <lseek+0x50>
   2e5e8:	0005883a 	mov	r2,zero
   2e5ec:	e0bffe15 	stw	r2,-8(fp)
   2e5f0:	e0bffe17 	ldw	r2,-8(fp)
   2e5f4:	10001026 	beq	r2,zero,2e638 <lseek+0x9c>
   2e5f8:	e0bffe17 	ldw	r2,-8(fp)
   2e5fc:	10800017 	ldw	r2,0(r2)
   2e600:	10800717 	ldw	r2,28(r2)
   2e604:	10000926 	beq	r2,zero,2e62c <lseek+0x90>
   2e608:	e0bffe17 	ldw	r2,-8(fp)
   2e60c:	10800017 	ldw	r2,0(r2)
   2e610:	10800717 	ldw	r2,28(r2)
   2e614:	e1bffb17 	ldw	r6,-20(fp)
   2e618:	e17ffc17 	ldw	r5,-16(fp)
   2e61c:	e13ffe17 	ldw	r4,-8(fp)
   2e620:	103ee83a 	callr	r2
   2e624:	e0bfff15 	stw	r2,-4(fp)
   2e628:	00000506 	br	2e640 <lseek+0xa4>
   2e62c:	00bfde84 	movi	r2,-134
   2e630:	e0bfff15 	stw	r2,-4(fp)
   2e634:	00000206 	br	2e640 <lseek+0xa4>
   2e638:	00bfebc4 	movi	r2,-81
   2e63c:	e0bfff15 	stw	r2,-4(fp)
   2e640:	e0bfff17 	ldw	r2,-4(fp)
   2e644:	1000070e 	bge	r2,zero,2e664 <lseek+0xc8>
   2e648:	002e5600 	call	2e560 <alt_get_errno>
   2e64c:	1007883a 	mov	r3,r2
   2e650:	e0bfff17 	ldw	r2,-4(fp)
   2e654:	0085c83a 	sub	r2,zero,r2
   2e658:	18800015 	stw	r2,0(r3)
   2e65c:	00bfffc4 	movi	r2,-1
   2e660:	e0bfff15 	stw	r2,-4(fp)
   2e664:	e0bfff17 	ldw	r2,-4(fp)
   2e668:	e037883a 	mov	sp,fp
   2e66c:	dfc00117 	ldw	ra,4(sp)
   2e670:	df000017 	ldw	fp,0(sp)
   2e674:	dec00204 	addi	sp,sp,8
   2e678:	f800283a 	ret

0002e67c <alt_main>:
   2e67c:	defffd04 	addi	sp,sp,-12
   2e680:	dfc00215 	stw	ra,8(sp)
   2e684:	df000115 	stw	fp,4(sp)
   2e688:	df000104 	addi	fp,sp,4
   2e68c:	0009883a 	mov	r4,zero
   2e690:	002eb200 	call	2eb20 <alt_irq_init>
   2e694:	0001883a 	nop
   2e698:	002eb5c0 	call	2eb5c <alt_sys_init>
   2e69c:	018000f4 	movhi	r6,3
   2e6a0:	31829b04 	addi	r6,r6,2668
   2e6a4:	014000f4 	movhi	r5,3
   2e6a8:	29429b04 	addi	r5,r5,2668
   2e6ac:	010000f4 	movhi	r4,3
   2e6b0:	21029b04 	addi	r4,r4,2668
   2e6b4:	002fbd40 	call	2fbd4 <alt_io_redirect>
   2e6b8:	002f9a40 	call	2f9a4 <_do_ctors>
   2e6bc:	010000f4 	movhi	r4,3
   2e6c0:	213e8204 	addi	r4,r4,-1528
   2e6c4:	003030c0 	call	3030c <atexit>
   2e6c8:	d0a64f17 	ldw	r2,-26308(gp)
   2e6cc:	d0e65017 	ldw	r3,-26304(gp)
   2e6d0:	d1265117 	ldw	r4,-26300(gp)
   2e6d4:	200d883a 	mov	r6,r4
   2e6d8:	180b883a 	mov	r5,r3
   2e6dc:	1009883a 	mov	r4,r2
   2e6e0:	00206200 	call	20620 <main>
   2e6e4:	e0bfff15 	stw	r2,-4(fp)
   2e6e8:	01000044 	movi	r4,1
   2e6ec:	002dd680 	call	2dd68 <close>
   2e6f0:	e13fff17 	ldw	r4,-4(fp)
   2e6f4:	002750c0 	call	2750c <exit>

0002e6f8 <__malloc_lock>:
   2e6f8:	defffe04 	addi	sp,sp,-8
   2e6fc:	df000115 	stw	fp,4(sp)
   2e700:	df000104 	addi	fp,sp,4
   2e704:	e13fff15 	stw	r4,-4(fp)
   2e708:	0001883a 	nop
   2e70c:	e037883a 	mov	sp,fp
   2e710:	df000017 	ldw	fp,0(sp)
   2e714:	dec00104 	addi	sp,sp,4
   2e718:	f800283a 	ret

0002e71c <__malloc_unlock>:
   2e71c:	defffe04 	addi	sp,sp,-8
   2e720:	df000115 	stw	fp,4(sp)
   2e724:	df000104 	addi	fp,sp,4
   2e728:	e13fff15 	stw	r4,-4(fp)
   2e72c:	0001883a 	nop
   2e730:	e037883a 	mov	sp,fp
   2e734:	df000017 	ldw	fp,0(sp)
   2e738:	dec00104 	addi	sp,sp,4
   2e73c:	f800283a 	ret

0002e740 <alt_get_errno>:
   2e740:	defffe04 	addi	sp,sp,-8
   2e744:	dfc00115 	stw	ra,4(sp)
   2e748:	df000015 	stw	fp,0(sp)
   2e74c:	d839883a 	mov	fp,sp
   2e750:	d0a00917 	ldw	r2,-32732(gp)
   2e754:	10000326 	beq	r2,zero,2e764 <alt_get_errno+0x24>
   2e758:	d0a00917 	ldw	r2,-32732(gp)
   2e75c:	103ee83a 	callr	r2
   2e760:	00000106 	br	2e768 <alt_get_errno+0x28>
   2e764:	d0a64804 	addi	r2,gp,-26336
   2e768:	e037883a 	mov	sp,fp
   2e76c:	dfc00117 	ldw	ra,4(sp)
   2e770:	df000017 	ldw	fp,0(sp)
   2e774:	dec00204 	addi	sp,sp,8
   2e778:	f800283a 	ret

0002e77c <read>:
   2e77c:	defff904 	addi	sp,sp,-28
   2e780:	dfc00615 	stw	ra,24(sp)
   2e784:	df000515 	stw	fp,20(sp)
   2e788:	df000504 	addi	fp,sp,20
   2e78c:	e13ffd15 	stw	r4,-12(fp)
   2e790:	e17ffc15 	stw	r5,-16(fp)
   2e794:	e1bffb15 	stw	r6,-20(fp)
   2e798:	e0bffd17 	ldw	r2,-12(fp)
   2e79c:	10000916 	blt	r2,zero,2e7c4 <read+0x48>
   2e7a0:	e0fffd17 	ldw	r3,-12(fp)
   2e7a4:	1805883a 	mov	r2,r3
   2e7a8:	1085883a 	add	r2,r2,r2
   2e7ac:	10c5883a 	add	r2,r2,r3
   2e7b0:	100490ba 	slli	r2,r2,2
   2e7b4:	00c000f4 	movhi	r3,3
   2e7b8:	18c45404 	addi	r3,r3,4432
   2e7bc:	10c5883a 	add	r2,r2,r3
   2e7c0:	00000106 	br	2e7c8 <read+0x4c>
   2e7c4:	0005883a 	mov	r2,zero
   2e7c8:	e0bfff15 	stw	r2,-4(fp)
   2e7cc:	e0bfff17 	ldw	r2,-4(fp)
   2e7d0:	10002226 	beq	r2,zero,2e85c <read+0xe0>
   2e7d4:	e0bfff17 	ldw	r2,-4(fp)
   2e7d8:	10800217 	ldw	r2,8(r2)
   2e7dc:	108000cc 	andi	r2,r2,3
   2e7e0:	10800060 	cmpeqi	r2,r2,1
   2e7e4:	1000181e 	bne	r2,zero,2e848 <read+0xcc>
   2e7e8:	e0bfff17 	ldw	r2,-4(fp)
   2e7ec:	10800017 	ldw	r2,0(r2)
   2e7f0:	10800517 	ldw	r2,20(r2)
   2e7f4:	10001426 	beq	r2,zero,2e848 <read+0xcc>
   2e7f8:	e0bfff17 	ldw	r2,-4(fp)
   2e7fc:	10800017 	ldw	r2,0(r2)
   2e800:	10800517 	ldw	r2,20(r2)
   2e804:	e0fffb17 	ldw	r3,-20(fp)
   2e808:	180d883a 	mov	r6,r3
   2e80c:	e17ffc17 	ldw	r5,-16(fp)
   2e810:	e13fff17 	ldw	r4,-4(fp)
   2e814:	103ee83a 	callr	r2
   2e818:	e0bffe15 	stw	r2,-8(fp)
   2e81c:	e0bffe17 	ldw	r2,-8(fp)
   2e820:	1000070e 	bge	r2,zero,2e840 <read+0xc4>
   2e824:	002e7400 	call	2e740 <alt_get_errno>
   2e828:	1007883a 	mov	r3,r2
   2e82c:	e0bffe17 	ldw	r2,-8(fp)
   2e830:	0085c83a 	sub	r2,zero,r2
   2e834:	18800015 	stw	r2,0(r3)
   2e838:	00bfffc4 	movi	r2,-1
   2e83c:	00000c06 	br	2e870 <read+0xf4>
   2e840:	e0bffe17 	ldw	r2,-8(fp)
   2e844:	00000a06 	br	2e870 <read+0xf4>
   2e848:	002e7400 	call	2e740 <alt_get_errno>
   2e84c:	1007883a 	mov	r3,r2
   2e850:	00800344 	movi	r2,13
   2e854:	18800015 	stw	r2,0(r3)
   2e858:	00000406 	br	2e86c <read+0xf0>
   2e85c:	002e7400 	call	2e740 <alt_get_errno>
   2e860:	1007883a 	mov	r3,r2
   2e864:	00801444 	movi	r2,81
   2e868:	18800015 	stw	r2,0(r3)
   2e86c:	00bfffc4 	movi	r2,-1
   2e870:	e037883a 	mov	sp,fp
   2e874:	dfc00117 	ldw	ra,4(sp)
   2e878:	df000017 	ldw	fp,0(sp)
   2e87c:	dec00204 	addi	sp,sp,8
   2e880:	f800283a 	ret

0002e884 <alt_release_fd>:
   2e884:	defffe04 	addi	sp,sp,-8
   2e888:	df000115 	stw	fp,4(sp)
   2e88c:	df000104 	addi	fp,sp,4
   2e890:	e13fff15 	stw	r4,-4(fp)
   2e894:	e0bfff17 	ldw	r2,-4(fp)
   2e898:	108000d0 	cmplti	r2,r2,3
   2e89c:	1000101e 	bne	r2,zero,2e8e0 <alt_release_fd+0x5c>
   2e8a0:	e0ffff17 	ldw	r3,-4(fp)
   2e8a4:	1805883a 	mov	r2,r3
   2e8a8:	1085883a 	add	r2,r2,r2
   2e8ac:	10c5883a 	add	r2,r2,r3
   2e8b0:	100490ba 	slli	r2,r2,2
   2e8b4:	00c000f4 	movhi	r3,3
   2e8b8:	10c7883a 	add	r3,r2,r3
   2e8bc:	18045615 	stw	zero,4440(r3)
   2e8c0:	e0ffff17 	ldw	r3,-4(fp)
   2e8c4:	1805883a 	mov	r2,r3
   2e8c8:	1085883a 	add	r2,r2,r2
   2e8cc:	10c5883a 	add	r2,r2,r3
   2e8d0:	100490ba 	slli	r2,r2,2
   2e8d4:	00c000f4 	movhi	r3,3
   2e8d8:	10c7883a 	add	r3,r2,r3
   2e8dc:	18045415 	stw	zero,4432(r3)
   2e8e0:	0001883a 	nop
   2e8e4:	e037883a 	mov	sp,fp
   2e8e8:	df000017 	ldw	fp,0(sp)
   2e8ec:	dec00104 	addi	sp,sp,4
   2e8f0:	f800283a 	ret

0002e8f4 <sbrk>:
   2e8f4:	defff904 	addi	sp,sp,-28
   2e8f8:	df000615 	stw	fp,24(sp)
   2e8fc:	df000604 	addi	fp,sp,24
   2e900:	e13ffa15 	stw	r4,-24(fp)
   2e904:	0005303a 	rdctl	r2,status
   2e908:	e0bffd15 	stw	r2,-12(fp)
   2e90c:	e0fffd17 	ldw	r3,-12(fp)
   2e910:	00bfff84 	movi	r2,-2
   2e914:	1884703a 	and	r2,r3,r2
   2e918:	1001703a 	wrctl	status,r2
   2e91c:	e0bffd17 	ldw	r2,-12(fp)
   2e920:	e0bfff15 	stw	r2,-4(fp)
   2e924:	d0a00b17 	ldw	r2,-32724(gp)
   2e928:	10c000c4 	addi	r3,r2,3
   2e92c:	00bfff04 	movi	r2,-4
   2e930:	1884703a 	and	r2,r3,r2
   2e934:	d0a00b15 	stw	r2,-32724(gp)
   2e938:	d0e00b17 	ldw	r3,-32724(gp)
   2e93c:	e0bffa17 	ldw	r2,-24(fp)
   2e940:	1887883a 	add	r3,r3,r2
   2e944:	00800134 	movhi	r2,4
   2e948:	10a00004 	addi	r2,r2,-32768
   2e94c:	10c0072e 	bgeu	r2,r3,2e96c <sbrk+0x78>
   2e950:	e0bfff17 	ldw	r2,-4(fp)
   2e954:	e0bffc15 	stw	r2,-16(fp)
   2e958:	e0bffc17 	ldw	r2,-16(fp)
   2e95c:	1001703a 	wrctl	status,r2
   2e960:	0001883a 	nop
   2e964:	00bfffc4 	movi	r2,-1
   2e968:	00000c06 	br	2e99c <sbrk+0xa8>
   2e96c:	d0a00b17 	ldw	r2,-32724(gp)
   2e970:	e0bffe15 	stw	r2,-8(fp)
   2e974:	d0e00b17 	ldw	r3,-32724(gp)
   2e978:	e0bffa17 	ldw	r2,-24(fp)
   2e97c:	1885883a 	add	r2,r3,r2
   2e980:	d0a00b15 	stw	r2,-32724(gp)
   2e984:	e0bfff17 	ldw	r2,-4(fp)
   2e988:	e0bffb15 	stw	r2,-20(fp)
   2e98c:	e0bffb17 	ldw	r2,-20(fp)
   2e990:	1001703a 	wrctl	status,r2
   2e994:	0001883a 	nop
   2e998:	e0bffe17 	ldw	r2,-8(fp)
   2e99c:	e037883a 	mov	sp,fp
   2e9a0:	df000017 	ldw	fp,0(sp)
   2e9a4:	dec00104 	addi	sp,sp,4
   2e9a8:	f800283a 	ret

0002e9ac <alt_get_errno>:
   2e9ac:	defffe04 	addi	sp,sp,-8
   2e9b0:	dfc00115 	stw	ra,4(sp)
   2e9b4:	df000015 	stw	fp,0(sp)
   2e9b8:	d839883a 	mov	fp,sp
   2e9bc:	d0a00917 	ldw	r2,-32732(gp)
   2e9c0:	10000326 	beq	r2,zero,2e9d0 <alt_get_errno+0x24>
   2e9c4:	d0a00917 	ldw	r2,-32732(gp)
   2e9c8:	103ee83a 	callr	r2
   2e9cc:	00000106 	br	2e9d4 <alt_get_errno+0x28>
   2e9d0:	d0a64804 	addi	r2,gp,-26336
   2e9d4:	e037883a 	mov	sp,fp
   2e9d8:	dfc00117 	ldw	ra,4(sp)
   2e9dc:	df000017 	ldw	fp,0(sp)
   2e9e0:	dec00204 	addi	sp,sp,8
   2e9e4:	f800283a 	ret

0002e9e8 <write>:
   2e9e8:	defff904 	addi	sp,sp,-28
   2e9ec:	dfc00615 	stw	ra,24(sp)
   2e9f0:	df000515 	stw	fp,20(sp)
   2e9f4:	df000504 	addi	fp,sp,20
   2e9f8:	e13ffd15 	stw	r4,-12(fp)
   2e9fc:	e17ffc15 	stw	r5,-16(fp)
   2ea00:	e1bffb15 	stw	r6,-20(fp)
   2ea04:	e0bffd17 	ldw	r2,-12(fp)
   2ea08:	10000916 	blt	r2,zero,2ea30 <write+0x48>
   2ea0c:	e0fffd17 	ldw	r3,-12(fp)
   2ea10:	1805883a 	mov	r2,r3
   2ea14:	1085883a 	add	r2,r2,r2
   2ea18:	10c5883a 	add	r2,r2,r3
   2ea1c:	100490ba 	slli	r2,r2,2
   2ea20:	00c000f4 	movhi	r3,3
   2ea24:	18c45404 	addi	r3,r3,4432
   2ea28:	10c5883a 	add	r2,r2,r3
   2ea2c:	00000106 	br	2ea34 <write+0x4c>
   2ea30:	0005883a 	mov	r2,zero
   2ea34:	e0bfff15 	stw	r2,-4(fp)
   2ea38:	e0bfff17 	ldw	r2,-4(fp)
   2ea3c:	10002126 	beq	r2,zero,2eac4 <write+0xdc>
   2ea40:	e0bfff17 	ldw	r2,-4(fp)
   2ea44:	10800217 	ldw	r2,8(r2)
   2ea48:	108000cc 	andi	r2,r2,3
   2ea4c:	10001826 	beq	r2,zero,2eab0 <write+0xc8>
   2ea50:	e0bfff17 	ldw	r2,-4(fp)
   2ea54:	10800017 	ldw	r2,0(r2)
   2ea58:	10800617 	ldw	r2,24(r2)
   2ea5c:	10001426 	beq	r2,zero,2eab0 <write+0xc8>
   2ea60:	e0bfff17 	ldw	r2,-4(fp)
   2ea64:	10800017 	ldw	r2,0(r2)
   2ea68:	10800617 	ldw	r2,24(r2)
   2ea6c:	e0fffb17 	ldw	r3,-20(fp)
   2ea70:	180d883a 	mov	r6,r3
   2ea74:	e17ffc17 	ldw	r5,-16(fp)
   2ea78:	e13fff17 	ldw	r4,-4(fp)
   2ea7c:	103ee83a 	callr	r2
   2ea80:	e0bffe15 	stw	r2,-8(fp)
   2ea84:	e0bffe17 	ldw	r2,-8(fp)
   2ea88:	1000070e 	bge	r2,zero,2eaa8 <write+0xc0>
   2ea8c:	002e9ac0 	call	2e9ac <alt_get_errno>
   2ea90:	1007883a 	mov	r3,r2
   2ea94:	e0bffe17 	ldw	r2,-8(fp)
   2ea98:	0085c83a 	sub	r2,zero,r2
   2ea9c:	18800015 	stw	r2,0(r3)
   2eaa0:	00bfffc4 	movi	r2,-1
   2eaa4:	00000c06 	br	2ead8 <write+0xf0>
   2eaa8:	e0bffe17 	ldw	r2,-8(fp)
   2eaac:	00000a06 	br	2ead8 <write+0xf0>
   2eab0:	002e9ac0 	call	2e9ac <alt_get_errno>
   2eab4:	1007883a 	mov	r3,r2
   2eab8:	00800344 	movi	r2,13
   2eabc:	18800015 	stw	r2,0(r3)
   2eac0:	00000406 	br	2ead4 <write+0xec>
   2eac4:	002e9ac0 	call	2e9ac <alt_get_errno>
   2eac8:	1007883a 	mov	r3,r2
   2eacc:	00801444 	movi	r2,81
   2ead0:	18800015 	stw	r2,0(r3)
   2ead4:	00bfffc4 	movi	r2,-1
   2ead8:	e037883a 	mov	sp,fp
   2eadc:	dfc00117 	ldw	ra,4(sp)
   2eae0:	df000017 	ldw	fp,0(sp)
   2eae4:	dec00204 	addi	sp,sp,8
   2eae8:	f800283a 	ret

0002eaec <alt_dev_reg>:
   2eaec:	defffd04 	addi	sp,sp,-12
   2eaf0:	dfc00215 	stw	ra,8(sp)
   2eaf4:	df000115 	stw	fp,4(sp)
   2eaf8:	df000104 	addi	fp,sp,4
   2eafc:	e13fff15 	stw	r4,-4(fp)
   2eb00:	d1600604 	addi	r5,gp,-32744
   2eb04:	e13fff17 	ldw	r4,-4(fp)
   2eb08:	002f8fc0 	call	2f8fc <alt_dev_llist_insert>
   2eb0c:	e037883a 	mov	sp,fp
   2eb10:	dfc00117 	ldw	ra,4(sp)
   2eb14:	df000017 	ldw	fp,0(sp)
   2eb18:	dec00204 	addi	sp,sp,8
   2eb1c:	f800283a 	ret

0002eb20 <alt_irq_init>:
   2eb20:	defffd04 	addi	sp,sp,-12
   2eb24:	dfc00215 	stw	ra,8(sp)
   2eb28:	df000115 	stw	fp,4(sp)
   2eb2c:	df000104 	addi	fp,sp,4
   2eb30:	e13fff15 	stw	r4,-4(fp)
   2eb34:	00300980 	call	30098 <altera_nios2_gen2_irq_init>
   2eb38:	00800044 	movi	r2,1
   2eb3c:	1001703a 	wrctl	status,r2
   2eb40:	0001883a 	nop
   2eb44:	0001883a 	nop
   2eb48:	e037883a 	mov	sp,fp
   2eb4c:	dfc00117 	ldw	ra,4(sp)
   2eb50:	df000017 	ldw	fp,0(sp)
   2eb54:	dec00204 	addi	sp,sp,8
   2eb58:	f800283a 	ret

0002eb5c <alt_sys_init>:
   2eb5c:	defffe04 	addi	sp,sp,-8
   2eb60:	dfc00115 	stw	ra,4(sp)
   2eb64:	df000015 	stw	fp,0(sp)
   2eb68:	d839883a 	mov	fp,sp
   2eb6c:	01c0fa04 	movi	r7,1000
   2eb70:	01800044 	movi	r6,1
   2eb74:	000b883a 	mov	r5,zero
   2eb78:	01000134 	movhi	r4,4
   2eb7c:	21040804 	addi	r4,r4,4128
   2eb80:	002f6bc0 	call	2f6bc <alt_avalon_timer_sc_init>
   2eb84:	018000c4 	movi	r6,3
   2eb88:	000b883a 	mov	r5,zero
   2eb8c:	010000f4 	movhi	r4,3
   2eb90:	2104be04 	addi	r4,r4,4856
   2eb94:	002ed200 	call	2ed20 <altera_avalon_jtag_uart_init>
   2eb98:	010000f4 	movhi	r4,3
   2eb9c:	2104b404 	addi	r4,r4,4816
   2eba0:	002eaec0 	call	2eaec <alt_dev_reg>
   2eba4:	0001883a 	nop
   2eba8:	e037883a 	mov	sp,fp
   2ebac:	dfc00117 	ldw	ra,4(sp)
   2ebb0:	df000017 	ldw	fp,0(sp)
   2ebb4:	dec00204 	addi	sp,sp,8
   2ebb8:	f800283a 	ret

0002ebbc <altera_avalon_jtag_uart_read_fd>:
   2ebbc:	defffa04 	addi	sp,sp,-24
   2ebc0:	dfc00515 	stw	ra,20(sp)
   2ebc4:	df000415 	stw	fp,16(sp)
   2ebc8:	df000404 	addi	fp,sp,16
   2ebcc:	e13ffe15 	stw	r4,-8(fp)
   2ebd0:	e17ffd15 	stw	r5,-12(fp)
   2ebd4:	e1bffc15 	stw	r6,-16(fp)
   2ebd8:	e0bffe17 	ldw	r2,-8(fp)
   2ebdc:	10800017 	ldw	r2,0(r2)
   2ebe0:	e0bfff15 	stw	r2,-4(fp)
   2ebe4:	e0bfff17 	ldw	r2,-4(fp)
   2ebe8:	10c00a04 	addi	r3,r2,40
   2ebec:	e0bffe17 	ldw	r2,-8(fp)
   2ebf0:	10800217 	ldw	r2,8(r2)
   2ebf4:	100f883a 	mov	r7,r2
   2ebf8:	e1bffc17 	ldw	r6,-16(fp)
   2ebfc:	e17ffd17 	ldw	r5,-12(fp)
   2ec00:	1809883a 	mov	r4,r3
   2ec04:	002f1f80 	call	2f1f8 <altera_avalon_jtag_uart_read>
   2ec08:	e037883a 	mov	sp,fp
   2ec0c:	dfc00117 	ldw	ra,4(sp)
   2ec10:	df000017 	ldw	fp,0(sp)
   2ec14:	dec00204 	addi	sp,sp,8
   2ec18:	f800283a 	ret

0002ec1c <altera_avalon_jtag_uart_write_fd>:
   2ec1c:	defffa04 	addi	sp,sp,-24
   2ec20:	dfc00515 	stw	ra,20(sp)
   2ec24:	df000415 	stw	fp,16(sp)
   2ec28:	df000404 	addi	fp,sp,16
   2ec2c:	e13ffe15 	stw	r4,-8(fp)
   2ec30:	e17ffd15 	stw	r5,-12(fp)
   2ec34:	e1bffc15 	stw	r6,-16(fp)
   2ec38:	e0bffe17 	ldw	r2,-8(fp)
   2ec3c:	10800017 	ldw	r2,0(r2)
   2ec40:	e0bfff15 	stw	r2,-4(fp)
   2ec44:	e0bfff17 	ldw	r2,-4(fp)
   2ec48:	10c00a04 	addi	r3,r2,40
   2ec4c:	e0bffe17 	ldw	r2,-8(fp)
   2ec50:	10800217 	ldw	r2,8(r2)
   2ec54:	100f883a 	mov	r7,r2
   2ec58:	e1bffc17 	ldw	r6,-16(fp)
   2ec5c:	e17ffd17 	ldw	r5,-12(fp)
   2ec60:	1809883a 	mov	r4,r3
   2ec64:	002f4180 	call	2f418 <altera_avalon_jtag_uart_write>
   2ec68:	e037883a 	mov	sp,fp
   2ec6c:	dfc00117 	ldw	ra,4(sp)
   2ec70:	df000017 	ldw	fp,0(sp)
   2ec74:	dec00204 	addi	sp,sp,8
   2ec78:	f800283a 	ret

0002ec7c <altera_avalon_jtag_uart_close_fd>:
   2ec7c:	defffc04 	addi	sp,sp,-16
   2ec80:	dfc00315 	stw	ra,12(sp)
   2ec84:	df000215 	stw	fp,8(sp)
   2ec88:	df000204 	addi	fp,sp,8
   2ec8c:	e13ffe15 	stw	r4,-8(fp)
   2ec90:	e0bffe17 	ldw	r2,-8(fp)
   2ec94:	10800017 	ldw	r2,0(r2)
   2ec98:	e0bfff15 	stw	r2,-4(fp)
   2ec9c:	e0bfff17 	ldw	r2,-4(fp)
   2eca0:	10c00a04 	addi	r3,r2,40
   2eca4:	e0bffe17 	ldw	r2,-8(fp)
   2eca8:	10800217 	ldw	r2,8(r2)
   2ecac:	100b883a 	mov	r5,r2
   2ecb0:	1809883a 	mov	r4,r3
   2ecb4:	002f09c0 	call	2f09c <altera_avalon_jtag_uart_close>
   2ecb8:	e037883a 	mov	sp,fp
   2ecbc:	dfc00117 	ldw	ra,4(sp)
   2ecc0:	df000017 	ldw	fp,0(sp)
   2ecc4:	dec00204 	addi	sp,sp,8
   2ecc8:	f800283a 	ret

0002eccc <altera_avalon_jtag_uart_ioctl_fd>:
   2eccc:	defffa04 	addi	sp,sp,-24
   2ecd0:	dfc00515 	stw	ra,20(sp)
   2ecd4:	df000415 	stw	fp,16(sp)
   2ecd8:	df000404 	addi	fp,sp,16
   2ecdc:	e13ffe15 	stw	r4,-8(fp)
   2ece0:	e17ffd15 	stw	r5,-12(fp)
   2ece4:	e1bffc15 	stw	r6,-16(fp)
   2ece8:	e0bffe17 	ldw	r2,-8(fp)
   2ecec:	10800017 	ldw	r2,0(r2)
   2ecf0:	e0bfff15 	stw	r2,-4(fp)
   2ecf4:	e0bfff17 	ldw	r2,-4(fp)
   2ecf8:	10800a04 	addi	r2,r2,40
   2ecfc:	e1bffc17 	ldw	r6,-16(fp)
   2ed00:	e17ffd17 	ldw	r5,-12(fp)
   2ed04:	1009883a 	mov	r4,r2
   2ed08:	002f1040 	call	2f104 <altera_avalon_jtag_uart_ioctl>
   2ed0c:	e037883a 	mov	sp,fp
   2ed10:	dfc00117 	ldw	ra,4(sp)
   2ed14:	df000017 	ldw	fp,0(sp)
   2ed18:	dec00204 	addi	sp,sp,8
   2ed1c:	f800283a 	ret

0002ed20 <altera_avalon_jtag_uart_init>:
   2ed20:	defffa04 	addi	sp,sp,-24
   2ed24:	dfc00515 	stw	ra,20(sp)
   2ed28:	df000415 	stw	fp,16(sp)
   2ed2c:	df000404 	addi	fp,sp,16
   2ed30:	e13fff15 	stw	r4,-4(fp)
   2ed34:	e17ffe15 	stw	r5,-8(fp)
   2ed38:	e1bffd15 	stw	r6,-12(fp)
   2ed3c:	e0bfff17 	ldw	r2,-4(fp)
   2ed40:	00c00044 	movi	r3,1
   2ed44:	10c00815 	stw	r3,32(r2)
   2ed48:	e0bfff17 	ldw	r2,-4(fp)
   2ed4c:	10800017 	ldw	r2,0(r2)
   2ed50:	10800104 	addi	r2,r2,4
   2ed54:	1007883a 	mov	r3,r2
   2ed58:	e0bfff17 	ldw	r2,-4(fp)
   2ed5c:	10800817 	ldw	r2,32(r2)
   2ed60:	18800035 	stwio	r2,0(r3)
   2ed64:	e0bffe17 	ldw	r2,-8(fp)
   2ed68:	e0fffd17 	ldw	r3,-12(fp)
   2ed6c:	d8000015 	stw	zero,0(sp)
   2ed70:	e1ffff17 	ldw	r7,-4(fp)
   2ed74:	018000f4 	movhi	r6,3
   2ed78:	31bb7804 	addi	r6,r6,-4640
   2ed7c:	180b883a 	mov	r5,r3
   2ed80:	1009883a 	mov	r4,r2
   2ed84:	002dfc40 	call	2dfc4 <alt_ic_isr_register>
   2ed88:	e0bfff17 	ldw	r2,-4(fp)
   2ed8c:	10000915 	stw	zero,36(r2)
   2ed90:	e0bfff17 	ldw	r2,-4(fp)
   2ed94:	10800204 	addi	r2,r2,8
   2ed98:	d0e65317 	ldw	r3,-26292(gp)
   2ed9c:	e1ffff17 	ldw	r7,-4(fp)
   2eda0:	018000f4 	movhi	r6,3
   2eda4:	31bbfd04 	addi	r6,r6,-4108
   2eda8:	180b883a 	mov	r5,r3
   2edac:	1009883a 	mov	r4,r2
   2edb0:	002f7400 	call	2f740 <alt_alarm_start>
   2edb4:	1000040e 	bge	r2,zero,2edc8 <altera_avalon_jtag_uart_init+0xa8>
   2edb8:	e0ffff17 	ldw	r3,-4(fp)
   2edbc:	00a00034 	movhi	r2,32768
   2edc0:	10bfffc4 	addi	r2,r2,-1
   2edc4:	18800115 	stw	r2,4(r3)
   2edc8:	0001883a 	nop
   2edcc:	e037883a 	mov	sp,fp
   2edd0:	dfc00117 	ldw	ra,4(sp)
   2edd4:	df000017 	ldw	fp,0(sp)
   2edd8:	dec00204 	addi	sp,sp,8
   2eddc:	f800283a 	ret

0002ede0 <altera_avalon_jtag_uart_irq>:
   2ede0:	defff704 	addi	sp,sp,-36
   2ede4:	df000815 	stw	fp,32(sp)
   2ede8:	df000804 	addi	fp,sp,32
   2edec:	e13ff815 	stw	r4,-32(fp)
   2edf0:	e0bff817 	ldw	r2,-32(fp)
   2edf4:	e0bffc15 	stw	r2,-16(fp)
   2edf8:	e0bffc17 	ldw	r2,-16(fp)
   2edfc:	10800017 	ldw	r2,0(r2)
   2ee00:	e0bffb15 	stw	r2,-20(fp)
   2ee04:	e03fff15 	stw	zero,-4(fp)
   2ee08:	e0bffb17 	ldw	r2,-20(fp)
   2ee0c:	10800104 	addi	r2,r2,4
   2ee10:	10800037 	ldwio	r2,0(r2)
   2ee14:	e0bffa15 	stw	r2,-24(fp)
   2ee18:	e0bffa17 	ldw	r2,-24(fp)
   2ee1c:	1080c00c 	andi	r2,r2,768
   2ee20:	10006e26 	beq	r2,zero,2efdc <altera_avalon_jtag_uart_irq+0x1fc>
   2ee24:	e0bffa17 	ldw	r2,-24(fp)
   2ee28:	1080400c 	andi	r2,r2,256
   2ee2c:	10003526 	beq	r2,zero,2ef04 <altera_avalon_jtag_uart_irq+0x124>
   2ee30:	00800074 	movhi	r2,1
   2ee34:	e0bffe15 	stw	r2,-8(fp)
   2ee38:	e0bffc17 	ldw	r2,-16(fp)
   2ee3c:	10800a17 	ldw	r2,40(r2)
   2ee40:	10800044 	addi	r2,r2,1
   2ee44:	1081ffcc 	andi	r2,r2,2047
   2ee48:	e0bff915 	stw	r2,-28(fp)
   2ee4c:	e0bffc17 	ldw	r2,-16(fp)
   2ee50:	10800b17 	ldw	r2,44(r2)
   2ee54:	e0fff917 	ldw	r3,-28(fp)
   2ee58:	18801526 	beq	r3,r2,2eeb0 <altera_avalon_jtag_uart_irq+0xd0>
   2ee5c:	e0bffb17 	ldw	r2,-20(fp)
   2ee60:	10800037 	ldwio	r2,0(r2)
   2ee64:	e0bffe15 	stw	r2,-8(fp)
   2ee68:	e0bffe17 	ldw	r2,-8(fp)
   2ee6c:	10a0000c 	andi	r2,r2,32768
   2ee70:	10001126 	beq	r2,zero,2eeb8 <altera_avalon_jtag_uart_irq+0xd8>
   2ee74:	e0bffc17 	ldw	r2,-16(fp)
   2ee78:	10800a17 	ldw	r2,40(r2)
   2ee7c:	e0fffe17 	ldw	r3,-8(fp)
   2ee80:	1809883a 	mov	r4,r3
   2ee84:	e0fffc17 	ldw	r3,-16(fp)
   2ee88:	1885883a 	add	r2,r3,r2
   2ee8c:	11000e05 	stb	r4,56(r2)
   2ee90:	e0bffc17 	ldw	r2,-16(fp)
   2ee94:	10800a17 	ldw	r2,40(r2)
   2ee98:	10800044 	addi	r2,r2,1
   2ee9c:	10c1ffcc 	andi	r3,r2,2047
   2eea0:	e0bffc17 	ldw	r2,-16(fp)
   2eea4:	10c00a15 	stw	r3,40(r2)
   2eea8:	0001883a 	nop
   2eeac:	003fe206 	br	2ee38 <altera_avalon_jtag_uart_irq+0x58>
   2eeb0:	0001883a 	nop
   2eeb4:	00000106 	br	2eebc <altera_avalon_jtag_uart_irq+0xdc>
   2eeb8:	0001883a 	nop
   2eebc:	e0bffe17 	ldw	r2,-8(fp)
   2eec0:	00ffffd4 	movui	r3,65535
   2eec4:	18800f2e 	bgeu	r3,r2,2ef04 <altera_avalon_jtag_uart_irq+0x124>
   2eec8:	e0bffc17 	ldw	r2,-16(fp)
   2eecc:	10c00817 	ldw	r3,32(r2)
   2eed0:	00bfff84 	movi	r2,-2
   2eed4:	1886703a 	and	r3,r3,r2
   2eed8:	e0bffc17 	ldw	r2,-16(fp)
   2eedc:	10c00815 	stw	r3,32(r2)
   2eee0:	e0bffb17 	ldw	r2,-20(fp)
   2eee4:	10800104 	addi	r2,r2,4
   2eee8:	1007883a 	mov	r3,r2
   2eeec:	e0bffc17 	ldw	r2,-16(fp)
   2eef0:	10800817 	ldw	r2,32(r2)
   2eef4:	18800035 	stwio	r2,0(r3)
   2eef8:	e0bffb17 	ldw	r2,-20(fp)
   2eefc:	10800104 	addi	r2,r2,4
   2ef00:	10800037 	ldwio	r2,0(r2)
   2ef04:	e0bffa17 	ldw	r2,-24(fp)
   2ef08:	1080800c 	andi	r2,r2,512
   2ef0c:	103fbe26 	beq	r2,zero,2ee08 <altera_avalon_jtag_uart_irq+0x28>
   2ef10:	e0bffa17 	ldw	r2,-24(fp)
   2ef14:	1004d43a 	srli	r2,r2,16
   2ef18:	e0bffd15 	stw	r2,-12(fp)
   2ef1c:	00001506 	br	2ef74 <altera_avalon_jtag_uart_irq+0x194>
   2ef20:	e0bffb17 	ldw	r2,-20(fp)
   2ef24:	e0fffc17 	ldw	r3,-16(fp)
   2ef28:	18c00d17 	ldw	r3,52(r3)
   2ef2c:	e13ffc17 	ldw	r4,-16(fp)
   2ef30:	20c7883a 	add	r3,r4,r3
   2ef34:	18c20e03 	ldbu	r3,2104(r3)
   2ef38:	18c03fcc 	andi	r3,r3,255
   2ef3c:	18c0201c 	xori	r3,r3,128
   2ef40:	18ffe004 	addi	r3,r3,-128
   2ef44:	10c00035 	stwio	r3,0(r2)
   2ef48:	e0bffc17 	ldw	r2,-16(fp)
   2ef4c:	10800d17 	ldw	r2,52(r2)
   2ef50:	10800044 	addi	r2,r2,1
   2ef54:	10c1ffcc 	andi	r3,r2,2047
   2ef58:	e0bffc17 	ldw	r2,-16(fp)
   2ef5c:	10c00d15 	stw	r3,52(r2)
   2ef60:	00800044 	movi	r2,1
   2ef64:	e0bfff15 	stw	r2,-4(fp)
   2ef68:	e0bffd17 	ldw	r2,-12(fp)
   2ef6c:	10bfffc4 	addi	r2,r2,-1
   2ef70:	e0bffd15 	stw	r2,-12(fp)
   2ef74:	e0bffd17 	ldw	r2,-12(fp)
   2ef78:	10000526 	beq	r2,zero,2ef90 <altera_avalon_jtag_uart_irq+0x1b0>
   2ef7c:	e0bffc17 	ldw	r2,-16(fp)
   2ef80:	10c00d17 	ldw	r3,52(r2)
   2ef84:	e0bffc17 	ldw	r2,-16(fp)
   2ef88:	10800c17 	ldw	r2,48(r2)
   2ef8c:	18bfe41e 	bne	r3,r2,2ef20 <altera_avalon_jtag_uart_irq+0x140>
   2ef90:	e0bffd17 	ldw	r2,-12(fp)
   2ef94:	103f9c26 	beq	r2,zero,2ee08 <altera_avalon_jtag_uart_irq+0x28>
   2ef98:	e0bffc17 	ldw	r2,-16(fp)
   2ef9c:	10c00817 	ldw	r3,32(r2)
   2efa0:	00bfff44 	movi	r2,-3
   2efa4:	1886703a 	and	r3,r3,r2
   2efa8:	e0bffc17 	ldw	r2,-16(fp)
   2efac:	10c00815 	stw	r3,32(r2)
   2efb0:	e0bffc17 	ldw	r2,-16(fp)
   2efb4:	10800017 	ldw	r2,0(r2)
   2efb8:	10800104 	addi	r2,r2,4
   2efbc:	1007883a 	mov	r3,r2
   2efc0:	e0bffc17 	ldw	r2,-16(fp)
   2efc4:	10800817 	ldw	r2,32(r2)
   2efc8:	18800035 	stwio	r2,0(r3)
   2efcc:	e0bffb17 	ldw	r2,-20(fp)
   2efd0:	10800104 	addi	r2,r2,4
   2efd4:	10800037 	ldwio	r2,0(r2)
   2efd8:	003f8b06 	br	2ee08 <altera_avalon_jtag_uart_irq+0x28>
   2efdc:	0001883a 	nop
   2efe0:	0001883a 	nop
   2efe4:	e037883a 	mov	sp,fp
   2efe8:	df000017 	ldw	fp,0(sp)
   2efec:	dec00104 	addi	sp,sp,4
   2eff0:	f800283a 	ret

0002eff4 <altera_avalon_jtag_uart_timeout>:
   2eff4:	defffc04 	addi	sp,sp,-16
   2eff8:	df000315 	stw	fp,12(sp)
   2effc:	df000304 	addi	fp,sp,12
   2f000:	e13ffd15 	stw	r4,-12(fp)
   2f004:	e0bffd17 	ldw	r2,-12(fp)
   2f008:	e0bfff15 	stw	r2,-4(fp)
   2f00c:	e0bfff17 	ldw	r2,-4(fp)
   2f010:	10800017 	ldw	r2,0(r2)
   2f014:	10800104 	addi	r2,r2,4
   2f018:	10800037 	ldwio	r2,0(r2)
   2f01c:	e0bffe15 	stw	r2,-8(fp)
   2f020:	e0bffe17 	ldw	r2,-8(fp)
   2f024:	1081000c 	andi	r2,r2,1024
   2f028:	10000b26 	beq	r2,zero,2f058 <altera_avalon_jtag_uart_timeout+0x64>
   2f02c:	e0bfff17 	ldw	r2,-4(fp)
   2f030:	10800017 	ldw	r2,0(r2)
   2f034:	10800104 	addi	r2,r2,4
   2f038:	1007883a 	mov	r3,r2
   2f03c:	e0bfff17 	ldw	r2,-4(fp)
   2f040:	10800817 	ldw	r2,32(r2)
   2f044:	10810014 	ori	r2,r2,1024
   2f048:	18800035 	stwio	r2,0(r3)
   2f04c:	e0bfff17 	ldw	r2,-4(fp)
   2f050:	10000915 	stw	zero,36(r2)
   2f054:	00000c06 	br	2f088 <altera_avalon_jtag_uart_timeout+0x94>
   2f058:	e0bfff17 	ldw	r2,-4(fp)
   2f05c:	10c00917 	ldw	r3,36(r2)
   2f060:	00a00034 	movhi	r2,32768
   2f064:	10bfff04 	addi	r2,r2,-4
   2f068:	10c00736 	bltu	r2,r3,2f088 <altera_avalon_jtag_uart_timeout+0x94>
   2f06c:	e0bfff17 	ldw	r2,-4(fp)
   2f070:	10800917 	ldw	r2,36(r2)
   2f074:	10c00044 	addi	r3,r2,1
   2f078:	e0bfff17 	ldw	r2,-4(fp)
   2f07c:	10c00915 	stw	r3,36(r2)
   2f080:	e0bfff17 	ldw	r2,-4(fp)
   2f084:	10800917 	ldw	r2,36(r2)
   2f088:	d0a65317 	ldw	r2,-26292(gp)
   2f08c:	e037883a 	mov	sp,fp
   2f090:	df000017 	ldw	fp,0(sp)
   2f094:	dec00104 	addi	sp,sp,4
   2f098:	f800283a 	ret

0002f09c <altera_avalon_jtag_uart_close>:
   2f09c:	defffd04 	addi	sp,sp,-12
   2f0a0:	df000215 	stw	fp,8(sp)
   2f0a4:	df000204 	addi	fp,sp,8
   2f0a8:	e13fff15 	stw	r4,-4(fp)
   2f0ac:	e17ffe15 	stw	r5,-8(fp)
   2f0b0:	00000506 	br	2f0c8 <altera_avalon_jtag_uart_close+0x2c>
   2f0b4:	e0bffe17 	ldw	r2,-8(fp)
   2f0b8:	1090000c 	andi	r2,r2,16384
   2f0bc:	10000226 	beq	r2,zero,2f0c8 <altera_avalon_jtag_uart_close+0x2c>
   2f0c0:	00bffd44 	movi	r2,-11
   2f0c4:	00000b06 	br	2f0f4 <altera_avalon_jtag_uart_close+0x58>
   2f0c8:	e0bfff17 	ldw	r2,-4(fp)
   2f0cc:	10c00d17 	ldw	r3,52(r2)
   2f0d0:	e0bfff17 	ldw	r2,-4(fp)
   2f0d4:	10800c17 	ldw	r2,48(r2)
   2f0d8:	18800526 	beq	r3,r2,2f0f0 <altera_avalon_jtag_uart_close+0x54>
   2f0dc:	e0bfff17 	ldw	r2,-4(fp)
   2f0e0:	10c00917 	ldw	r3,36(r2)
   2f0e4:	e0bfff17 	ldw	r2,-4(fp)
   2f0e8:	10800117 	ldw	r2,4(r2)
   2f0ec:	18bff136 	bltu	r3,r2,2f0b4 <altera_avalon_jtag_uart_close+0x18>
   2f0f0:	0005883a 	mov	r2,zero
   2f0f4:	e037883a 	mov	sp,fp
   2f0f8:	df000017 	ldw	fp,0(sp)
   2f0fc:	dec00104 	addi	sp,sp,4
   2f100:	f800283a 	ret

0002f104 <altera_avalon_jtag_uart_ioctl>:
   2f104:	defffa04 	addi	sp,sp,-24
   2f108:	df000515 	stw	fp,20(sp)
   2f10c:	df000504 	addi	fp,sp,20
   2f110:	e13ffd15 	stw	r4,-12(fp)
   2f114:	e17ffc15 	stw	r5,-16(fp)
   2f118:	e1bffb15 	stw	r6,-20(fp)
   2f11c:	00bff9c4 	movi	r2,-25
   2f120:	e0bfff15 	stw	r2,-4(fp)
   2f124:	e0bffc17 	ldw	r2,-16(fp)
   2f128:	109a8060 	cmpeqi	r2,r2,27137
   2f12c:	1000041e 	bne	r2,zero,2f140 <altera_avalon_jtag_uart_ioctl+0x3c>
   2f130:	e0bffc17 	ldw	r2,-16(fp)
   2f134:	109a80a0 	cmpeqi	r2,r2,27138
   2f138:	1000181e 	bne	r2,zero,2f19c <altera_avalon_jtag_uart_ioctl+0x98>
   2f13c:	00002906 	br	2f1e4 <altera_avalon_jtag_uart_ioctl+0xe0>
   2f140:	e0bffd17 	ldw	r2,-12(fp)
   2f144:	10c00117 	ldw	r3,4(r2)
   2f148:	00a00034 	movhi	r2,32768
   2f14c:	10bfffc4 	addi	r2,r2,-1
   2f150:	18802126 	beq	r3,r2,2f1d8 <altera_avalon_jtag_uart_ioctl+0xd4>
   2f154:	e0bffb17 	ldw	r2,-20(fp)
   2f158:	10800017 	ldw	r2,0(r2)
   2f15c:	e0bffe15 	stw	r2,-8(fp)
   2f160:	e0bffe17 	ldw	r2,-8(fp)
   2f164:	10800090 	cmplti	r2,r2,2
   2f168:	1000061e 	bne	r2,zero,2f184 <altera_avalon_jtag_uart_ioctl+0x80>
   2f16c:	e0fffe17 	ldw	r3,-8(fp)
   2f170:	00a00034 	movhi	r2,32768
   2f174:	10bfffc4 	addi	r2,r2,-1
   2f178:	18800226 	beq	r3,r2,2f184 <altera_avalon_jtag_uart_ioctl+0x80>
   2f17c:	e0bffe17 	ldw	r2,-8(fp)
   2f180:	00000206 	br	2f18c <altera_avalon_jtag_uart_ioctl+0x88>
   2f184:	00a00034 	movhi	r2,32768
   2f188:	10bfff84 	addi	r2,r2,-2
   2f18c:	e0fffd17 	ldw	r3,-12(fp)
   2f190:	18800115 	stw	r2,4(r3)
   2f194:	e03fff15 	stw	zero,-4(fp)
   2f198:	00000f06 	br	2f1d8 <altera_avalon_jtag_uart_ioctl+0xd4>
   2f19c:	e0bffd17 	ldw	r2,-12(fp)
   2f1a0:	10c00117 	ldw	r3,4(r2)
   2f1a4:	00a00034 	movhi	r2,32768
   2f1a8:	10bfffc4 	addi	r2,r2,-1
   2f1ac:	18800c26 	beq	r3,r2,2f1e0 <altera_avalon_jtag_uart_ioctl+0xdc>
   2f1b0:	e0bffd17 	ldw	r2,-12(fp)
   2f1b4:	10c00917 	ldw	r3,36(r2)
   2f1b8:	e0bffd17 	ldw	r2,-12(fp)
   2f1bc:	10800117 	ldw	r2,4(r2)
   2f1c0:	1885803a 	cmpltu	r2,r3,r2
   2f1c4:	10c03fcc 	andi	r3,r2,255
   2f1c8:	e0bffb17 	ldw	r2,-20(fp)
   2f1cc:	10c00015 	stw	r3,0(r2)
   2f1d0:	e03fff15 	stw	zero,-4(fp)
   2f1d4:	00000206 	br	2f1e0 <altera_avalon_jtag_uart_ioctl+0xdc>
   2f1d8:	0001883a 	nop
   2f1dc:	00000106 	br	2f1e4 <altera_avalon_jtag_uart_ioctl+0xe0>
   2f1e0:	0001883a 	nop
   2f1e4:	e0bfff17 	ldw	r2,-4(fp)
   2f1e8:	e037883a 	mov	sp,fp
   2f1ec:	df000017 	ldw	fp,0(sp)
   2f1f0:	dec00104 	addi	sp,sp,4
   2f1f4:	f800283a 	ret

0002f1f8 <altera_avalon_jtag_uart_read>:
   2f1f8:	defff304 	addi	sp,sp,-52
   2f1fc:	dfc00c15 	stw	ra,48(sp)
   2f200:	df000b15 	stw	fp,44(sp)
   2f204:	df000b04 	addi	fp,sp,44
   2f208:	e13ff815 	stw	r4,-32(fp)
   2f20c:	e17ff715 	stw	r5,-36(fp)
   2f210:	e1bff615 	stw	r6,-40(fp)
   2f214:	e1fff515 	stw	r7,-44(fp)
   2f218:	e0bff717 	ldw	r2,-36(fp)
   2f21c:	e0bfff15 	stw	r2,-4(fp)
   2f220:	00004706 	br	2f340 <altera_avalon_jtag_uart_read+0x148>
   2f224:	e0bff817 	ldw	r2,-32(fp)
   2f228:	10800a17 	ldw	r2,40(r2)
   2f22c:	e0bffd15 	stw	r2,-12(fp)
   2f230:	e0bff817 	ldw	r2,-32(fp)
   2f234:	10800b17 	ldw	r2,44(r2)
   2f238:	e0bffc15 	stw	r2,-16(fp)
   2f23c:	e0fffd17 	ldw	r3,-12(fp)
   2f240:	e0bffc17 	ldw	r2,-16(fp)
   2f244:	18800536 	bltu	r3,r2,2f25c <altera_avalon_jtag_uart_read+0x64>
   2f248:	e0fffd17 	ldw	r3,-12(fp)
   2f24c:	e0bffc17 	ldw	r2,-16(fp)
   2f250:	1885c83a 	sub	r2,r3,r2
   2f254:	e0bffe15 	stw	r2,-8(fp)
   2f258:	00000406 	br	2f26c <altera_avalon_jtag_uart_read+0x74>
   2f25c:	00c20004 	movi	r3,2048
   2f260:	e0bffc17 	ldw	r2,-16(fp)
   2f264:	1885c83a 	sub	r2,r3,r2
   2f268:	e0bffe15 	stw	r2,-8(fp)
   2f26c:	e0bffe17 	ldw	r2,-8(fp)
   2f270:	10001e26 	beq	r2,zero,2f2ec <altera_avalon_jtag_uart_read+0xf4>
   2f274:	e0fff617 	ldw	r3,-40(fp)
   2f278:	e0bffe17 	ldw	r2,-8(fp)
   2f27c:	1880022e 	bgeu	r3,r2,2f288 <altera_avalon_jtag_uart_read+0x90>
   2f280:	e0bff617 	ldw	r2,-40(fp)
   2f284:	e0bffe15 	stw	r2,-8(fp)
   2f288:	e0bff817 	ldw	r2,-32(fp)
   2f28c:	10c00e04 	addi	r3,r2,56
   2f290:	e0bffc17 	ldw	r2,-16(fp)
   2f294:	1885883a 	add	r2,r3,r2
   2f298:	e1bffe17 	ldw	r6,-8(fp)
   2f29c:	100b883a 	mov	r5,r2
   2f2a0:	e13fff17 	ldw	r4,-4(fp)
   2f2a4:	002539c0 	call	2539c <memcpy>
   2f2a8:	e0ffff17 	ldw	r3,-4(fp)
   2f2ac:	e0bffe17 	ldw	r2,-8(fp)
   2f2b0:	1885883a 	add	r2,r3,r2
   2f2b4:	e0bfff15 	stw	r2,-4(fp)
   2f2b8:	e0fff617 	ldw	r3,-40(fp)
   2f2bc:	e0bffe17 	ldw	r2,-8(fp)
   2f2c0:	1885c83a 	sub	r2,r3,r2
   2f2c4:	e0bff615 	stw	r2,-40(fp)
   2f2c8:	e0fffc17 	ldw	r3,-16(fp)
   2f2cc:	e0bffe17 	ldw	r2,-8(fp)
   2f2d0:	1885883a 	add	r2,r3,r2
   2f2d4:	10c1ffcc 	andi	r3,r2,2047
   2f2d8:	e0bff817 	ldw	r2,-32(fp)
   2f2dc:	10c00b15 	stw	r3,44(r2)
   2f2e0:	e0bff617 	ldw	r2,-40(fp)
   2f2e4:	00bfcf16 	blt	zero,r2,2f224 <altera_avalon_jtag_uart_read+0x2c>
   2f2e8:	00000106 	br	2f2f0 <altera_avalon_jtag_uart_read+0xf8>
   2f2ec:	0001883a 	nop
   2f2f0:	e0ffff17 	ldw	r3,-4(fp)
   2f2f4:	e0bff717 	ldw	r2,-36(fp)
   2f2f8:	1880141e 	bne	r3,r2,2f34c <altera_avalon_jtag_uart_read+0x154>
   2f2fc:	e0bff517 	ldw	r2,-44(fp)
   2f300:	1090000c 	andi	r2,r2,16384
   2f304:	1000131e 	bne	r2,zero,2f354 <altera_avalon_jtag_uart_read+0x15c>
   2f308:	0001883a 	nop
   2f30c:	e0bff817 	ldw	r2,-32(fp)
   2f310:	10800a17 	ldw	r2,40(r2)
   2f314:	e0fffd17 	ldw	r3,-12(fp)
   2f318:	1880051e 	bne	r3,r2,2f330 <altera_avalon_jtag_uart_read+0x138>
   2f31c:	e0bff817 	ldw	r2,-32(fp)
   2f320:	10c00917 	ldw	r3,36(r2)
   2f324:	e0bff817 	ldw	r2,-32(fp)
   2f328:	10800117 	ldw	r2,4(r2)
   2f32c:	18bff736 	bltu	r3,r2,2f30c <altera_avalon_jtag_uart_read+0x114>
   2f330:	e0bff817 	ldw	r2,-32(fp)
   2f334:	10800a17 	ldw	r2,40(r2)
   2f338:	e0fffd17 	ldw	r3,-12(fp)
   2f33c:	18800726 	beq	r3,r2,2f35c <altera_avalon_jtag_uart_read+0x164>
   2f340:	e0bff617 	ldw	r2,-40(fp)
   2f344:	00bfb716 	blt	zero,r2,2f224 <altera_avalon_jtag_uart_read+0x2c>
   2f348:	00000506 	br	2f360 <altera_avalon_jtag_uart_read+0x168>
   2f34c:	0001883a 	nop
   2f350:	00000306 	br	2f360 <altera_avalon_jtag_uart_read+0x168>
   2f354:	0001883a 	nop
   2f358:	00000106 	br	2f360 <altera_avalon_jtag_uart_read+0x168>
   2f35c:	0001883a 	nop
   2f360:	e0ffff17 	ldw	r3,-4(fp)
   2f364:	e0bff717 	ldw	r2,-36(fp)
   2f368:	18801926 	beq	r3,r2,2f3d0 <altera_avalon_jtag_uart_read+0x1d8>
   2f36c:	0005303a 	rdctl	r2,status
   2f370:	e0bff915 	stw	r2,-28(fp)
   2f374:	e0fff917 	ldw	r3,-28(fp)
   2f378:	00bfff84 	movi	r2,-2
   2f37c:	1884703a 	and	r2,r3,r2
   2f380:	1001703a 	wrctl	status,r2
   2f384:	e0bff917 	ldw	r2,-28(fp)
   2f388:	e0bffb15 	stw	r2,-20(fp)
   2f38c:	e0bff817 	ldw	r2,-32(fp)
   2f390:	10800817 	ldw	r2,32(r2)
   2f394:	10c00054 	ori	r3,r2,1
   2f398:	e0bff817 	ldw	r2,-32(fp)
   2f39c:	10c00815 	stw	r3,32(r2)
   2f3a0:	e0bff817 	ldw	r2,-32(fp)
   2f3a4:	10800017 	ldw	r2,0(r2)
   2f3a8:	10800104 	addi	r2,r2,4
   2f3ac:	1007883a 	mov	r3,r2
   2f3b0:	e0bff817 	ldw	r2,-32(fp)
   2f3b4:	10800817 	ldw	r2,32(r2)
   2f3b8:	18800035 	stwio	r2,0(r3)
   2f3bc:	e0bffb17 	ldw	r2,-20(fp)
   2f3c0:	e0bffa15 	stw	r2,-24(fp)
   2f3c4:	e0bffa17 	ldw	r2,-24(fp)
   2f3c8:	1001703a 	wrctl	status,r2
   2f3cc:	0001883a 	nop
   2f3d0:	e0ffff17 	ldw	r3,-4(fp)
   2f3d4:	e0bff717 	ldw	r2,-36(fp)
   2f3d8:	18800426 	beq	r3,r2,2f3ec <altera_avalon_jtag_uart_read+0x1f4>
   2f3dc:	e0ffff17 	ldw	r3,-4(fp)
   2f3e0:	e0bff717 	ldw	r2,-36(fp)
   2f3e4:	1885c83a 	sub	r2,r3,r2
   2f3e8:	00000606 	br	2f404 <altera_avalon_jtag_uart_read+0x20c>
   2f3ec:	e0bff517 	ldw	r2,-44(fp)
   2f3f0:	1090000c 	andi	r2,r2,16384
   2f3f4:	10000226 	beq	r2,zero,2f400 <altera_avalon_jtag_uart_read+0x208>
   2f3f8:	00bffd44 	movi	r2,-11
   2f3fc:	00000106 	br	2f404 <altera_avalon_jtag_uart_read+0x20c>
   2f400:	00bffec4 	movi	r2,-5
   2f404:	e037883a 	mov	sp,fp
   2f408:	dfc00117 	ldw	ra,4(sp)
   2f40c:	df000017 	ldw	fp,0(sp)
   2f410:	dec00204 	addi	sp,sp,8
   2f414:	f800283a 	ret

0002f418 <altera_avalon_jtag_uart_write>:
   2f418:	defff304 	addi	sp,sp,-52
   2f41c:	dfc00c15 	stw	ra,48(sp)
   2f420:	df000b15 	stw	fp,44(sp)
   2f424:	df000b04 	addi	fp,sp,44
   2f428:	e13ff815 	stw	r4,-32(fp)
   2f42c:	e17ff715 	stw	r5,-36(fp)
   2f430:	e1bff615 	stw	r6,-40(fp)
   2f434:	e1fff515 	stw	r7,-44(fp)
   2f438:	e03fff15 	stw	zero,-4(fp)
   2f43c:	e0bff717 	ldw	r2,-36(fp)
   2f440:	e0bffd15 	stw	r2,-12(fp)
   2f444:	00003706 	br	2f524 <altera_avalon_jtag_uart_write+0x10c>
   2f448:	e0bff817 	ldw	r2,-32(fp)
   2f44c:	10800c17 	ldw	r2,48(r2)
   2f450:	e0bffc15 	stw	r2,-16(fp)
   2f454:	e0bff817 	ldw	r2,-32(fp)
   2f458:	10800d17 	ldw	r2,52(r2)
   2f45c:	e0bfff15 	stw	r2,-4(fp)
   2f460:	e0fffc17 	ldw	r3,-16(fp)
   2f464:	e0bfff17 	ldw	r2,-4(fp)
   2f468:	1880062e 	bgeu	r3,r2,2f484 <altera_avalon_jtag_uart_write+0x6c>
   2f46c:	e0ffff17 	ldw	r3,-4(fp)
   2f470:	e0bffc17 	ldw	r2,-16(fp)
   2f474:	1885c83a 	sub	r2,r3,r2
   2f478:	10bfffc4 	addi	r2,r2,-1
   2f47c:	e0bffe15 	stw	r2,-8(fp)
   2f480:	00000b06 	br	2f4b0 <altera_avalon_jtag_uart_write+0x98>
   2f484:	e0bfff17 	ldw	r2,-4(fp)
   2f488:	10000526 	beq	r2,zero,2f4a0 <altera_avalon_jtag_uart_write+0x88>
   2f48c:	00c20004 	movi	r3,2048
   2f490:	e0bffc17 	ldw	r2,-16(fp)
   2f494:	1885c83a 	sub	r2,r3,r2
   2f498:	e0bffe15 	stw	r2,-8(fp)
   2f49c:	00000406 	br	2f4b0 <altera_avalon_jtag_uart_write+0x98>
   2f4a0:	00c1ffc4 	movi	r3,2047
   2f4a4:	e0bffc17 	ldw	r2,-16(fp)
   2f4a8:	1885c83a 	sub	r2,r3,r2
   2f4ac:	e0bffe15 	stw	r2,-8(fp)
   2f4b0:	e0bffe17 	ldw	r2,-8(fp)
   2f4b4:	10001e26 	beq	r2,zero,2f530 <altera_avalon_jtag_uart_write+0x118>
   2f4b8:	e0fff617 	ldw	r3,-40(fp)
   2f4bc:	e0bffe17 	ldw	r2,-8(fp)
   2f4c0:	1880022e 	bgeu	r3,r2,2f4cc <altera_avalon_jtag_uart_write+0xb4>
   2f4c4:	e0bff617 	ldw	r2,-40(fp)
   2f4c8:	e0bffe15 	stw	r2,-8(fp)
   2f4cc:	e0bff817 	ldw	r2,-32(fp)
   2f4d0:	10c20e04 	addi	r3,r2,2104
   2f4d4:	e0bffc17 	ldw	r2,-16(fp)
   2f4d8:	1885883a 	add	r2,r3,r2
   2f4dc:	e1bffe17 	ldw	r6,-8(fp)
   2f4e0:	e17ff717 	ldw	r5,-36(fp)
   2f4e4:	1009883a 	mov	r4,r2
   2f4e8:	002539c0 	call	2539c <memcpy>
   2f4ec:	e0fff717 	ldw	r3,-36(fp)
   2f4f0:	e0bffe17 	ldw	r2,-8(fp)
   2f4f4:	1885883a 	add	r2,r3,r2
   2f4f8:	e0bff715 	stw	r2,-36(fp)
   2f4fc:	e0fff617 	ldw	r3,-40(fp)
   2f500:	e0bffe17 	ldw	r2,-8(fp)
   2f504:	1885c83a 	sub	r2,r3,r2
   2f508:	e0bff615 	stw	r2,-40(fp)
   2f50c:	e0fffc17 	ldw	r3,-16(fp)
   2f510:	e0bffe17 	ldw	r2,-8(fp)
   2f514:	1885883a 	add	r2,r3,r2
   2f518:	10c1ffcc 	andi	r3,r2,2047
   2f51c:	e0bff817 	ldw	r2,-32(fp)
   2f520:	10c00c15 	stw	r3,48(r2)
   2f524:	e0bff617 	ldw	r2,-40(fp)
   2f528:	00bfc716 	blt	zero,r2,2f448 <altera_avalon_jtag_uart_write+0x30>
   2f52c:	00000106 	br	2f534 <altera_avalon_jtag_uart_write+0x11c>
   2f530:	0001883a 	nop
   2f534:	0005303a 	rdctl	r2,status
   2f538:	e0bff915 	stw	r2,-28(fp)
   2f53c:	e0fff917 	ldw	r3,-28(fp)
   2f540:	00bfff84 	movi	r2,-2
   2f544:	1884703a 	and	r2,r3,r2
   2f548:	1001703a 	wrctl	status,r2
   2f54c:	e0bff917 	ldw	r2,-28(fp)
   2f550:	e0bffb15 	stw	r2,-20(fp)
   2f554:	e0bff817 	ldw	r2,-32(fp)
   2f558:	10800817 	ldw	r2,32(r2)
   2f55c:	10c00094 	ori	r3,r2,2
   2f560:	e0bff817 	ldw	r2,-32(fp)
   2f564:	10c00815 	stw	r3,32(r2)
   2f568:	e0bff817 	ldw	r2,-32(fp)
   2f56c:	10800017 	ldw	r2,0(r2)
   2f570:	10800104 	addi	r2,r2,4
   2f574:	1007883a 	mov	r3,r2
   2f578:	e0bff817 	ldw	r2,-32(fp)
   2f57c:	10800817 	ldw	r2,32(r2)
   2f580:	18800035 	stwio	r2,0(r3)
   2f584:	e0bffb17 	ldw	r2,-20(fp)
   2f588:	e0bffa15 	stw	r2,-24(fp)
   2f58c:	e0bffa17 	ldw	r2,-24(fp)
   2f590:	1001703a 	wrctl	status,r2
   2f594:	0001883a 	nop
   2f598:	e0bff617 	ldw	r2,-40(fp)
   2f59c:	0080100e 	bge	zero,r2,2f5e0 <altera_avalon_jtag_uart_write+0x1c8>
   2f5a0:	e0bff517 	ldw	r2,-44(fp)
   2f5a4:	1090000c 	andi	r2,r2,16384
   2f5a8:	1000101e 	bne	r2,zero,2f5ec <altera_avalon_jtag_uart_write+0x1d4>
   2f5ac:	0001883a 	nop
   2f5b0:	e0bff817 	ldw	r2,-32(fp)
   2f5b4:	10800d17 	ldw	r2,52(r2)
   2f5b8:	e0ffff17 	ldw	r3,-4(fp)
   2f5bc:	1880051e 	bne	r3,r2,2f5d4 <altera_avalon_jtag_uart_write+0x1bc>
   2f5c0:	e0bff817 	ldw	r2,-32(fp)
   2f5c4:	10c00917 	ldw	r3,36(r2)
   2f5c8:	e0bff817 	ldw	r2,-32(fp)
   2f5cc:	10800117 	ldw	r2,4(r2)
   2f5d0:	18bff736 	bltu	r3,r2,2f5b0 <altera_avalon_jtag_uart_write+0x198>
   2f5d4:	e0bff817 	ldw	r2,-32(fp)
   2f5d8:	10800917 	ldw	r2,36(r2)
   2f5dc:	1000051e 	bne	r2,zero,2f5f4 <altera_avalon_jtag_uart_write+0x1dc>
   2f5e0:	e0bff617 	ldw	r2,-40(fp)
   2f5e4:	00bfcf16 	blt	zero,r2,2f524 <altera_avalon_jtag_uart_write+0x10c>
   2f5e8:	00000306 	br	2f5f8 <altera_avalon_jtag_uart_write+0x1e0>
   2f5ec:	0001883a 	nop
   2f5f0:	00000106 	br	2f5f8 <altera_avalon_jtag_uart_write+0x1e0>
   2f5f4:	0001883a 	nop
   2f5f8:	e0fff717 	ldw	r3,-36(fp)
   2f5fc:	e0bffd17 	ldw	r2,-12(fp)
   2f600:	18800426 	beq	r3,r2,2f614 <altera_avalon_jtag_uart_write+0x1fc>
   2f604:	e0fff717 	ldw	r3,-36(fp)
   2f608:	e0bffd17 	ldw	r2,-12(fp)
   2f60c:	1885c83a 	sub	r2,r3,r2
   2f610:	00000606 	br	2f62c <altera_avalon_jtag_uart_write+0x214>
   2f614:	e0bff517 	ldw	r2,-44(fp)
   2f618:	1090000c 	andi	r2,r2,16384
   2f61c:	10000226 	beq	r2,zero,2f628 <altera_avalon_jtag_uart_write+0x210>
   2f620:	00bffd44 	movi	r2,-11
   2f624:	00000106 	br	2f62c <altera_avalon_jtag_uart_write+0x214>
   2f628:	00bffec4 	movi	r2,-5
   2f62c:	e037883a 	mov	sp,fp
   2f630:	dfc00117 	ldw	ra,4(sp)
   2f634:	df000017 	ldw	fp,0(sp)
   2f638:	dec00204 	addi	sp,sp,8
   2f63c:	f800283a 	ret

0002f640 <alt_avalon_timer_sc_irq>:
   2f640:	defffa04 	addi	sp,sp,-24
   2f644:	dfc00515 	stw	ra,20(sp)
   2f648:	df000415 	stw	fp,16(sp)
   2f64c:	df000404 	addi	fp,sp,16
   2f650:	e13ffc15 	stw	r4,-16(fp)
   2f654:	0007883a 	mov	r3,zero
   2f658:	e0bffc17 	ldw	r2,-16(fp)
   2f65c:	10c00035 	stwio	r3,0(r2)
   2f660:	e0bffc17 	ldw	r2,-16(fp)
   2f664:	10800104 	addi	r2,r2,4
   2f668:	10800037 	ldwio	r2,0(r2)
   2f66c:	0005303a 	rdctl	r2,status
   2f670:	e0bffd15 	stw	r2,-12(fp)
   2f674:	e0fffd17 	ldw	r3,-12(fp)
   2f678:	00bfff84 	movi	r2,-2
   2f67c:	1884703a 	and	r2,r3,r2
   2f680:	1001703a 	wrctl	status,r2
   2f684:	e0bffd17 	ldw	r2,-12(fp)
   2f688:	e0bfff15 	stw	r2,-4(fp)
   2f68c:	002ff6c0 	call	2ff6c <alt_tick>
   2f690:	e0bfff17 	ldw	r2,-4(fp)
   2f694:	e0bffe15 	stw	r2,-8(fp)
   2f698:	e0bffe17 	ldw	r2,-8(fp)
   2f69c:	1001703a 	wrctl	status,r2
   2f6a0:	0001883a 	nop
   2f6a4:	0001883a 	nop
   2f6a8:	e037883a 	mov	sp,fp
   2f6ac:	dfc00117 	ldw	ra,4(sp)
   2f6b0:	df000017 	ldw	fp,0(sp)
   2f6b4:	dec00204 	addi	sp,sp,8
   2f6b8:	f800283a 	ret

0002f6bc <alt_avalon_timer_sc_init>:
   2f6bc:	defff804 	addi	sp,sp,-32
   2f6c0:	dfc00715 	stw	ra,28(sp)
   2f6c4:	df000615 	stw	fp,24(sp)
   2f6c8:	df000604 	addi	fp,sp,24
   2f6cc:	e13ffe15 	stw	r4,-8(fp)
   2f6d0:	e17ffd15 	stw	r5,-12(fp)
   2f6d4:	e1bffc15 	stw	r6,-16(fp)
   2f6d8:	e1fffb15 	stw	r7,-20(fp)
   2f6dc:	e0bffb17 	ldw	r2,-20(fp)
   2f6e0:	e0bfff15 	stw	r2,-4(fp)
   2f6e4:	d0a65317 	ldw	r2,-26292(gp)
   2f6e8:	1000031e 	bne	r2,zero,2f6f8 <alt_avalon_timer_sc_init+0x3c>
   2f6ec:	e0bfff17 	ldw	r2,-4(fp)
   2f6f0:	d0a65315 	stw	r2,-26292(gp)
   2f6f4:	00000106 	br	2f6fc <alt_avalon_timer_sc_init+0x40>
   2f6f8:	0001883a 	nop
   2f6fc:	e0bffe17 	ldw	r2,-8(fp)
   2f700:	10800104 	addi	r2,r2,4
   2f704:	00c001c4 	movi	r3,7
   2f708:	10c00035 	stwio	r3,0(r2)
   2f70c:	d8000015 	stw	zero,0(sp)
   2f710:	e1fffe17 	ldw	r7,-8(fp)
   2f714:	018000f4 	movhi	r6,3
   2f718:	31bd9004 	addi	r6,r6,-2496
   2f71c:	e17ffc17 	ldw	r5,-16(fp)
   2f720:	e13ffd17 	ldw	r4,-12(fp)
   2f724:	002dfc40 	call	2dfc4 <alt_ic_isr_register>
   2f728:	0001883a 	nop
   2f72c:	e037883a 	mov	sp,fp
   2f730:	dfc00117 	ldw	ra,4(sp)
   2f734:	df000017 	ldw	fp,0(sp)
   2f738:	dec00204 	addi	sp,sp,8
   2f73c:	f800283a 	ret

0002f740 <alt_alarm_start>:
   2f740:	defff404 	addi	sp,sp,-48
   2f744:	df000b15 	stw	fp,44(sp)
   2f748:	df000b04 	addi	fp,sp,44
   2f74c:	e13ff815 	stw	r4,-32(fp)
   2f750:	e17ff715 	stw	r5,-36(fp)
   2f754:	e1bff615 	stw	r6,-40(fp)
   2f758:	e1fff515 	stw	r7,-44(fp)
   2f75c:	e03ffe15 	stw	zero,-8(fp)
   2f760:	e03fff15 	stw	zero,-4(fp)
   2f764:	d0a65317 	ldw	r2,-26292(gp)
   2f768:	10004826 	beq	r2,zero,2f88c <alt_alarm_start+0x14c>
   2f76c:	e0bff817 	ldw	r2,-32(fp)
   2f770:	10004426 	beq	r2,zero,2f884 <alt_alarm_start+0x144>
   2f774:	e0bff817 	ldw	r2,-32(fp)
   2f778:	e0fff617 	ldw	r3,-40(fp)
   2f77c:	10c00415 	stw	r3,16(r2)
   2f780:	e0bff817 	ldw	r2,-32(fp)
   2f784:	e0fff517 	ldw	r3,-44(fp)
   2f788:	10c00515 	stw	r3,20(r2)
   2f78c:	0005303a 	rdctl	r2,status
   2f790:	e0bff915 	stw	r2,-28(fp)
   2f794:	e0fff917 	ldw	r3,-28(fp)
   2f798:	00bfff84 	movi	r2,-2
   2f79c:	1884703a 	and	r2,r3,r2
   2f7a0:	1001703a 	wrctl	status,r2
   2f7a4:	e0bff917 	ldw	r2,-28(fp)
   2f7a8:	e0bffd15 	stw	r2,-12(fp)
   2f7ac:	d0a65417 	ldw	r2,-26288(gp)
   2f7b0:	d0e65517 	ldw	r3,-26284(gp)
   2f7b4:	e0bffe15 	stw	r2,-8(fp)
   2f7b8:	e0ffff15 	stw	r3,-4(fp)
   2f7bc:	e0bff717 	ldw	r2,-36(fp)
   2f7c0:	1011883a 	mov	r8,r2
   2f7c4:	0013883a 	mov	r9,zero
   2f7c8:	e13ffe17 	ldw	r4,-8(fp)
   2f7cc:	e17fff17 	ldw	r5,-4(fp)
   2f7d0:	4105883a 	add	r2,r8,r4
   2f7d4:	120d803a 	cmpltu	r6,r2,r8
   2f7d8:	4947883a 	add	r3,r9,r5
   2f7dc:	30c9883a 	add	r4,r6,r3
   2f7e0:	2007883a 	mov	r3,r4
   2f7e4:	1009883a 	mov	r4,r2
   2f7e8:	180b883a 	mov	r5,r3
   2f7ec:	01800044 	movi	r6,1
   2f7f0:	000f883a 	mov	r7,zero
   2f7f4:	2185883a 	add	r2,r4,r6
   2f7f8:	1111803a 	cmpltu	r8,r2,r4
   2f7fc:	29c7883a 	add	r3,r5,r7
   2f800:	40c9883a 	add	r4,r8,r3
   2f804:	2007883a 	mov	r3,r4
   2f808:	1009883a 	mov	r4,r2
   2f80c:	180b883a 	mov	r5,r3
   2f810:	e0bff817 	ldw	r2,-32(fp)
   2f814:	11000215 	stw	r4,8(r2)
   2f818:	11400315 	stw	r5,12(r2)
   2f81c:	e0bff817 	ldw	r2,-32(fp)
   2f820:	d0e00c04 	addi	r3,gp,-32720
   2f824:	e0fffb15 	stw	r3,-20(fp)
   2f828:	e0bffa15 	stw	r2,-24(fp)
   2f82c:	e0bffa17 	ldw	r2,-24(fp)
   2f830:	e0fffb17 	ldw	r3,-20(fp)
   2f834:	10c00115 	stw	r3,4(r2)
   2f838:	e0bffb17 	ldw	r2,-20(fp)
   2f83c:	10c00017 	ldw	r3,0(r2)
   2f840:	e0bffa17 	ldw	r2,-24(fp)
   2f844:	10c00015 	stw	r3,0(r2)
   2f848:	e0bffb17 	ldw	r2,-20(fp)
   2f84c:	10800017 	ldw	r2,0(r2)
   2f850:	e0fffa17 	ldw	r3,-24(fp)
   2f854:	10c00115 	stw	r3,4(r2)
   2f858:	e0bffb17 	ldw	r2,-20(fp)
   2f85c:	e0fffa17 	ldw	r3,-24(fp)
   2f860:	10c00015 	stw	r3,0(r2)
   2f864:	0001883a 	nop
   2f868:	e0bffd17 	ldw	r2,-12(fp)
   2f86c:	e0bffc15 	stw	r2,-16(fp)
   2f870:	e0bffc17 	ldw	r2,-16(fp)
   2f874:	1001703a 	wrctl	status,r2
   2f878:	0001883a 	nop
   2f87c:	0005883a 	mov	r2,zero
   2f880:	00000306 	br	2f890 <alt_alarm_start+0x150>
   2f884:	00bffa84 	movi	r2,-22
   2f888:	00000106 	br	2f890 <alt_alarm_start+0x150>
   2f88c:	00bfde84 	movi	r2,-134
   2f890:	e037883a 	mov	sp,fp
   2f894:	df000017 	ldw	fp,0(sp)
   2f898:	dec00104 	addi	sp,sp,4
   2f89c:	f800283a 	ret

0002f8a0 <alt_dcache_flush_all>:
   2f8a0:	deffff04 	addi	sp,sp,-4
   2f8a4:	df000015 	stw	fp,0(sp)
   2f8a8:	d839883a 	mov	fp,sp
   2f8ac:	0001883a 	nop
   2f8b0:	e037883a 	mov	sp,fp
   2f8b4:	df000017 	ldw	fp,0(sp)
   2f8b8:	dec00104 	addi	sp,sp,4
   2f8bc:	f800283a 	ret

0002f8c0 <alt_get_errno>:
   2f8c0:	defffe04 	addi	sp,sp,-8
   2f8c4:	dfc00115 	stw	ra,4(sp)
   2f8c8:	df000015 	stw	fp,0(sp)
   2f8cc:	d839883a 	mov	fp,sp
   2f8d0:	d0a00917 	ldw	r2,-32732(gp)
   2f8d4:	10000326 	beq	r2,zero,2f8e4 <alt_get_errno+0x24>
   2f8d8:	d0a00917 	ldw	r2,-32732(gp)
   2f8dc:	103ee83a 	callr	r2
   2f8e0:	00000106 	br	2f8e8 <alt_get_errno+0x28>
   2f8e4:	d0a64804 	addi	r2,gp,-26336
   2f8e8:	e037883a 	mov	sp,fp
   2f8ec:	dfc00117 	ldw	ra,4(sp)
   2f8f0:	df000017 	ldw	fp,0(sp)
   2f8f4:	dec00204 	addi	sp,sp,8
   2f8f8:	f800283a 	ret

0002f8fc <alt_dev_llist_insert>:
   2f8fc:	defffa04 	addi	sp,sp,-24
   2f900:	dfc00515 	stw	ra,20(sp)
   2f904:	df000415 	stw	fp,16(sp)
   2f908:	df000404 	addi	fp,sp,16
   2f90c:	e13ffd15 	stw	r4,-12(fp)
   2f910:	e17ffc15 	stw	r5,-16(fp)
   2f914:	e0bffd17 	ldw	r2,-12(fp)
   2f918:	10000326 	beq	r2,zero,2f928 <alt_dev_llist_insert+0x2c>
   2f91c:	e0bffd17 	ldw	r2,-12(fp)
   2f920:	10800217 	ldw	r2,8(r2)
   2f924:	1000061e 	bne	r2,zero,2f940 <alt_dev_llist_insert+0x44>
   2f928:	002f8c00 	call	2f8c0 <alt_get_errno>
   2f92c:	1007883a 	mov	r3,r2
   2f930:	00800584 	movi	r2,22
   2f934:	18800015 	stw	r2,0(r3)
   2f938:	00bffa84 	movi	r2,-22
   2f93c:	00001406 	br	2f990 <alt_dev_llist_insert+0x94>
   2f940:	e0bffd17 	ldw	r2,-12(fp)
   2f944:	e0fffc17 	ldw	r3,-16(fp)
   2f948:	e0ffff15 	stw	r3,-4(fp)
   2f94c:	e0bffe15 	stw	r2,-8(fp)
   2f950:	e0bffe17 	ldw	r2,-8(fp)
   2f954:	e0ffff17 	ldw	r3,-4(fp)
   2f958:	10c00115 	stw	r3,4(r2)
   2f95c:	e0bfff17 	ldw	r2,-4(fp)
   2f960:	10c00017 	ldw	r3,0(r2)
   2f964:	e0bffe17 	ldw	r2,-8(fp)
   2f968:	10c00015 	stw	r3,0(r2)
   2f96c:	e0bfff17 	ldw	r2,-4(fp)
   2f970:	10800017 	ldw	r2,0(r2)
   2f974:	e0fffe17 	ldw	r3,-8(fp)
   2f978:	10c00115 	stw	r3,4(r2)
   2f97c:	e0bfff17 	ldw	r2,-4(fp)
   2f980:	e0fffe17 	ldw	r3,-8(fp)
   2f984:	10c00015 	stw	r3,0(r2)
   2f988:	0001883a 	nop
   2f98c:	0005883a 	mov	r2,zero
   2f990:	e037883a 	mov	sp,fp
   2f994:	dfc00117 	ldw	ra,4(sp)
   2f998:	df000017 	ldw	fp,0(sp)
   2f99c:	dec00204 	addi	sp,sp,8
   2f9a0:	f800283a 	ret

0002f9a4 <_do_ctors>:
   2f9a4:	defffd04 	addi	sp,sp,-12
   2f9a8:	dfc00215 	stw	ra,8(sp)
   2f9ac:	df000115 	stw	fp,4(sp)
   2f9b0:	df000104 	addi	fp,sp,4
   2f9b4:	008000f4 	movhi	r2,3
   2f9b8:	10810a04 	addi	r2,r2,1064
   2f9bc:	e0bfff15 	stw	r2,-4(fp)
   2f9c0:	00000606 	br	2f9dc <_do_ctors+0x38>
   2f9c4:	e0bfff17 	ldw	r2,-4(fp)
   2f9c8:	10800017 	ldw	r2,0(r2)
   2f9cc:	103ee83a 	callr	r2
   2f9d0:	e0bfff17 	ldw	r2,-4(fp)
   2f9d4:	10bfff04 	addi	r2,r2,-4
   2f9d8:	e0bfff15 	stw	r2,-4(fp)
   2f9dc:	e0ffff17 	ldw	r3,-4(fp)
   2f9e0:	008000f4 	movhi	r2,3
   2f9e4:	10810b04 	addi	r2,r2,1068
   2f9e8:	18bff62e 	bgeu	r3,r2,2f9c4 <_do_ctors+0x20>
   2f9ec:	0001883a 	nop
   2f9f0:	0001883a 	nop
   2f9f4:	e037883a 	mov	sp,fp
   2f9f8:	dfc00117 	ldw	ra,4(sp)
   2f9fc:	df000017 	ldw	fp,0(sp)
   2fa00:	dec00204 	addi	sp,sp,8
   2fa04:	f800283a 	ret

0002fa08 <_do_dtors>:
   2fa08:	defffd04 	addi	sp,sp,-12
   2fa0c:	dfc00215 	stw	ra,8(sp)
   2fa10:	df000115 	stw	fp,4(sp)
   2fa14:	df000104 	addi	fp,sp,4
   2fa18:	008000f4 	movhi	r2,3
   2fa1c:	10810a04 	addi	r2,r2,1064
   2fa20:	e0bfff15 	stw	r2,-4(fp)
   2fa24:	00000606 	br	2fa40 <_do_dtors+0x38>
   2fa28:	e0bfff17 	ldw	r2,-4(fp)
   2fa2c:	10800017 	ldw	r2,0(r2)
   2fa30:	103ee83a 	callr	r2
   2fa34:	e0bfff17 	ldw	r2,-4(fp)
   2fa38:	10bfff04 	addi	r2,r2,-4
   2fa3c:	e0bfff15 	stw	r2,-4(fp)
   2fa40:	e0ffff17 	ldw	r3,-4(fp)
   2fa44:	008000f4 	movhi	r2,3
   2fa48:	10810b04 	addi	r2,r2,1068
   2fa4c:	18bff62e 	bgeu	r3,r2,2fa28 <_do_dtors+0x20>
   2fa50:	0001883a 	nop
   2fa54:	0001883a 	nop
   2fa58:	e037883a 	mov	sp,fp
   2fa5c:	dfc00117 	ldw	ra,4(sp)
   2fa60:	df000017 	ldw	fp,0(sp)
   2fa64:	dec00204 	addi	sp,sp,8
   2fa68:	f800283a 	ret

0002fa6c <alt_icache_flush_all>:
   2fa6c:	deffff04 	addi	sp,sp,-4
   2fa70:	df000015 	stw	fp,0(sp)
   2fa74:	d839883a 	mov	fp,sp
   2fa78:	0001883a 	nop
   2fa7c:	e037883a 	mov	sp,fp
   2fa80:	df000017 	ldw	fp,0(sp)
   2fa84:	dec00104 	addi	sp,sp,4
   2fa88:	f800283a 	ret

0002fa8c <alt_exception_cause_generated_bad_addr>:
   2fa8c:	defffe04 	addi	sp,sp,-8
   2fa90:	df000115 	stw	fp,4(sp)
   2fa94:	df000104 	addi	fp,sp,4
   2fa98:	e13fff15 	stw	r4,-4(fp)
   2fa9c:	e0bfff17 	ldw	r2,-4(fp)
   2faa0:	10bffe84 	addi	r2,r2,-6
   2faa4:	10c00428 	cmpgeui	r3,r2,16
   2faa8:	18c03fcc 	andi	r3,r3,255
   2faac:	18000f1e 	bne	r3,zero,2faec <alt_exception_cause_generated_bad_addr+0x60>
   2fab0:	00c00044 	movi	r3,1
   2fab4:	1884983a 	sll	r2,r3,r2
   2fab8:	10e2c8cc 	andi	r3,r2,35619
   2fabc:	1806c03a 	cmpne	r3,r3,zero
   2fac0:	18c03fcc 	andi	r3,r3,255
   2fac4:	1800051e 	bne	r3,zero,2fadc <alt_exception_cause_generated_bad_addr+0x50>
   2fac8:	1084100c 	andi	r2,r2,4160
   2facc:	1004c03a 	cmpne	r2,r2,zero
   2fad0:	10803fcc 	andi	r2,r2,255
   2fad4:	1000031e 	bne	r2,zero,2fae4 <alt_exception_cause_generated_bad_addr+0x58>
   2fad8:	00000406 	br	2faec <alt_exception_cause_generated_bad_addr+0x60>
   2fadc:	00800044 	movi	r2,1
   2fae0:	00000306 	br	2faf0 <alt_exception_cause_generated_bad_addr+0x64>
   2fae4:	0005883a 	mov	r2,zero
   2fae8:	00000106 	br	2faf0 <alt_exception_cause_generated_bad_addr+0x64>
   2faec:	0005883a 	mov	r2,zero
   2faf0:	e037883a 	mov	sp,fp
   2faf4:	df000017 	ldw	fp,0(sp)
   2faf8:	dec00104 	addi	sp,sp,4
   2fafc:	f800283a 	ret

0002fb00 <alt_open_fd>:
   2fb00:	defff904 	addi	sp,sp,-28
   2fb04:	dfc00615 	stw	ra,24(sp)
   2fb08:	df000515 	stw	fp,20(sp)
   2fb0c:	df000504 	addi	fp,sp,20
   2fb10:	e13ffe15 	stw	r4,-8(fp)
   2fb14:	e17ffd15 	stw	r5,-12(fp)
   2fb18:	e1bffc15 	stw	r6,-16(fp)
   2fb1c:	e1fffb15 	stw	r7,-20(fp)
   2fb20:	e1bffb17 	ldw	r6,-20(fp)
   2fb24:	e17ffc17 	ldw	r5,-16(fp)
   2fb28:	e13ffd17 	ldw	r4,-12(fp)
   2fb2c:	002fd680 	call	2fd68 <open>
   2fb30:	e0bfff15 	stw	r2,-4(fp)
   2fb34:	e0bfff17 	ldw	r2,-4(fp)
   2fb38:	10002016 	blt	r2,zero,2fbbc <alt_open_fd+0xbc>
   2fb3c:	e0ffff17 	ldw	r3,-4(fp)
   2fb40:	1805883a 	mov	r2,r3
   2fb44:	1085883a 	add	r2,r2,r2
   2fb48:	10c5883a 	add	r2,r2,r3
   2fb4c:	100490ba 	slli	r2,r2,2
   2fb50:	00c000f4 	movhi	r3,3
   2fb54:	10c7883a 	add	r3,r2,r3
   2fb58:	18c45417 	ldw	r3,4432(r3)
   2fb5c:	e0bffe17 	ldw	r2,-8(fp)
   2fb60:	10c00015 	stw	r3,0(r2)
   2fb64:	e0ffff17 	ldw	r3,-4(fp)
   2fb68:	1805883a 	mov	r2,r3
   2fb6c:	1085883a 	add	r2,r2,r2
   2fb70:	10c5883a 	add	r2,r2,r3
   2fb74:	100490ba 	slli	r2,r2,2
   2fb78:	00c000f4 	movhi	r3,3
   2fb7c:	10c7883a 	add	r3,r2,r3
   2fb80:	18c45517 	ldw	r3,4436(r3)
   2fb84:	e0bffe17 	ldw	r2,-8(fp)
   2fb88:	10c00115 	stw	r3,4(r2)
   2fb8c:	e0ffff17 	ldw	r3,-4(fp)
   2fb90:	1805883a 	mov	r2,r3
   2fb94:	1085883a 	add	r2,r2,r2
   2fb98:	10c5883a 	add	r2,r2,r3
   2fb9c:	100490ba 	slli	r2,r2,2
   2fba0:	00c000f4 	movhi	r3,3
   2fba4:	10c7883a 	add	r3,r2,r3
   2fba8:	18c45617 	ldw	r3,4440(r3)
   2fbac:	e0bffe17 	ldw	r2,-8(fp)
   2fbb0:	10c00215 	stw	r3,8(r2)
   2fbb4:	e13fff17 	ldw	r4,-4(fp)
   2fbb8:	002e8840 	call	2e884 <alt_release_fd>
   2fbbc:	0001883a 	nop
   2fbc0:	e037883a 	mov	sp,fp
   2fbc4:	dfc00117 	ldw	ra,4(sp)
   2fbc8:	df000017 	ldw	fp,0(sp)
   2fbcc:	dec00204 	addi	sp,sp,8
   2fbd0:	f800283a 	ret

0002fbd4 <alt_io_redirect>:
   2fbd4:	defffb04 	addi	sp,sp,-20
   2fbd8:	dfc00415 	stw	ra,16(sp)
   2fbdc:	df000315 	stw	fp,12(sp)
   2fbe0:	df000304 	addi	fp,sp,12
   2fbe4:	e13fff15 	stw	r4,-4(fp)
   2fbe8:	e17ffe15 	stw	r5,-8(fp)
   2fbec:	e1bffd15 	stw	r6,-12(fp)
   2fbf0:	01c07fc4 	movi	r7,511
   2fbf4:	01800044 	movi	r6,1
   2fbf8:	e17fff17 	ldw	r5,-4(fp)
   2fbfc:	010000f4 	movhi	r4,3
   2fc00:	21045704 	addi	r4,r4,4444
   2fc04:	002fb000 	call	2fb00 <alt_open_fd>
   2fc08:	01c07fc4 	movi	r7,511
   2fc0c:	000d883a 	mov	r6,zero
   2fc10:	e17ffe17 	ldw	r5,-8(fp)
   2fc14:	010000f4 	movhi	r4,3
   2fc18:	21045404 	addi	r4,r4,4432
   2fc1c:	002fb000 	call	2fb00 <alt_open_fd>
   2fc20:	01c07fc4 	movi	r7,511
   2fc24:	01800044 	movi	r6,1
   2fc28:	e17ffd17 	ldw	r5,-12(fp)
   2fc2c:	010000f4 	movhi	r4,3
   2fc30:	21045a04 	addi	r4,r4,4456
   2fc34:	002fb000 	call	2fb00 <alt_open_fd>
   2fc38:	0001883a 	nop
   2fc3c:	e037883a 	mov	sp,fp
   2fc40:	dfc00117 	ldw	ra,4(sp)
   2fc44:	df000017 	ldw	fp,0(sp)
   2fc48:	dec00204 	addi	sp,sp,8
   2fc4c:	f800283a 	ret

0002fc50 <alt_get_errno>:
   2fc50:	defffe04 	addi	sp,sp,-8
   2fc54:	dfc00115 	stw	ra,4(sp)
   2fc58:	df000015 	stw	fp,0(sp)
   2fc5c:	d839883a 	mov	fp,sp
   2fc60:	d0a00917 	ldw	r2,-32732(gp)
   2fc64:	10000326 	beq	r2,zero,2fc74 <alt_get_errno+0x24>
   2fc68:	d0a00917 	ldw	r2,-32732(gp)
   2fc6c:	103ee83a 	callr	r2
   2fc70:	00000106 	br	2fc78 <alt_get_errno+0x28>
   2fc74:	d0a64804 	addi	r2,gp,-26336
   2fc78:	e037883a 	mov	sp,fp
   2fc7c:	dfc00117 	ldw	ra,4(sp)
   2fc80:	df000017 	ldw	fp,0(sp)
   2fc84:	dec00204 	addi	sp,sp,8
   2fc88:	f800283a 	ret

0002fc8c <alt_file_locked>:
   2fc8c:	defffd04 	addi	sp,sp,-12
   2fc90:	df000215 	stw	fp,8(sp)
   2fc94:	df000204 	addi	fp,sp,8
   2fc98:	e13ffe15 	stw	r4,-8(fp)
   2fc9c:	e0bffe17 	ldw	r2,-8(fp)
   2fca0:	10800217 	ldw	r2,8(r2)
   2fca4:	10d00034 	orhi	r3,r2,16384
   2fca8:	e0bffe17 	ldw	r2,-8(fp)
   2fcac:	10c00215 	stw	r3,8(r2)
   2fcb0:	e03fff15 	stw	zero,-4(fp)
   2fcb4:	00002306 	br	2fd44 <alt_file_locked+0xb8>
   2fcb8:	e0ffff17 	ldw	r3,-4(fp)
   2fcbc:	1805883a 	mov	r2,r3
   2fcc0:	1085883a 	add	r2,r2,r2
   2fcc4:	10c5883a 	add	r2,r2,r3
   2fcc8:	100490ba 	slli	r2,r2,2
   2fccc:	00c000f4 	movhi	r3,3
   2fcd0:	10c7883a 	add	r3,r2,r3
   2fcd4:	18c45417 	ldw	r3,4432(r3)
   2fcd8:	e0bffe17 	ldw	r2,-8(fp)
   2fcdc:	10800017 	ldw	r2,0(r2)
   2fce0:	1880151e 	bne	r3,r2,2fd38 <alt_file_locked+0xac>
   2fce4:	e0ffff17 	ldw	r3,-4(fp)
   2fce8:	1805883a 	mov	r2,r3
   2fcec:	1085883a 	add	r2,r2,r2
   2fcf0:	10c5883a 	add	r2,r2,r3
   2fcf4:	100490ba 	slli	r2,r2,2
   2fcf8:	00c000f4 	movhi	r3,3
   2fcfc:	10c7883a 	add	r3,r2,r3
   2fd00:	18845617 	ldw	r2,4440(r3)
   2fd04:	10000c0e 	bge	r2,zero,2fd38 <alt_file_locked+0xac>
   2fd08:	e0ffff17 	ldw	r3,-4(fp)
   2fd0c:	1805883a 	mov	r2,r3
   2fd10:	1085883a 	add	r2,r2,r2
   2fd14:	10c5883a 	add	r2,r2,r3
   2fd18:	100490ba 	slli	r2,r2,2
   2fd1c:	00c000f4 	movhi	r3,3
   2fd20:	18c45404 	addi	r3,r3,4432
   2fd24:	10c5883a 	add	r2,r2,r3
   2fd28:	e0fffe17 	ldw	r3,-8(fp)
   2fd2c:	18800226 	beq	r3,r2,2fd38 <alt_file_locked+0xac>
   2fd30:	00bffcc4 	movi	r2,-13
   2fd34:	00000806 	br	2fd58 <alt_file_locked+0xcc>
   2fd38:	e0bfff17 	ldw	r2,-4(fp)
   2fd3c:	10800044 	addi	r2,r2,1
   2fd40:	e0bfff15 	stw	r2,-4(fp)
   2fd44:	d0a00817 	ldw	r2,-32736(gp)
   2fd48:	1007883a 	mov	r3,r2
   2fd4c:	e0bfff17 	ldw	r2,-4(fp)
   2fd50:	18bfd92e 	bgeu	r3,r2,2fcb8 <alt_file_locked+0x2c>
   2fd54:	0005883a 	mov	r2,zero
   2fd58:	e037883a 	mov	sp,fp
   2fd5c:	df000017 	ldw	fp,0(sp)
   2fd60:	dec00104 	addi	sp,sp,4
   2fd64:	f800283a 	ret

0002fd68 <open>:
   2fd68:	defff604 	addi	sp,sp,-40
   2fd6c:	dfc00915 	stw	ra,36(sp)
   2fd70:	df000815 	stw	fp,32(sp)
   2fd74:	df000804 	addi	fp,sp,32
   2fd78:	e13ffa15 	stw	r4,-24(fp)
   2fd7c:	e17ff915 	stw	r5,-28(fp)
   2fd80:	e1bff815 	stw	r6,-32(fp)
   2fd84:	00bfffc4 	movi	r2,-1
   2fd88:	e0bffe15 	stw	r2,-8(fp)
   2fd8c:	00bffb44 	movi	r2,-19
   2fd90:	e0bffd15 	stw	r2,-12(fp)
   2fd94:	e03ffc15 	stw	zero,-16(fp)
   2fd98:	d1600604 	addi	r5,gp,-32744
   2fd9c:	e13ffa17 	ldw	r4,-24(fp)
   2fda0:	00300bc0 	call	300bc <alt_find_dev>
   2fda4:	e0bfff15 	stw	r2,-4(fp)
   2fda8:	e0bfff17 	ldw	r2,-4(fp)
   2fdac:	1000051e 	bne	r2,zero,2fdc4 <open+0x5c>
   2fdb0:	e13ffa17 	ldw	r4,-24(fp)
   2fdb4:	003014c0 	call	3014c <alt_find_file>
   2fdb8:	e0bfff15 	stw	r2,-4(fp)
   2fdbc:	00800044 	movi	r2,1
   2fdc0:	e0bffc15 	stw	r2,-16(fp)
   2fdc4:	e0bfff17 	ldw	r2,-4(fp)
   2fdc8:	10002c26 	beq	r2,zero,2fe7c <open+0x114>
   2fdcc:	e13fff17 	ldw	r4,-4(fp)
   2fdd0:	00302540 	call	30254 <alt_get_fd>
   2fdd4:	e0bffe15 	stw	r2,-8(fp)
   2fdd8:	e0bffe17 	ldw	r2,-8(fp)
   2fddc:	1000030e 	bge	r2,zero,2fdec <open+0x84>
   2fde0:	e0bffe17 	ldw	r2,-8(fp)
   2fde4:	e0bffd15 	stw	r2,-12(fp)
   2fde8:	00002606 	br	2fe84 <open+0x11c>
   2fdec:	e0fffe17 	ldw	r3,-8(fp)
   2fdf0:	1805883a 	mov	r2,r3
   2fdf4:	1085883a 	add	r2,r2,r2
   2fdf8:	10c5883a 	add	r2,r2,r3
   2fdfc:	100490ba 	slli	r2,r2,2
   2fe00:	00c000f4 	movhi	r3,3
   2fe04:	18c45404 	addi	r3,r3,4432
   2fe08:	10c5883a 	add	r2,r2,r3
   2fe0c:	e0bffb15 	stw	r2,-20(fp)
   2fe10:	e0fff917 	ldw	r3,-28(fp)
   2fe14:	00900034 	movhi	r2,16384
   2fe18:	10bfffc4 	addi	r2,r2,-1
   2fe1c:	1886703a 	and	r3,r3,r2
   2fe20:	e0bffb17 	ldw	r2,-20(fp)
   2fe24:	10c00215 	stw	r3,8(r2)
   2fe28:	e0bffc17 	ldw	r2,-16(fp)
   2fe2c:	1000051e 	bne	r2,zero,2fe44 <open+0xdc>
   2fe30:	e13ffb17 	ldw	r4,-20(fp)
   2fe34:	002fc8c0 	call	2fc8c <alt_file_locked>
   2fe38:	e0bffd15 	stw	r2,-12(fp)
   2fe3c:	e0bffd17 	ldw	r2,-12(fp)
   2fe40:	10001016 	blt	r2,zero,2fe84 <open+0x11c>
   2fe44:	e0bfff17 	ldw	r2,-4(fp)
   2fe48:	10800317 	ldw	r2,12(r2)
   2fe4c:	10000826 	beq	r2,zero,2fe70 <open+0x108>
   2fe50:	e0bfff17 	ldw	r2,-4(fp)
   2fe54:	10800317 	ldw	r2,12(r2)
   2fe58:	e1fff817 	ldw	r7,-32(fp)
   2fe5c:	e1bff917 	ldw	r6,-28(fp)
   2fe60:	e17ffa17 	ldw	r5,-24(fp)
   2fe64:	e13ffb17 	ldw	r4,-20(fp)
   2fe68:	103ee83a 	callr	r2
   2fe6c:	00000106 	br	2fe74 <open+0x10c>
   2fe70:	0005883a 	mov	r2,zero
   2fe74:	e0bffd15 	stw	r2,-12(fp)
   2fe78:	00000206 	br	2fe84 <open+0x11c>
   2fe7c:	00bffb44 	movi	r2,-19
   2fe80:	e0bffd15 	stw	r2,-12(fp)
   2fe84:	e0bffd17 	ldw	r2,-12(fp)
   2fe88:	1000090e 	bge	r2,zero,2feb0 <open+0x148>
   2fe8c:	e13ffe17 	ldw	r4,-8(fp)
   2fe90:	002e8840 	call	2e884 <alt_release_fd>
   2fe94:	002fc500 	call	2fc50 <alt_get_errno>
   2fe98:	1007883a 	mov	r3,r2
   2fe9c:	e0bffd17 	ldw	r2,-12(fp)
   2fea0:	0085c83a 	sub	r2,zero,r2
   2fea4:	18800015 	stw	r2,0(r3)
   2fea8:	00bfffc4 	movi	r2,-1
   2feac:	00000106 	br	2feb4 <open+0x14c>
   2feb0:	e0bffe17 	ldw	r2,-8(fp)
   2feb4:	e037883a 	mov	sp,fp
   2feb8:	dfc00117 	ldw	ra,4(sp)
   2febc:	df000017 	ldw	fp,0(sp)
   2fec0:	dec00204 	addi	sp,sp,8
   2fec4:	f800283a 	ret

0002fec8 <alt_alarm_stop>:
   2fec8:	defffa04 	addi	sp,sp,-24
   2fecc:	df000515 	stw	fp,20(sp)
   2fed0:	df000504 	addi	fp,sp,20
   2fed4:	e13ffb15 	stw	r4,-20(fp)
   2fed8:	0005303a 	rdctl	r2,status
   2fedc:	e0bffc15 	stw	r2,-16(fp)
   2fee0:	e0fffc17 	ldw	r3,-16(fp)
   2fee4:	00bfff84 	movi	r2,-2
   2fee8:	1884703a 	and	r2,r3,r2
   2feec:	1001703a 	wrctl	status,r2
   2fef0:	e0bffc17 	ldw	r2,-16(fp)
   2fef4:	e0bfff15 	stw	r2,-4(fp)
   2fef8:	e0bffb17 	ldw	r2,-20(fp)
   2fefc:	e0bffd15 	stw	r2,-12(fp)
   2ff00:	e0bffd17 	ldw	r2,-12(fp)
   2ff04:	10800017 	ldw	r2,0(r2)
   2ff08:	e0fffd17 	ldw	r3,-12(fp)
   2ff0c:	18c00117 	ldw	r3,4(r3)
   2ff10:	10c00115 	stw	r3,4(r2)
   2ff14:	e0bffd17 	ldw	r2,-12(fp)
   2ff18:	10800117 	ldw	r2,4(r2)
   2ff1c:	e0fffd17 	ldw	r3,-12(fp)
   2ff20:	18c00017 	ldw	r3,0(r3)
   2ff24:	10c00015 	stw	r3,0(r2)
   2ff28:	e0bffd17 	ldw	r2,-12(fp)
   2ff2c:	e0fffd17 	ldw	r3,-12(fp)
   2ff30:	10c00115 	stw	r3,4(r2)
   2ff34:	e0bffd17 	ldw	r2,-12(fp)
   2ff38:	e0fffd17 	ldw	r3,-12(fp)
   2ff3c:	10c00015 	stw	r3,0(r2)
   2ff40:	0001883a 	nop
   2ff44:	e0bfff17 	ldw	r2,-4(fp)
   2ff48:	e0bffe15 	stw	r2,-8(fp)
   2ff4c:	e0bffe17 	ldw	r2,-8(fp)
   2ff50:	1001703a 	wrctl	status,r2
   2ff54:	0001883a 	nop
   2ff58:	0001883a 	nop
   2ff5c:	e037883a 	mov	sp,fp
   2ff60:	df000017 	ldw	fp,0(sp)
   2ff64:	dec00104 	addi	sp,sp,4
   2ff68:	f800283a 	ret

0002ff6c <alt_tick>:
   2ff6c:	defff904 	addi	sp,sp,-28
   2ff70:	dfc00615 	stw	ra,24(sp)
   2ff74:	df000515 	stw	fp,20(sp)
   2ff78:	dc400415 	stw	r17,16(sp)
   2ff7c:	dc000315 	stw	r16,12(sp)
   2ff80:	df000504 	addi	fp,sp,20
   2ff84:	d0a00c17 	ldw	r2,-32720(gp)
   2ff88:	e0bffd15 	stw	r2,-12(fp)
   2ff8c:	d1265417 	ldw	r4,-26288(gp)
   2ff90:	d1665517 	ldw	r5,-26284(gp)
   2ff94:	01800044 	movi	r6,1
   2ff98:	000f883a 	mov	r7,zero
   2ff9c:	2185883a 	add	r2,r4,r6
   2ffa0:	1111803a 	cmpltu	r8,r2,r4
   2ffa4:	29c7883a 	add	r3,r5,r7
   2ffa8:	40c9883a 	add	r4,r8,r3
   2ffac:	2007883a 	mov	r3,r4
   2ffb0:	1009883a 	mov	r4,r2
   2ffb4:	180b883a 	mov	r5,r3
   2ffb8:	d1265415 	stw	r4,-26288(gp)
   2ffbc:	d1665515 	stw	r5,-26284(gp)
   2ffc0:	00002906 	br	30068 <alt_tick+0xfc>
   2ffc4:	e0bffd17 	ldw	r2,-12(fp)
   2ffc8:	10800017 	ldw	r2,0(r2)
   2ffcc:	e0bffc15 	stw	r2,-16(fp)
   2ffd0:	e13ffd17 	ldw	r4,-12(fp)
   2ffd4:	20800217 	ldw	r2,8(r4)
   2ffd8:	20c00317 	ldw	r3,12(r4)
   2ffdc:	d1265417 	ldw	r4,-26288(gp)
   2ffe0:	d1665517 	ldw	r5,-26284(gp)
   2ffe4:	28c01e36 	bltu	r5,r3,30060 <alt_tick+0xf4>
   2ffe8:	1940011e 	bne	r3,r5,2fff0 <alt_tick+0x84>
   2ffec:	20801c36 	bltu	r4,r2,30060 <alt_tick+0xf4>
   2fff0:	e0bffd17 	ldw	r2,-12(fp)
   2fff4:	10800417 	ldw	r2,16(r2)
   2fff8:	e0fffd17 	ldw	r3,-12(fp)
   2fffc:	18c00517 	ldw	r3,20(r3)
   30000:	1809883a 	mov	r4,r3
   30004:	103ee83a 	callr	r2
   30008:	e0bffb15 	stw	r2,-20(fp)
   3000c:	e0bffb17 	ldw	r2,-20(fp)
   30010:	1000031e 	bne	r2,zero,30020 <alt_tick+0xb4>
   30014:	e13ffd17 	ldw	r4,-12(fp)
   30018:	002fec80 	call	2fec8 <alt_alarm_stop>
   3001c:	00001006 	br	30060 <alt_tick+0xf4>
   30020:	e0bffd17 	ldw	r2,-12(fp)
   30024:	11000217 	ldw	r4,8(r2)
   30028:	11400317 	ldw	r5,12(r2)
   3002c:	e0bffb17 	ldw	r2,-20(fp)
   30030:	1021883a 	mov	r16,r2
   30034:	0023883a 	mov	r17,zero
   30038:	2405883a 	add	r2,r4,r16
   3003c:	110d803a 	cmpltu	r6,r2,r4
   30040:	2c47883a 	add	r3,r5,r17
   30044:	30c9883a 	add	r4,r6,r3
   30048:	2007883a 	mov	r3,r4
   3004c:	1009883a 	mov	r4,r2
   30050:	180b883a 	mov	r5,r3
   30054:	e0bffd17 	ldw	r2,-12(fp)
   30058:	11000215 	stw	r4,8(r2)
   3005c:	11400315 	stw	r5,12(r2)
   30060:	e0bffc17 	ldw	r2,-16(fp)
   30064:	e0bffd15 	stw	r2,-12(fp)
   30068:	e0fffd17 	ldw	r3,-12(fp)
   3006c:	d0a00c04 	addi	r2,gp,-32720
   30070:	18bfd41e 	bne	r3,r2,2ffc4 <alt_tick+0x58>
   30074:	0001883a 	nop
   30078:	0001883a 	nop
   3007c:	e6fffe04 	addi	sp,fp,-8
   30080:	dfc00317 	ldw	ra,12(sp)
   30084:	df000217 	ldw	fp,8(sp)
   30088:	dc400117 	ldw	r17,4(sp)
   3008c:	dc000017 	ldw	r16,0(sp)
   30090:	dec00404 	addi	sp,sp,16
   30094:	f800283a 	ret

00030098 <altera_nios2_gen2_irq_init>:
   30098:	deffff04 	addi	sp,sp,-4
   3009c:	df000015 	stw	fp,0(sp)
   300a0:	d839883a 	mov	fp,sp
   300a4:	000170fa 	wrctl	ienable,zero
   300a8:	0001883a 	nop
   300ac:	e037883a 	mov	sp,fp
   300b0:	df000017 	ldw	fp,0(sp)
   300b4:	dec00104 	addi	sp,sp,4
   300b8:	f800283a 	ret

000300bc <alt_find_dev>:
   300bc:	defffa04 	addi	sp,sp,-24
   300c0:	dfc00515 	stw	ra,20(sp)
   300c4:	df000415 	stw	fp,16(sp)
   300c8:	df000404 	addi	fp,sp,16
   300cc:	e13ffd15 	stw	r4,-12(fp)
   300d0:	e17ffc15 	stw	r5,-16(fp)
   300d4:	e0bffc17 	ldw	r2,-16(fp)
   300d8:	10800017 	ldw	r2,0(r2)
   300dc:	e0bfff15 	stw	r2,-4(fp)
   300e0:	e13ffd17 	ldw	r4,-12(fp)
   300e4:	00257040 	call	25704 <strlen>
   300e8:	10800044 	addi	r2,r2,1
   300ec:	e0bffe15 	stw	r2,-8(fp)
   300f0:	00000d06 	br	30128 <alt_find_dev+0x6c>
   300f4:	e0bfff17 	ldw	r2,-4(fp)
   300f8:	10800217 	ldw	r2,8(r2)
   300fc:	e0fffe17 	ldw	r3,-8(fp)
   30100:	180d883a 	mov	r6,r3
   30104:	e17ffd17 	ldw	r5,-12(fp)
   30108:	1009883a 	mov	r4,r2
   3010c:	00303200 	call	30320 <memcmp>
   30110:	1000021e 	bne	r2,zero,3011c <alt_find_dev+0x60>
   30114:	e0bfff17 	ldw	r2,-4(fp)
   30118:	00000706 	br	30138 <alt_find_dev+0x7c>
   3011c:	e0bfff17 	ldw	r2,-4(fp)
   30120:	10800017 	ldw	r2,0(r2)
   30124:	e0bfff15 	stw	r2,-4(fp)
   30128:	e0ffff17 	ldw	r3,-4(fp)
   3012c:	e0bffc17 	ldw	r2,-16(fp)
   30130:	18bff01e 	bne	r3,r2,300f4 <alt_find_dev+0x38>
   30134:	0005883a 	mov	r2,zero
   30138:	e037883a 	mov	sp,fp
   3013c:	dfc00117 	ldw	ra,4(sp)
   30140:	df000017 	ldw	fp,0(sp)
   30144:	dec00204 	addi	sp,sp,8
   30148:	f800283a 	ret

0003014c <alt_find_file>:
   3014c:	defffb04 	addi	sp,sp,-20
   30150:	dfc00415 	stw	ra,16(sp)
   30154:	df000315 	stw	fp,12(sp)
   30158:	df000304 	addi	fp,sp,12
   3015c:	e13ffd15 	stw	r4,-12(fp)
   30160:	d0a00417 	ldw	r2,-32752(gp)
   30164:	e0bfff15 	stw	r2,-4(fp)
   30168:	00003106 	br	30230 <alt_find_file+0xe4>
   3016c:	e0bfff17 	ldw	r2,-4(fp)
   30170:	10800217 	ldw	r2,8(r2)
   30174:	1009883a 	mov	r4,r2
   30178:	00257040 	call	25704 <strlen>
   3017c:	e0bffe15 	stw	r2,-8(fp)
   30180:	e0bfff17 	ldw	r2,-4(fp)
   30184:	10c00217 	ldw	r3,8(r2)
   30188:	e0bffe17 	ldw	r2,-8(fp)
   3018c:	10bfffc4 	addi	r2,r2,-1
   30190:	1885883a 	add	r2,r3,r2
   30194:	10800003 	ldbu	r2,0(r2)
   30198:	10803fcc 	andi	r2,r2,255
   3019c:	1080201c 	xori	r2,r2,128
   301a0:	10bfe004 	addi	r2,r2,-128
   301a4:	10800bd8 	cmpnei	r2,r2,47
   301a8:	1000031e 	bne	r2,zero,301b8 <alt_find_file+0x6c>
   301ac:	e0bffe17 	ldw	r2,-8(fp)
   301b0:	10bfffc4 	addi	r2,r2,-1
   301b4:	e0bffe15 	stw	r2,-8(fp)
   301b8:	e0bffe17 	ldw	r2,-8(fp)
   301bc:	e0fffd17 	ldw	r3,-12(fp)
   301c0:	1885883a 	add	r2,r3,r2
   301c4:	10800003 	ldbu	r2,0(r2)
   301c8:	10803fcc 	andi	r2,r2,255
   301cc:	1080201c 	xori	r2,r2,128
   301d0:	10bfe004 	addi	r2,r2,-128
   301d4:	10800be0 	cmpeqi	r2,r2,47
   301d8:	1000081e 	bne	r2,zero,301fc <alt_find_file+0xb0>
   301dc:	e0bffe17 	ldw	r2,-8(fp)
   301e0:	e0fffd17 	ldw	r3,-12(fp)
   301e4:	1885883a 	add	r2,r3,r2
   301e8:	10800003 	ldbu	r2,0(r2)
   301ec:	10803fcc 	andi	r2,r2,255
   301f0:	1080201c 	xori	r2,r2,128
   301f4:	10bfe004 	addi	r2,r2,-128
   301f8:	10000a1e 	bne	r2,zero,30224 <alt_find_file+0xd8>
   301fc:	e0bfff17 	ldw	r2,-4(fp)
   30200:	10800217 	ldw	r2,8(r2)
   30204:	e0fffe17 	ldw	r3,-8(fp)
   30208:	180d883a 	mov	r6,r3
   3020c:	e17ffd17 	ldw	r5,-12(fp)
   30210:	1009883a 	mov	r4,r2
   30214:	00303200 	call	30320 <memcmp>
   30218:	1000021e 	bne	r2,zero,30224 <alt_find_file+0xd8>
   3021c:	e0bfff17 	ldw	r2,-4(fp)
   30220:	00000706 	br	30240 <alt_find_file+0xf4>
   30224:	e0bfff17 	ldw	r2,-4(fp)
   30228:	10800017 	ldw	r2,0(r2)
   3022c:	e0bfff15 	stw	r2,-4(fp)
   30230:	e0ffff17 	ldw	r3,-4(fp)
   30234:	d0a00404 	addi	r2,gp,-32752
   30238:	18bfcc1e 	bne	r3,r2,3016c <alt_find_file+0x20>
   3023c:	0005883a 	mov	r2,zero
   30240:	e037883a 	mov	sp,fp
   30244:	dfc00117 	ldw	ra,4(sp)
   30248:	df000017 	ldw	fp,0(sp)
   3024c:	dec00204 	addi	sp,sp,8
   30250:	f800283a 	ret

00030254 <alt_get_fd>:
   30254:	defffc04 	addi	sp,sp,-16
   30258:	df000315 	stw	fp,12(sp)
   3025c:	df000304 	addi	fp,sp,12
   30260:	e13ffd15 	stw	r4,-12(fp)
   30264:	00bffa04 	movi	r2,-24
   30268:	e0bffe15 	stw	r2,-8(fp)
   3026c:	e03fff15 	stw	zero,-4(fp)
   30270:	00001d06 	br	302e8 <alt_get_fd+0x94>
   30274:	e0ffff17 	ldw	r3,-4(fp)
   30278:	1805883a 	mov	r2,r3
   3027c:	1085883a 	add	r2,r2,r2
   30280:	10c5883a 	add	r2,r2,r3
   30284:	100490ba 	slli	r2,r2,2
   30288:	00c000f4 	movhi	r3,3
   3028c:	10c7883a 	add	r3,r2,r3
   30290:	18845417 	ldw	r2,4432(r3)
   30294:	1000111e 	bne	r2,zero,302dc <alt_get_fd+0x88>
   30298:	e0ffff17 	ldw	r3,-4(fp)
   3029c:	1805883a 	mov	r2,r3
   302a0:	1085883a 	add	r2,r2,r2
   302a4:	10c5883a 	add	r2,r2,r3
   302a8:	100490ba 	slli	r2,r2,2
   302ac:	e13ffd17 	ldw	r4,-12(fp)
   302b0:	00c000f4 	movhi	r3,3
   302b4:	10c7883a 	add	r3,r2,r3
   302b8:	19045415 	stw	r4,4432(r3)
   302bc:	d0e00817 	ldw	r3,-32736(gp)
   302c0:	e0bfff17 	ldw	r2,-4(fp)
   302c4:	1880020e 	bge	r3,r2,302d0 <alt_get_fd+0x7c>
   302c8:	e0bfff17 	ldw	r2,-4(fp)
   302cc:	d0a00815 	stw	r2,-32736(gp)
   302d0:	e0bfff17 	ldw	r2,-4(fp)
   302d4:	e0bffe15 	stw	r2,-8(fp)
   302d8:	00000706 	br	302f8 <alt_get_fd+0xa4>
   302dc:	e0bfff17 	ldw	r2,-4(fp)
   302e0:	10800044 	addi	r2,r2,1
   302e4:	e0bfff15 	stw	r2,-4(fp)
   302e8:	e0bfff17 	ldw	r2,-4(fp)
   302ec:	10800810 	cmplti	r2,r2,32
   302f0:	103fe01e 	bne	r2,zero,30274 <alt_get_fd+0x20>
   302f4:	0001883a 	nop
   302f8:	e0bffe17 	ldw	r2,-8(fp)
   302fc:	e037883a 	mov	sp,fp
   30300:	df000017 	ldw	fp,0(sp)
   30304:	dec00104 	addi	sp,sp,4
   30308:	f800283a 	ret

0003030c <atexit>:
   3030c:	200b883a 	mov	r5,r4
   30310:	000f883a 	mov	r7,zero
   30314:	000d883a 	mov	r6,zero
   30318:	0009883a 	mov	r4,zero
   3031c:	00303981 	jmpi	30398 <__register_exitproc>

00030320 <memcmp>:
   30320:	30800128 	cmpgeui	r2,r6,4
   30324:	10000d26 	beq	r2,zero,3035c <memcmp+0x3c>
   30328:	2144b03a 	or	r2,r4,r5
   3032c:	108000cc 	andi	r2,r2,3
   30330:	10000726 	beq	r2,zero,30350 <memcmp+0x30>
   30334:	30bfffc4 	addi	r2,r6,-1
   30338:	00000a06 	br	30364 <memcmp+0x44>
   3033c:	31bfff04 	addi	r6,r6,-4
   30340:	30800128 	cmpgeui	r2,r6,4
   30344:	21000104 	addi	r4,r4,4
   30348:	29400104 	addi	r5,r5,4
   3034c:	10000326 	beq	r2,zero,3035c <memcmp+0x3c>
   30350:	20c00017 	ldw	r3,0(r4)
   30354:	28800017 	ldw	r2,0(r5)
   30358:	18bff826 	beq	r3,r2,3033c <memcmp+0x1c>
   3035c:	30bfffc4 	addi	r2,r6,-1
   30360:	30000b26 	beq	r6,zero,30390 <memcmp+0x70>
   30364:	11800044 	addi	r6,r2,1
   30368:	218d883a 	add	r6,r4,r6
   3036c:	00000106 	br	30374 <memcmp+0x54>
   30370:	21800726 	beq	r4,r6,30390 <memcmp+0x70>
   30374:	20800003 	ldbu	r2,0(r4)
   30378:	28c00003 	ldbu	r3,0(r5)
   3037c:	21000044 	addi	r4,r4,1
   30380:	29400044 	addi	r5,r5,1
   30384:	10fffa26 	beq	r2,r3,30370 <memcmp+0x50>
   30388:	10c5c83a 	sub	r2,r2,r3
   3038c:	f800283a 	ret
   30390:	0005883a 	mov	r2,zero
   30394:	f800283a 	ret

00030398 <__register_exitproc>:
   30398:	008000f4 	movhi	r2,3
   3039c:	108f1917 	ldw	r2,15460(r2)
   303a0:	10001726 	beq	r2,zero,30400 <__register_exitproc+0x68>
   303a4:	10c00117 	ldw	r3,4(r2)
   303a8:	1a000808 	cmpgei	r8,r3,32
   303ac:	40001d1e 	bne	r8,zero,30424 <__register_exitproc+0x8c>
   303b0:	20000b26 	beq	r4,zero,303e0 <__register_exitproc+0x48>
   303b4:	181090ba 	slli	r8,r3,2
   303b8:	02400044 	movi	r9,1
   303bc:	48d2983a 	sll	r9,r9,r3
   303c0:	1211883a 	add	r8,r2,r8
   303c4:	41802215 	stw	r6,136(r8)
   303c8:	11806217 	ldw	r6,392(r2)
   303cc:	21000098 	cmpnei	r4,r4,2
   303d0:	324cb03a 	or	r6,r6,r9
   303d4:	11806215 	stw	r6,392(r2)
   303d8:	41c04215 	stw	r7,264(r8)
   303dc:	20000d26 	beq	r4,zero,30414 <__register_exitproc+0x7c>
   303e0:	19000084 	addi	r4,r3,2
   303e4:	200890ba 	slli	r4,r4,2
   303e8:	18c00044 	addi	r3,r3,1
   303ec:	10c00115 	stw	r3,4(r2)
   303f0:	1105883a 	add	r2,r2,r4
   303f4:	11400015 	stw	r5,0(r2)
   303f8:	0005883a 	mov	r2,zero
   303fc:	f800283a 	ret
   30400:	008000f4 	movhi	r2,3
   30404:	108fba04 	addi	r2,r2,16104
   30408:	00c000f4 	movhi	r3,3
   3040c:	188f1915 	stw	r2,15460(r3)
   30410:	003fe406 	br	303a4 <__register_exitproc+0xc>
   30414:	11006317 	ldw	r4,396(r2)
   30418:	2248b03a 	or	r4,r4,r9
   3041c:	11006315 	stw	r4,396(r2)
   30420:	003fef06 	br	303e0 <__register_exitproc+0x48>
   30424:	00bfffc4 	movi	r2,-1
   30428:	f800283a 	ret
